
qemu-nbd-xen:     file format elf64-x86-64


Disassembly of section .init:

0000000000003000 <_init>:
    3000:	sub    rsp,0x8
    3004:	mov    rax,QWORD PTR [rip+0x23fcd]        # 26fd8 <__gmon_start__>
    300b:	test   rax,rax
    300e:	je     3012 <_init+0x12>
    3010:	call   rax
    3012:	add    rsp,0x8
    3016:	ret    

Disassembly of section .plt:

0000000000003020 <.plt>:
    3020:	push   QWORD PTR [rip+0x23c2a]        # 26c50 <_GLOBAL_OFFSET_TABLE_+0x8>
    3026:	jmp    QWORD PTR [rip+0x23c2c]        # 26c58 <_GLOBAL_OFFSET_TABLE_+0x10>
    302c:	nop    DWORD PTR [rax+0x0]

0000000000003030 <__ctype_toupper_loc@plt>:
    3030:	jmp    QWORD PTR [rip+0x23c2a]        # 26c60 <__ctype_toupper_loc@GLIBC_2.3>
    3036:	push   0x0
    303b:	jmp    3020 <.plt>

0000000000003040 <getenv@plt>:
    3040:	jmp    QWORD PTR [rip+0x23c22]        # 26c68 <getenv@GLIBC_2.2.5>
    3046:	push   0x1
    304b:	jmp    3020 <.plt>

0000000000003050 <sigprocmask@plt>:
    3050:	jmp    QWORD PTR [rip+0x23c1a]        # 26c70 <sigprocmask@GLIBC_2.2.5>
    3056:	push   0x2
    305b:	jmp    3020 <.plt>

0000000000003060 <__snprintf_chk@plt>:
    3060:	jmp    QWORD PTR [rip+0x23c12]        # 26c78 <__snprintf_chk@GLIBC_2.3.4>
    3066:	push   0x3
    306b:	jmp    3020 <.plt>

0000000000003070 <free@plt>:
    3070:	jmp    QWORD PTR [rip+0x23c0a]        # 26c80 <free@GLIBC_2.2.5>
    3076:	push   0x4
    307b:	jmp    3020 <.plt>

0000000000003080 <recv@plt>:
    3080:	jmp    QWORD PTR [rip+0x23c02]        # 26c88 <recv@GLIBC_2.2.5>
    3086:	push   0x5
    308b:	jmp    3020 <.plt>

0000000000003090 <pthread_create@plt>:
    3090:	jmp    QWORD PTR [rip+0x23bfa]        # 26c90 <pthread_create@GLIBC_2.2.5>
    3096:	push   0x6
    309b:	jmp    3020 <.plt>

00000000000030a0 <abort@plt>:
    30a0:	jmp    QWORD PTR [rip+0x23bf2]        # 26c98 <abort@GLIBC_2.2.5>
    30a6:	push   0x7
    30ab:	jmp    3020 <.plt>

00000000000030b0 <__errno_location@plt>:
    30b0:	jmp    QWORD PTR [rip+0x23bea]        # 26ca0 <__errno_location@GLIBC_2.2.5>
    30b6:	push   0x8
    30bb:	jmp    3020 <.plt>

00000000000030c0 <unlink@plt>:
    30c0:	jmp    QWORD PTR [rip+0x23be2]        # 26ca8 <unlink@GLIBC_2.2.5>
    30c6:	push   0x9
    30cb:	jmp    3020 <.plt>

00000000000030d0 <strncmp@plt>:
    30d0:	jmp    QWORD PTR [rip+0x23bda]        # 26cb0 <strncmp@GLIBC_2.2.5>
    30d6:	push   0xa
    30db:	jmp    3020 <.plt>

00000000000030e0 <localtime_r@plt>:
    30e0:	jmp    QWORD PTR [rip+0x23bd2]        # 26cb8 <localtime_r@GLIBC_2.2.5>
    30e6:	push   0xb
    30eb:	jmp    3020 <.plt>

00000000000030f0 <inflate@plt>:
    30f0:	jmp    QWORD PTR [rip+0x23bca]        # 26cc0 <inflate>
    30f6:	push   0xc
    30fb:	jmp    3020 <.plt>

0000000000003100 <mkdir@plt>:
    3100:	jmp    QWORD PTR [rip+0x23bc2]        # 26cc8 <mkdir@GLIBC_2.2.5>
    3106:	push   0xd
    310b:	jmp    3020 <.plt>

0000000000003110 <sigaction@plt>:
    3110:	jmp    QWORD PTR [rip+0x23bba]        # 26cd0 <sigaction@GLIBC_2.2.5>
    3116:	push   0xe
    311b:	jmp    3020 <.plt>

0000000000003120 <setsockopt@plt>:
    3120:	jmp    QWORD PTR [rip+0x23bb2]        # 26cd8 <setsockopt@GLIBC_2.2.5>
    3126:	push   0xf
    312b:	jmp    3020 <.plt>

0000000000003130 <write@plt>:
    3130:	jmp    QWORD PTR [rip+0x23baa]        # 26ce0 <write@GLIBC_2.2.5>
    3136:	push   0x10
    313b:	jmp    3020 <.plt>

0000000000003140 <getpid@plt>:
    3140:	jmp    QWORD PTR [rip+0x23ba2]        # 26ce8 <getpid@GLIBC_2.2.5>
    3146:	push   0x11
    314b:	jmp    3020 <.plt>

0000000000003150 <__xstat64@plt>:
    3150:	jmp    QWORD PTR [rip+0x23b9a]        # 26cf0 <__xstat64@GLIBC_2.2.5>
    3156:	push   0x12
    315b:	jmp    3020 <.plt>

0000000000003160 <opendir@plt>:
    3160:	jmp    QWORD PTR [rip+0x23b92]        # 26cf8 <opendir@GLIBC_2.2.5>
    3166:	push   0x13
    316b:	jmp    3020 <.plt>

0000000000003170 <rmdir@plt>:
    3170:	jmp    QWORD PTR [rip+0x23b8a]        # 26d00 <rmdir@GLIBC_2.2.5>
    3176:	push   0x14
    317b:	jmp    3020 <.plt>

0000000000003180 <strlen@plt>:
    3180:	jmp    QWORD PTR [rip+0x23b82]        # 26d08 <strlen@GLIBC_2.2.5>
    3186:	push   0x15
    318b:	jmp    3020 <.plt>

0000000000003190 <__stack_chk_fail@plt>:
    3190:	jmp    QWORD PTR [rip+0x23b7a]        # 26d10 <__stack_chk_fail@GLIBC_2.4>
    3196:	push   0x16
    319b:	jmp    3020 <.plt>

00000000000031a0 <getopt_long@plt>:
    31a0:	jmp    QWORD PTR [rip+0x23b72]        # 26d18 <getopt_long@GLIBC_2.2.5>
    31a6:	push   0x17
    31ab:	jmp    3020 <.plt>

00000000000031b0 <errx@plt>:
    31b0:	jmp    QWORD PTR [rip+0x23b6a]        # 26d20 <errx@GLIBC_2.2.5>
    31b6:	push   0x18
    31bb:	jmp    3020 <.plt>

00000000000031c0 <send@plt>:
    31c0:	jmp    QWORD PTR [rip+0x23b62]        # 26d28 <send@GLIBC_2.2.5>
    31c6:	push   0x19
    31cb:	jmp    3020 <.plt>

00000000000031d0 <strchr@plt>:
    31d0:	jmp    QWORD PTR [rip+0x23b5a]        # 26d30 <strchr@GLIBC_2.2.5>
    31d6:	push   0x1a
    31db:	jmp    3020 <.plt>

00000000000031e0 <__fdelt_chk@plt>:
    31e0:	jmp    QWORD PTR [rip+0x23b52]        # 26d38 <__fdelt_chk@GLIBC_2.15>
    31e6:	push   0x1b
    31eb:	jmp    3020 <.plt>

00000000000031f0 <snprintf@plt>:
    31f0:	jmp    QWORD PTR [rip+0x23b4a]        # 26d40 <snprintf@GLIBC_2.2.5>
    31f6:	push   0x1c
    31fb:	jmp    3020 <.plt>

0000000000003200 <strrchr@plt>:
    3200:	jmp    QWORD PTR [rip+0x23b42]        # 26d48 <strrchr@GLIBC_2.2.5>
    3206:	push   0x1d
    320b:	jmp    3020 <.plt>

0000000000003210 <gettimeofday@plt>:
    3210:	jmp    QWORD PTR [rip+0x23b3a]        # 26d50 <gettimeofday@GLIBC_2.2.5>
    3216:	push   0x1e
    321b:	jmp    3020 <.plt>

0000000000003220 <__assert_fail@plt>:
    3220:	jmp    QWORD PTR [rip+0x23b32]        # 26d58 <__assert_fail@GLIBC_2.2.5>
    3226:	push   0x1f
    322b:	jmp    3020 <.plt>

0000000000003230 <deflate@plt>:
    3230:	jmp    QWORD PTR [rip+0x23b2a]        # 26d60 <deflate>
    3236:	push   0x20
    323b:	jmp    3020 <.plt>

0000000000003240 <memset@plt>:
    3240:	jmp    QWORD PTR [rip+0x23b22]        # 26d68 <memset@GLIBC_2.2.5>
    3246:	push   0x21
    324b:	jmp    3020 <.plt>

0000000000003250 <ioctl@plt>:
    3250:	jmp    QWORD PTR [rip+0x23b1a]        # 26d70 <ioctl@GLIBC_2.2.5>
    3256:	push   0x22
    325b:	jmp    3020 <.plt>

0000000000003260 <close@plt>:
    3260:	jmp    QWORD PTR [rip+0x23b12]        # 26d78 <close@GLIBC_2.2.5>
    3266:	push   0x23
    326b:	jmp    3020 <.plt>

0000000000003270 <__realpath_chk@plt>:
    3270:	jmp    QWORD PTR [rip+0x23b0a]        # 26d80 <__realpath_chk@GLIBC_2.4>
    3276:	push   0x24
    327b:	jmp    3020 <.plt>

0000000000003280 <pipe@plt>:
    3280:	jmp    QWORD PTR [rip+0x23b02]        # 26d88 <pipe@GLIBC_2.2.5>
    3286:	push   0x25
    328b:	jmp    3020 <.plt>

0000000000003290 <closedir@plt>:
    3290:	jmp    QWORD PTR [rip+0x23afa]        # 26d90 <closedir@GLIBC_2.2.5>
    3296:	push   0x26
    329b:	jmp    3020 <.plt>

00000000000032a0 <deflateInit2_@plt>:
    32a0:	jmp    QWORD PTR [rip+0x23af2]        # 26d98 <deflateInit2_>
    32a6:	push   0x27
    32ab:	jmp    3020 <.plt>

00000000000032b0 <memchr@plt>:
    32b0:	jmp    QWORD PTR [rip+0x23aea]        # 26da0 <memchr@GLIBC_2.2.5>
    32b6:	push   0x28
    32bb:	jmp    3020 <.plt>

00000000000032c0 <read@plt>:
    32c0:	jmp    QWORD PTR [rip+0x23ae2]        # 26da8 <read@GLIBC_2.2.5>
    32c6:	push   0x29
    32cb:	jmp    3020 <.plt>

00000000000032d0 <memcmp@plt>:
    32d0:	jmp    QWORD PTR [rip+0x23ada]        # 26db0 <memcmp@GLIBC_2.2.5>
    32d6:	push   0x2a
    32db:	jmp    3020 <.plt>

00000000000032e0 <mkstemp64@plt>:
    32e0:	jmp    QWORD PTR [rip+0x23ad2]        # 26db8 <mkstemp64@GLIBC_2.2.5>
    32e6:	push   0x2b
    32eb:	jmp    3020 <.plt>

00000000000032f0 <pthread_attr_init@plt>:
    32f0:	jmp    QWORD PTR [rip+0x23aca]        # 26dc0 <pthread_attr_init@GLIBC_2.2.5>
    32f6:	push   0x2c
    32fb:	jmp    3020 <.plt>

0000000000003300 <pthread_cond_signal@plt>:
    3300:	jmp    QWORD PTR [rip+0x23ac2]        # 26dc8 <pthread_cond_signal@GLIBC_2.3.2>
    3306:	push   0x2d
    330b:	jmp    3020 <.plt>

0000000000003310 <calloc@plt>:
    3310:	jmp    QWORD PTR [rip+0x23aba]        # 26dd0 <calloc@GLIBC_2.2.5>
    3316:	push   0x2e
    331b:	jmp    3020 <.plt>

0000000000003320 <__fxstat64@plt>:
    3320:	jmp    QWORD PTR [rip+0x23ab2]        # 26dd8 <__fxstat64@GLIBC_2.2.5>
    3326:	push   0x2f
    332b:	jmp    3020 <.plt>

0000000000003330 <strcmp@plt>:
    3330:	jmp    QWORD PTR [rip+0x23aaa]        # 26de0 <strcmp@GLIBC_2.2.5>
    3336:	push   0x30
    333b:	jmp    3020 <.plt>

0000000000003340 <strtoll@plt>:
    3340:	jmp    QWORD PTR [rip+0x23aa2]        # 26de8 <strtoll@GLIBC_2.2.5>
    3346:	push   0x31
    334b:	jmp    3020 <.plt>

0000000000003350 <gethostbyname@plt>:
    3350:	jmp    QWORD PTR [rip+0x23a9a]        # 26df0 <gethostbyname@GLIBC_2.2.5>
    3356:	push   0x32
    335b:	jmp    3020 <.plt>

0000000000003360 <__memcpy_chk@plt>:
    3360:	jmp    QWORD PTR [rip+0x23a92]        # 26df8 <__memcpy_chk@GLIBC_2.3.4>
    3366:	push   0x33
    336b:	jmp    3020 <.plt>

0000000000003370 <sigemptyset@plt>:
    3370:	jmp    QWORD PTR [rip+0x23a8a]        # 26e00 <sigemptyset@GLIBC_2.2.5>
    3376:	push   0x34
    337b:	jmp    3020 <.plt>

0000000000003380 <basename@plt>:
    3380:	jmp    QWORD PTR [rip+0x23a82]        # 26e08 <basename@GLIBC_2.2.5>
    3386:	push   0x35
    338b:	jmp    3020 <.plt>

0000000000003390 <strtol@plt>:
    3390:	jmp    QWORD PTR [rip+0x23a7a]        # 26e10 <strtol@GLIBC_2.2.5>
    3396:	push   0x36
    339b:	jmp    3020 <.plt>

00000000000033a0 <sigfillset@plt>:
    33a0:	jmp    QWORD PTR [rip+0x23a72]        # 26e18 <sigfillset@GLIBC_2.2.5>
    33a6:	push   0x37
    33ab:	jmp    3020 <.plt>

00000000000033b0 <memcpy@plt>:
    33b0:	jmp    QWORD PTR [rip+0x23a6a]        # 26e20 <memcpy@GLIBC_2.14>
    33b6:	push   0x38
    33bb:	jmp    3020 <.plt>

00000000000033c0 <inflateEnd@plt>:
    33c0:	jmp    QWORD PTR [rip+0x23a62]        # 26e28 <inflateEnd>
    33c6:	push   0x39
    33cb:	jmp    3020 <.plt>

00000000000033d0 <kill@plt>:
    33d0:	jmp    QWORD PTR [rip+0x23a5a]        # 26e30 <kill@GLIBC_2.2.5>
    33d6:	push   0x3a
    33db:	jmp    3020 <.plt>

00000000000033e0 <time@plt>:
    33e0:	jmp    QWORD PTR [rip+0x23a52]        # 26e38 <time@GLIBC_2.2.5>
    33e6:	push   0x3b
    33eb:	jmp    3020 <.plt>

00000000000033f0 <select@plt>:
    33f0:	jmp    QWORD PTR [rip+0x23a4a]        # 26e40 <select@GLIBC_2.2.5>
    33f6:	push   0x3c
    33fb:	jmp    3020 <.plt>

0000000000003400 <inet_aton@plt>:
    3400:	jmp    QWORD PTR [rip+0x23a42]        # 26e48 <inet_aton@GLIBC_2.2.5>
    3406:	push   0x3d
    340b:	jmp    3020 <.plt>

0000000000003410 <pthread_attr_setdetachstate@plt>:
    3410:	jmp    QWORD PTR [rip+0x23a3a]        # 26e50 <pthread_attr_setdetachstate@GLIBC_2.2.5>
    3416:	push   0x3e
    341b:	jmp    3020 <.plt>

0000000000003420 <mmap64@plt>:
    3420:	jmp    QWORD PTR [rip+0x23a32]        # 26e58 <mmap64@GLIBC_2.2.5>
    3426:	push   0x3f
    342b:	jmp    3020 <.plt>

0000000000003430 <pthread_mutex_unlock@plt>:
    3430:	jmp    QWORD PTR [rip+0x23a2a]        # 26e60 <pthread_mutex_unlock@GLIBC_2.2.5>
    3436:	push   0x40
    343b:	jmp    3020 <.plt>

0000000000003440 <__open64_2@plt>:
    3440:	jmp    QWORD PTR [rip+0x23a22]        # 26e68 <__open64_2@GLIBC_2.7>
    3446:	push   0x41
    344b:	jmp    3020 <.plt>

0000000000003450 <malloc@plt>:
    3450:	jmp    QWORD PTR [rip+0x23a1a]        # 26e70 <malloc@GLIBC_2.2.5>
    3456:	push   0x42
    345b:	jmp    3020 <.plt>

0000000000003460 <listen@plt>:
    3460:	jmp    QWORD PTR [rip+0x23a12]        # 26e78 <listen@GLIBC_2.2.5>
    3466:	push   0x43
    346b:	jmp    3020 <.plt>

0000000000003470 <sscanf@plt>:
    3470:	jmp    QWORD PTR [rip+0x23a0a]        # 26e80 <sscanf@GLIBC_2.2.5>
    3476:	push   0x44
    347b:	jmp    3020 <.plt>

0000000000003480 <daemon@plt>:
    3480:	jmp    QWORD PTR [rip+0x23a02]        # 26e88 <daemon@GLIBC_2.2.5>
    3486:	push   0x45
    348b:	jmp    3020 <.plt>

0000000000003490 <deflateEnd@plt>:
    3490:	jmp    QWORD PTR [rip+0x239fa]        # 26e90 <deflateEnd>
    3496:	push   0x46
    349b:	jmp    3020 <.plt>

00000000000034a0 <realloc@plt>:
    34a0:	jmp    QWORD PTR [rip+0x239f2]        # 26e98 <realloc@GLIBC_2.2.5>
    34a6:	push   0x47
    34ab:	jmp    3020 <.plt>

00000000000034b0 <munmap@plt>:
    34b0:	jmp    QWORD PTR [rip+0x239ea]        # 26ea0 <munmap@GLIBC_2.2.5>
    34b6:	push   0x48
    34bb:	jmp    3020 <.plt>

00000000000034c0 <ftruncate64@plt>:
    34c0:	jmp    QWORD PTR [rip+0x239e2]        # 26ea8 <ftruncate64@GLIBC_2.2.5>
    34c6:	push   0x49
    34cb:	jmp    3020 <.plt>

00000000000034d0 <__printf_chk@plt>:
    34d0:	jmp    QWORD PTR [rip+0x239da]        # 26eb0 <__printf_chk@GLIBC_2.3.4>
    34d6:	push   0x4a
    34db:	jmp    3020 <.plt>

00000000000034e0 <inflateInit_@plt>:
    34e0:	jmp    QWORD PTR [rip+0x239d2]        # 26eb8 <inflateInit_>
    34e6:	push   0x4b
    34eb:	jmp    3020 <.plt>

00000000000034f0 <bind@plt>:
    34f0:	jmp    QWORD PTR [rip+0x239ca]        # 26ec0 <bind@GLIBC_2.2.5>
    34f6:	push   0x4c
    34fb:	jmp    3020 <.plt>

0000000000003500 <open64@plt>:
    3500:	jmp    QWORD PTR [rip+0x239c2]        # 26ec8 <open64@GLIBC_2.2.5>
    3506:	push   0x4d
    350b:	jmp    3020 <.plt>

0000000000003510 <strftime@plt>:
    3510:	jmp    QWORD PTR [rip+0x239ba]        # 26ed0 <strftime@GLIBC_2.2.5>
    3516:	push   0x4e
    351b:	jmp    3020 <.plt>

0000000000003520 <fcntl64@plt>:
    3520:	jmp    QWORD PTR [rip+0x239b2]        # 26ed8 <fcntl64@GLIBC_2.28>
    3526:	push   0x4f
    352b:	jmp    3020 <.plt>

0000000000003530 <memmove@plt>:
    3530:	jmp    QWORD PTR [rip+0x239aa]        # 26ee0 <memmove@GLIBC_2.2.5>
    3536:	push   0x50
    353b:	jmp    3020 <.plt>

0000000000003540 <readdir64@plt>:
    3540:	jmp    QWORD PTR [rip+0x239a2]        # 26ee8 <readdir64@GLIBC_2.2.5>
    3546:	push   0x51
    354b:	jmp    3020 <.plt>

0000000000003550 <lockf64@plt>:
    3550:	jmp    QWORD PTR [rip+0x2399a]        # 26ef0 <lockf64@GLIBC_2.2.5>
    3556:	push   0x52
    355b:	jmp    3020 <.plt>

0000000000003560 <fsync@plt>:
    3560:	jmp    QWORD PTR [rip+0x23992]        # 26ef8 <fsync@GLIBC_2.2.5>
    3566:	push   0x53
    356b:	jmp    3020 <.plt>

0000000000003570 <pthread_cond_timedwait@plt>:
    3570:	jmp    QWORD PTR [rip+0x2398a]        # 26f00 <pthread_cond_timedwait@GLIBC_2.3.2>
    3576:	push   0x54
    357b:	jmp    3020 <.plt>

0000000000003580 <inflateInit2_@plt>:
    3580:	jmp    QWORD PTR [rip+0x23982]        # 26f08 <inflateInit2_>
    3586:	push   0x55
    358b:	jmp    3020 <.plt>

0000000000003590 <perror@plt>:
    3590:	jmp    QWORD PTR [rip+0x2397a]        # 26f10 <perror@GLIBC_2.2.5>
    3596:	push   0x56
    359b:	jmp    3020 <.plt>

00000000000035a0 <rename@plt>:
    35a0:	jmp    QWORD PTR [rip+0x23972]        # 26f18 <rename@GLIBC_2.2.5>
    35a6:	push   0x57
    35ab:	jmp    3020 <.plt>

00000000000035b0 <accept@plt>:
    35b0:	jmp    QWORD PTR [rip+0x2396a]        # 26f20 <accept@GLIBC_2.2.5>
    35b6:	push   0x58
    35bb:	jmp    3020 <.plt>

00000000000035c0 <strtoul@plt>:
    35c0:	jmp    QWORD PTR [rip+0x23962]        # 26f28 <strtoul@GLIBC_2.2.5>
    35c6:	push   0x59
    35cb:	jmp    3020 <.plt>

00000000000035d0 <inflateReset@plt>:
    35d0:	jmp    QWORD PTR [rip+0x2395a]        # 26f30 <inflateReset>
    35d6:	push   0x5a
    35db:	jmp    3020 <.plt>

00000000000035e0 <getpagesize@plt>:
    35e0:	jmp    QWORD PTR [rip+0x23952]        # 26f38 <getpagesize@GLIBC_2.2.5>
    35e6:	push   0x5b
    35eb:	jmp    3020 <.plt>

00000000000035f0 <exit@plt>:
    35f0:	jmp    QWORD PTR [rip+0x2394a]        # 26f40 <exit@GLIBC_2.2.5>
    35f6:	push   0x5c
    35fb:	jmp    3020 <.plt>

0000000000003600 <connect@plt>:
    3600:	jmp    QWORD PTR [rip+0x23942]        # 26f48 <connect@GLIBC_2.2.5>
    3606:	push   0x5d
    360b:	jmp    3020 <.plt>

0000000000003610 <fwrite@plt>:
    3610:	jmp    QWORD PTR [rip+0x2393a]        # 26f50 <fwrite@GLIBC_2.2.5>
    3616:	push   0x5e
    361b:	jmp    3020 <.plt>

0000000000003620 <lseek64@plt>:
    3620:	jmp    QWORD PTR [rip+0x23932]        # 26f58 <lseek64@GLIBC_2.2.5>
    3626:	push   0x5f
    362b:	jmp    3020 <.plt>

0000000000003630 <__fprintf_chk@plt>:
    3630:	jmp    QWORD PTR [rip+0x2392a]        # 26f60 <__fprintf_chk@GLIBC_2.3.4>
    3636:	push   0x60
    363b:	jmp    3020 <.plt>

0000000000003640 <posix_memalign@plt>:
    3640:	jmp    QWORD PTR [rip+0x23922]        # 26f68 <posix_memalign@GLIBC_2.2.5>
    3646:	push   0x61
    364b:	jmp    3020 <.plt>

0000000000003650 <strdup@plt>:
    3650:	jmp    QWORD PTR [rip+0x2391a]        # 26f70 <strdup@GLIBC_2.2.5>
    3656:	push   0x62
    365b:	jmp    3020 <.plt>

0000000000003660 <strerror@plt>:
    3660:	jmp    QWORD PTR [rip+0x23912]        # 26f78 <strerror@GLIBC_2.2.5>
    3666:	push   0x63
    366b:	jmp    3020 <.plt>

0000000000003670 <sleep@plt>:
    3670:	jmp    QWORD PTR [rip+0x2390a]        # 26f80 <sleep@GLIBC_2.2.5>
    3676:	push   0x64
    367b:	jmp    3020 <.plt>

0000000000003680 <sigaddset@plt>:
    3680:	jmp    QWORD PTR [rip+0x23902]        # 26f88 <sigaddset@GLIBC_2.2.5>
    3686:	push   0x65
    368b:	jmp    3020 <.plt>

0000000000003690 <fork@plt>:
    3690:	jmp    QWORD PTR [rip+0x238fa]        # 26f90 <fork@GLIBC_2.2.5>
    3696:	push   0x66
    369b:	jmp    3020 <.plt>

00000000000036a0 <strstr@plt>:
    36a0:	jmp    QWORD PTR [rip+0x238f2]        # 26f98 <strstr@GLIBC_2.2.5>
    36a6:	push   0x67
    36ab:	jmp    3020 <.plt>

00000000000036b0 <pthread_mutex_lock@plt>:
    36b0:	jmp    QWORD PTR [rip+0x238ea]        # 26fa0 <pthread_mutex_lock@GLIBC_2.2.5>
    36b6:	push   0x68
    36bb:	jmp    3020 <.plt>

00000000000036c0 <__ctype_tolower_loc@plt>:
    36c0:	jmp    QWORD PTR [rip+0x238e2]        # 26fa8 <__ctype_tolower_loc@GLIBC_2.3>
    36c6:	push   0x69
    36cb:	jmp    3020 <.plt>

00000000000036d0 <__ctype_b_loc@plt>:
    36d0:	jmp    QWORD PTR [rip+0x238da]        # 26fb0 <__ctype_b_loc@GLIBC_2.3>
    36d6:	push   0x6a
    36db:	jmp    3020 <.plt>

00000000000036e0 <__sprintf_chk@plt>:
    36e0:	jmp    QWORD PTR [rip+0x238d2]        # 26fb8 <__sprintf_chk@GLIBC_2.3.4>
    36e6:	push   0x6b
    36eb:	jmp    3020 <.plt>

00000000000036f0 <socket@plt>:
    36f0:	jmp    QWORD PTR [rip+0x238ca]        # 26fc0 <socket@GLIBC_2.2.5>
    36f6:	push   0x6c
    36fb:	jmp    3020 <.plt>

Disassembly of section .plt.got:

0000000000003700 <__cxa_finalize@plt>:
    3700:	jmp    QWORD PTR [rip+0x238f2]        # 26ff8 <__cxa_finalize@GLIBC_2.2.5>
    3706:	xchg   ax,ax

Disassembly of section .text:

0000000000003710 <qemu_malloc.cold.0>:
    3710:	call   30a0 <abort@plt>

0000000000003715 <qemu_realloc.cold.1>:
    3715:	call   30a0 <abort@plt>

000000000000371a <qemu_mallocz.cold.2>:
    371a:	call   30a0 <abort@plt>

000000000000371f <qemu_strdup.cold.3>:
    371f:	call   30a0 <abort@plt>

0000000000003724 <qemu_strndup.cold.4>:
    3724:	call   30a0 <abort@plt>

0000000000003729 <insert_mapping.cold.9>:
    3729:	mov    QWORD PTR ds:0x18,0x0
    3735:	ud2    

0000000000003737 <schedule_rename.cold.10>:
    3737:	mov    QWORD PTR ds:0x0,r15
    373f:	ud2    

0000000000003741 <commit_direntries.cold.11>:
    3741:	mov    eax,DWORD PTR ds:0x14
    3748:	ud2    
    374a:	mov    eax,DWORD PTR ds:0x20
    3751:	ud2    

0000000000003753 <check_directory_consistency.cold.12>:
    3753:	mov    QWORD PTR ds:0x0,0x0
    375f:	ud2    
    3761:	mov    QWORD PTR ds:0x0,r8
    3769:	ud2    
    376b:	mov    QWORD PTR ds:0x0,r12
    3773:	ud2    

0000000000003775 <try_commit.cold.13>:
    3775:	mov    rax,QWORD PTR ds:0x18
    377d:	ud2    

000000000000377f <read_directory.cold.14>:
    377f:	mov    QWORD PTR [r12+0x8080],0x0
    378b:	mov    DWORD PTR ds:0x0,0x0
    3796:	ud2    
    3798:	mov    BYTE PTR ds:0xb,0x0
    37a0:	ud2    

00000000000037a2 <vvfat_open.cold.15>:
    37a2:	mov    BYTE PTR ds:0xb,0x0
    37aa:	ud2    
    37ac:	mov    DWORD PTR ds:0x0,0x0
    37b7:	ud2    
    37b9:	nop    DWORD PTR [rax+0x0]

00000000000037c0 <main>:
    37c0:	push   r15
    37c2:	mov    ecx,0x40
    37c7:	push   r14
    37c9:	lea    r14,[rip+0x188e7]        # 1c0b7 <_IO_stdin_used+0xb7>
    37d0:	push   r13
    37d2:	mov    r13d,edi
    37d5:	push   r12
    37d7:	mov    r12,rsi
    37da:	lea    rsi,[rip+0x2383f]        # 27020 <__dso_handle+0x18>
    37e1:	push   rbp
    37e2:	push   rbx
    37e3:	lea    rbx,[rip+0x18fa2]        # 1c78c <_IO_stdin_used+0x78c>
    37ea:	sub    rsp,0x788
    37f1:	mov    rax,QWORD PTR fs:0x28
    37fa:	mov    QWORD PTR [rsp+0x778],rax
    3802:	xor    eax,eax
    3804:	lea    rbp,[rsp+0x170]
    380c:	mov    BYTE PTR [rsp+0x18],0x0
    3811:	lea    rax,[rip+0x187ec]        # 1c004 <_IO_stdin_used+0x4>
    3818:	mov    rdi,rbp
    381b:	mov    QWORD PTR [rsp+0x48],rax
    3820:	lea    rax,[rsp+0x78]
    3825:	lea    r15,[rsp+0x6c]
    382a:	rep movs QWORD PTR es:[rdi],QWORD PTR ds:[rsi]
    382d:	mov    DWORD PTR [rsp+0x68],0x10
    3835:	mov    QWORD PTR [rsp+0x70],0x0
    383e:	mov    DWORD PTR [rsp+0x6c],0x0
    3846:	mov    QWORD PTR [rsp+0x8],0x0
    384f:	mov    DWORD PTR [rsp+0x58],0x0
    3857:	mov    DWORD PTR [rsp+0x28],0x1
    385f:	mov    DWORD PTR [rsp+0x2c],0xffffffff
    3867:	mov    DWORD PTR [rsp+0x10],0x0
    386f:	mov    QWORD PTR [rsp+0x20],0x0
    3878:	mov    QWORD PTR [rsp+0x30],0x0
    3881:	mov    DWORD PTR [rsp+0x40],0x400
    3889:	mov    BYTE PTR [rsp+0x38],0x0
    388e:	mov    QWORD PTR [rsp],rax
    3892:	nop    WORD PTR [rax+rax*1+0x0]
    3898:	mov    r8,r15
    389b:	mov    rcx,rbp
    389e:	mov    rdx,r14
    38a1:	mov    rsi,r12
    38a4:	mov    edi,r13d
    38a7:	call   31a0 <getopt_long@plt>
    38ac:	cmp    eax,0xffffffff
    38af:	je     3a98 <main+0x2d8>
    38b5:	sub    eax,0x3f
    38b8:	cmp    eax,0x37
    38bb:	ja     3898 <main+0xd8>
    38bd:	movsxd rax,DWORD PTR [rbx+rax*4]
    38c1:	add    rax,rbx
    38c4:	jmp    rax
    38c6:	mov    BYTE PTR [rsp+0x18],0x1
    38cb:	jmp    3898 <main+0xd8>
    38cd:	mov    rax,QWORD PTR [rip+0x24c14]        # 284e8 <optarg@@GLIBC_2.2.5>
    38d4:	mov    QWORD PTR [rsp+0x30],rax
    38d9:	jmp    3898 <main+0xd8>
    38db:	mov    rax,QWORD PTR [rip+0x24c06]        # 284e8 <optarg@@GLIBC_2.2.5>
    38e2:	mov    QWORD PTR [rsp+0x48],rax
    38e7:	jmp    3898 <main+0xd8>
    38e9:	mov    rdx,QWORD PTR [r12]
    38ed:	mov    edi,0x1
    38f2:	lea    rsi,[rip+0x18927]        # 1c220 <_IO_stdin_used+0x220>
    38f9:	xor    eax,eax
    38fb:	call   34d0 <__printf_chk@plt>
    3900:	xor    edi,edi
    3902:	call   35f0 <exit@plt>
    3907:	mov    rsi,QWORD PTR [rsp]
    390b:	mov    rdi,QWORD PTR [rip+0x24bd6]        # 284e8 <optarg@@GLIBC_2.2.5>
    3912:	xor    edx,edx
    3914:	call   3390 <strtol@plt>
    3919:	mov    rdx,QWORD PTR [rsp+0x78]
    391e:	mov    DWORD PTR [rsp+0x2c],eax
    3922:	cmp    BYTE PTR [rdx],0x0
    3925:	jne    42c6 <main+0xb06>
    392b:	lea    edx,[rax-0x1]
    392e:	cmp    edx,0x7
    3931:	jbe    3898 <main+0xd8>
    3937:	mov    edx,eax
    3939:	lea    rsi,[rip+0x1873d]        # 1c07d <_IO_stdin_used+0x7d>
    3940:	mov    edi,0x16
    3945:	xor    eax,eax
    3947:	call   31b0 <errx@plt>
    394c:	mov    DWORD PTR [rip+0x24bb6],0x1        # 2850c <verbose>
    3956:	jmp    3898 <main+0xd8>
    395b:	mov    DWORD PTR [rsp+0x58],0x1
    3963:	jmp    3898 <main+0xd8>
    3968:	or     DWORD PTR [rsp+0x10],0x8
    396d:	jmp    3898 <main+0xd8>
    3972:	mov    rsi,QWORD PTR [rsp]
    3976:	mov    rdi,QWORD PTR [rip+0x24b6b]        # 284e8 <optarg@@GLIBC_2.2.5>
    397d:	xor    edx,edx
    397f:	call   3390 <strtol@plt>
    3984:	mov    rdx,QWORD PTR [rsp+0x78]
    3989:	cmp    BYTE PTR [rdx],0x0
    398c:	jne    4292 <main+0xad2>
    3992:	lea    edx,[rax-0x1]
    3995:	cmp    edx,0xfffe
    399b:	ja     41dc <main+0xa1c>
    39a1:	movzx  eax,ax
    39a4:	mov    DWORD PTR [rsp+0x40],eax
    39a8:	jmp    3898 <main+0xd8>
    39ad:	mov    rsi,QWORD PTR [rsp]
    39b1:	mov    rdi,QWORD PTR [rip+0x24b30]        # 284e8 <optarg@@GLIBC_2.2.5>
    39b8:	xor    edx,edx
    39ba:	call   3340 <strtoll@plt>
    39bf:	mov    QWORD PTR [rsp+0x8],rax
    39c4:	mov    rax,QWORD PTR [rsp+0x78]
    39c9:	cmp    BYTE PTR [rax],0x0
    39cc:	jne    4278 <main+0xab8>
    39d2:	cmp    QWORD PTR [rsp+0x8],0x0
    39d8:	jns    3898 <main+0xd8>
    39de:	mov    rdx,QWORD PTR [rip+0x24b03]        # 284e8 <optarg@@GLIBC_2.2.5>
    39e5:	lea    rsi,[rip+0x1865d]        # 1c049 <_IO_stdin_used+0x49>
    39ec:	mov    edi,0x16
    39f1:	xor    eax,eax
    39f3:	call   31b0 <errx@plt>
    39f8:	or     DWORD PTR [rsp+0x10],0x20
    39fd:	jmp    3898 <main+0xd8>
    3a02:	mov    rax,QWORD PTR [rip+0x24adf]        # 284e8 <optarg@@GLIBC_2.2.5>
    3a09:	cmp    BYTE PTR [rax],0x2f
    3a0c:	mov    QWORD PTR [rsp+0x20],rax
    3a11:	je     3898 <main+0xd8>
    3a17:	lea    rsi,[rip+0x18674]        # 1c092 <_IO_stdin_used+0x92>
    3a1e:	mov    edi,0x16
    3a23:	xor    eax,eax
    3a25:	call   31b0 <errx@plt>
    3a2a:	mov    rdx,QWORD PTR [r12]
    3a2e:	mov    edi,0x1
    3a33:	lea    rcx,[rip+0x18676]        # 1c0b0 <_IO_stdin_used+0xb0>
    3a3a:	xor    eax,eax
    3a3c:	lea    rsi,[rip+0x188e5]        # 1c328 <_IO_stdin_used+0x328>
    3a43:	call   34d0 <__printf_chk@plt>
    3a48:	xor    edi,edi
    3a4a:	call   35f0 <exit@plt>
    3a4f:	mov    rsi,QWORD PTR [rsp]
    3a53:	mov    rdi,QWORD PTR [rip+0x24a8e]        # 284e8 <optarg@@GLIBC_2.2.5>
    3a5a:	xor    edx,edx
    3a5c:	call   3390 <strtol@plt>
    3a61:	mov    rdx,QWORD PTR [rsp+0x78]
    3a66:	mov    DWORD PTR [rsp+0x28],eax
    3a6a:	cmp    BYTE PTR [rdx],0x0
    3a6d:	jne    42ac <main+0xaec>
    3a73:	test   eax,eax
    3a75:	jg     3898 <main+0xd8>
    3a7b:	lea    rsi,[rip+0x1876e]        # 1c1f0 <_IO_stdin_used+0x1f0>
    3a82:	mov    edi,0x16
    3a87:	xor    eax,eax
    3a89:	call   31b0 <errx@plt>
    3a8e:	mov    BYTE PTR [rsp+0x38],0x1
    3a93:	jmp    3898 <main+0xd8>
    3a98:	movsxd rax,DWORD PTR [rip+0x24a41]        # 284e0 <optind@@GLIBC_2.2.5>
    3a9f:	sub    r13d,eax
    3aa2:	cmp    r13d,0x1
    3aa6:	jne    4216 <main+0xa56>
    3aac:	cmp    BYTE PTR [rsp+0x18],0x0
    3ab1:	je     3b29 <main+0x369>
    3ab3:	mov    rdi,QWORD PTR [r12+rax*8]
    3ab7:	mov    esi,0x2
    3abc:	xor    eax,eax
    3abe:	call   3500 <open64@plt>
    3ac3:	mov    ebx,eax
    3ac5:	cmp    eax,0xffffffff
    3ac8:	je     41f6 <main+0xa36>
    3ace:	mov    edi,eax
    3ad0:	xor    r13d,r13d
    3ad3:	call   16810 <nbd_disconnect>
    3ad8:	mov    edi,ebx
    3ada:	call   3260 <close@plt>
    3adf:	movsxd rax,DWORD PTR [rip+0x249fa]        # 284e0 <optind@@GLIBC_2.2.5>
    3ae6:	mov    edi,0x1
    3aeb:	lea    rsi,[rip+0x185eb]        # 1c0dd <_IO_stdin_used+0xdd>
    3af2:	mov    rdx,QWORD PTR [r12+rax*8]
    3af6:	xor    eax,eax
    3af8:	call   34d0 <__printf_chk@plt>
    3afd:	mov    rbx,QWORD PTR [rsp+0x778]
    3b05:	xor    rbx,QWORD PTR fs:0x28
    3b0e:	mov    eax,r13d
    3b11:	jne    4273 <main+0xab3>
    3b17:	add    rsp,0x788
    3b1e:	pop    rbx
    3b1f:	pop    rbp
    3b20:	pop    r12
    3b22:	pop    r13
    3b24:	pop    r14
    3b26:	pop    r15
    3b28:	ret    
    3b29:	call   19890 <bdrv_init>
    3b2e:	lea    rdi,[rip+0x185b9]        # 1c0ee <_IO_stdin_used+0xee>
    3b35:	call   17330 <bdrv_new>
    3b3a:	mov    r15,rax
    3b3d:	mov    QWORD PTR [rsp],rax
    3b41:	test   rax,rax
    3b44:	je     3afd <main+0x33d>
    3b46:	movsxd rax,DWORD PTR [rip+0x24993]        # 284e0 <optind@@GLIBC_2.2.5>
    3b4d:	mov    edx,DWORD PTR [rsp+0x10]
    3b51:	mov    rdi,r15
    3b54:	mov    rsi,QWORD PTR [r12+rax*8]
    3b58:	call   18440 <bdrv_open>
    3b5d:	add    eax,0x1
    3b60:	je     3afd <main+0x33d>
    3b62:	cmp    DWORD PTR [rsp+0x2c],0xffffffff
    3b67:	je     3cd1 <main+0x511>
    3b6d:	lea    rbx,[rsp+0x370]
    3b75:	mov    rdi,r15
    3b78:	mov    ecx,0x1
    3b7d:	xor    esi,esi
    3b7f:	mov    rdx,rbx
    3b82:	call   17550 <bdrv_read>
    3b87:	mov    r15d,eax
    3b8a:	test   eax,eax
    3b8c:	jne    424f <main+0xa8f>
    3b92:	cmp    BYTE PTR [rsp+0x56e],0x55
    3b9a:	jne    419e <main+0x9de>
    3ba0:	cmp    BYTE PTR [rsp+0x56f],0xaa
    3ba8:	jne    419e <main+0x9de>
    3bae:	lea    rax,[rsp+0xf0]
    3bb6:	mov    DWORD PTR [rsp+0x8],0x4
    3bbe:	add    rbx,0x1be
    3bc5:	lea    rbp,[rsp+0x90]
    3bcd:	mov    QWORD PTR [rsp+0x10],rax
    3bd2:	mov    rax,r12
    3bd5:	lea    r14,[rsp+0x570]
    3bdd:	mov    r12d,r15d
    3be0:	mov    r15,rax
    3be3:	mov    rsi,rbp
    3be6:	mov    rdi,rbx
    3be9:	call   43d0 <read_partition>
    3bee:	mov    edx,DWORD PTR [rbp+0x14]
    3bf1:	test   edx,edx
    3bf3:	je     3cc7 <main+0x507>
    3bf9:	movzx  eax,BYTE PTR [rbp+0x9]
    3bfd:	cmp    al,0xf
    3bff:	je     3c5f <main+0x49f>
    3c01:	cmp    al,0x5
    3c03:	je     3c5f <main+0x49f>
    3c05:	lea    eax,[r12+0x1]
    3c0a:	cmp    DWORD PTR [rsp+0x2c],eax
    3c0e:	je     41ae <main+0x9ee>
    3c14:	mov    r12d,eax
    3c17:	add    rbx,0x10
    3c1b:	add    rbp,0x18
    3c1f:	cmp    eax,0x4
    3c22:	jne    3be3 <main+0x423>
    3c24:	call   30b0 <__errno_location@plt>
    3c29:	mov    DWORD PTR [rax],0xfffffffe
    3c2f:	call   30b0 <__errno_location@plt>
    3c34:	mov    edx,DWORD PTR [rsp+0x2c]
    3c38:	lea    rsi,[rip+0x184f9]        # 1c138 <_IO_stdin_used+0x138>
    3c3f:	mov    edi,DWORD PTR [rax]
    3c41:	xor    eax,eax
    3c43:	call   31b0 <errx@plt>
    3c48:	mov    rdx,QWORD PTR [r12]
    3c4c:	lea    rsi,[rip+0x18a9d]        # 1c6f0 <_IO_stdin_used+0x6f0>
    3c53:	mov    edi,0x16
    3c58:	xor    eax,eax
    3c5a:	call   31b0 <errx@plt>
    3c5f:	mov    esi,DWORD PTR [rbp+0x10]
    3c62:	mov    rdi,QWORD PTR [rsp]
    3c66:	mov    ecx,0x1
    3c6b:	mov    rdx,r14
    3c6e:	call   17550 <bdrv_read>
    3c73:	mov    ecx,eax
    3c75:	test   eax,eax
    3c77:	jne    424f <main+0xa8f>
    3c7d:	mov    eax,DWORD PTR [rsp+0x8]
    3c81:	mov    r9,QWORD PTR [rsp+0x10]
    3c86:	lea    r10,[r14+0x1be]
    3c8d:	lea    r11d,[rax+0x1]
    3c91:	mov    rsi,r9
    3c94:	mov    rdi,r10
    3c97:	call   43d0 <read_partition>
    3c9c:	mov    edx,DWORD PTR [r9+0x14]
    3ca0:	test   edx,edx
    3ca2:	je     3cb2 <main+0x4f2>
    3ca4:	lea    eax,[r11+rcx*1]
    3ca8:	cmp    DWORD PTR [rsp+0x2c],eax
    3cac:	je     4176 <main+0x9b6>
    3cb2:	add    ecx,0x1
    3cb5:	add    r10,0x10
    3cb9:	add    r9,0x18
    3cbd:	cmp    ecx,0x4
    3cc0:	jne    3c91 <main+0x4d1>
    3cc2:	add    DWORD PTR [rsp+0x8],0x4
    3cc7:	lea    eax,[r12+0x1]
    3ccc:	jmp    3c14 <main+0x454>
    3cd1:	mov    rax,QWORD PTR [rsp]
    3cd5:	mov    rax,QWORD PTR [rax]
    3cd8:	shl    rax,0x9
    3cdc:	mov    QWORD PTR [rsp+0x10],rax
    3ce1:	cmp    QWORD PTR [rsp+0x30],0x0
    3ce7:	je     3ffb <main+0x83b>
    3ced:	cmp    DWORD PTR [rip+0x24818],0x0        # 2850c <verbose>
    3cf4:	je     3fed <main+0x82d>
    3cfa:	cmp    QWORD PTR [rsp+0x20],0x0
    3d00:	je     4032 <main+0x872>
    3d06:	call   3690 <fork@plt>
    3d0b:	mov    ebx,eax
    3d0d:	test   eax,eax
    3d0f:	js     3afd <main+0x33d>
    3d15:	jne    406c <main+0x8ac>
    3d1b:	mov    eax,DWORD PTR [rsp+0x28]
    3d1f:	lea    edi,[rax+0x1]
    3d22:	movsxd rdi,edi
    3d25:	shl    rdi,0x2
    3d29:	call   4cb0 <qemu_malloc>
    3d2e:	mov    rbx,rax
    3d31:	mov    rdi,QWORD PTR [rsp+0x20]
    3d36:	call   16330 <unix_socket_incoming>
    3d3b:	mov    DWORD PTR [rbx],eax
    3d3d:	mov    eax,DWORD PTR [rbx]
    3d3f:	mov    DWORD PTR [rsp+0x5c],eax
    3d43:	add    eax,0x1
    3d46:	je     3afd <main+0x33d>
    3d4c:	mov    esi,0x100000
    3d51:	mov    edi,0x200
    3d56:	call   46f0 <qemu_memalign>
    3d5b:	mov    QWORD PTR [rsp+0x18],rax
    3d60:	test   rax,rax
    3d63:	je     4262 <main+0xaa2>
    3d69:	lea    rax,[rsp+0xf0]
    3d71:	mov    r12d,0x1
    3d77:	mov    QWORD PTR [rsp+0x40],rax
    3d7c:	lea    rax,[rbx+0x4]
    3d80:	mov    QWORD PTR [rsp+0x50],rax
    3d85:	mov    eax,DWORD PTR [rsp+0x5c]
    3d89:	add    eax,0x1
    3d8c:	mov    DWORD PTR [rsp+0x48],eax
    3d90:	movzx  eax,BYTE PTR [rsp+0x38]
    3d95:	mov    DWORD PTR [rsp+0x2c],eax
    3d99:	lea    rax,[rsp+0x70]
    3d9e:	mov    QWORD PTR [rsp+0x30],rax
    3da3:	lea    rax,[rsp+0x90]
    3dab:	mov    QWORD PTR [rsp+0x38],rax
    3db0:	xor    eax,eax
    3db2:	mov    ecx,0x10
    3db7:	mov    rdi,QWORD PTR [rsp+0x40]
    3dbc:	cld    
    3dbd:	rep stos QWORD PTR es:[rdi],rax
    3dc0:	mov    rdi,QWORD PTR [rsp+0x50]
    3dc5:	lea    eax,[r12-0x1]
    3dca:	mov    r14,rbx
    3dcd:	mov    r13d,0x1
    3dd3:	lea    rbp,[rdi+rax*4]
    3dd7:	nop    WORD PTR [rax+rax*1+0x0]
    3de0:	movsxd rdi,DWORD PTR [r14]
    3de3:	add    r14,0x4
    3de7:	call   31e0 <__fdelt_chk@plt>
    3dec:	mov    edx,DWORD PTR [r14-0x4]
    3df0:	mov    esi,edx
    3df2:	sar    esi,0x1f
    3df5:	shr    esi,0x1a
    3df8:	lea    ecx,[rdx+rsi*1]
    3dfb:	mov    rdx,r13
    3dfe:	and    ecx,0x3f
    3e01:	sub    ecx,esi
    3e03:	shl    rdx,cl
    3e06:	or     QWORD PTR [rsp+rax*8+0xf0],rdx
    3e0e:	cmp    rbp,r14
    3e11:	jne    3de0 <main+0x620>
    3e13:	mov    rsi,QWORD PTR [rsp+0x40]
    3e18:	mov    edi,DWORD PTR [rsp+0x48]
    3e1c:	xor    r8d,r8d
    3e1f:	xor    ecx,ecx
    3e21:	xor    edx,edx
    3e23:	call   33f0 <select@plt>
    3e28:	mov    ebp,eax
    3e2a:	cmp    eax,0xffffffff
    3e2d:	je     3f3c <main+0x77c>
    3e33:	movsxd rdi,DWORD PTR [rbx]
    3e36:	call   31e0 <__fdelt_chk@plt>
    3e3b:	movsxd rdi,DWORD PTR [rbx]
    3e3e:	mov    esi,0x40
    3e43:	mov    r8,rax
    3e46:	mov    eax,edi
    3e48:	cdq    
    3e49:	idiv   esi
    3e4b:	mov    ecx,edx
    3e4d:	shl    r13,cl
    3e50:	and    r13,QWORD PTR [rsp+r8*8+0xf0]
    3e58:	cmp    r13,0x1
    3e5c:	adc    ebp,0xffffffff
    3e5f:	cmp    r12d,0x1
    3e63:	jle    3ef8 <main+0x738>
    3e69:	mov    r14d,0x1
    3e6f:	mov    r13d,0x1
    3e75:	test   ebp,ebp
    3e77:	jne    3e8d <main+0x6cd>
    3e79:	jmp    3ef8 <main+0x738>
    3e7b:	nop    DWORD PTR [rax+rax*1+0x0]
    3e80:	add    r14d,0x1
    3e84:	cmp    r12d,r14d
    3e87:	jle    3ef5 <main+0x735>
    3e89:	test   ebp,ebp
    3e8b:	je     3ef5 <main+0x735>
    3e8d:	movsxd rax,r14d
    3e90:	lea    r15,[rbx+rax*4]
    3e94:	movsxd rdi,DWORD PTR [r15]
    3e97:	call   31e0 <__fdelt_chk@plt>
    3e9c:	mov    esi,DWORD PTR [r15]
    3e9f:	mov    edx,esi
    3ea1:	sar    edx,0x1f
    3ea4:	shr    edx,0x1a
    3ea7:	lea    ecx,[rsi+rdx*1]
    3eaa:	and    ecx,0x3f
    3ead:	sub    ecx,edx
    3eaf:	mov    rdx,r13
    3eb2:	shl    rdx,cl
    3eb5:	test   QWORD PTR [rsp+rax*8+0xf0],rdx
    3ebd:	je     3e80 <main+0x6c0>
    3ebf:	push   0x100000
    3ec4:	push   QWORD PTR [rsp+0x20]
    3ec8:	mov    r9d,DWORD PTR [rsp+0x3c]
    3ecd:	mov    r8,QWORD PTR [rsp+0x40]
    3ed2:	mov    rcx,QWORD PTR [rsp+0x18]
    3ed7:	mov    rdx,QWORD PTR [rsp+0x20]
    3edc:	mov    rdi,QWORD PTR [rsp+0x10]
    3ee1:	call   16a70 <nbd_trip>
    3ee6:	pop    rdx
    3ee7:	pop    rcx
    3ee8:	test   eax,eax
    3eea:	jne    3f78 <main+0x7b8>
    3ef0:	sub    ebp,0x1
    3ef3:	jmp    3e80 <main+0x6c0>
    3ef5:	movsxd rdi,DWORD PTR [rbx]
    3ef8:	call   31e0 <__fdelt_chk@plt>
    3efd:	mov    edi,DWORD PTR [rbx]
    3eff:	mov    esi,0x40
    3f04:	mov    r8,rax
    3f07:	mov    eax,edi
    3f09:	cdq    
    3f0a:	idiv   esi
    3f0c:	mov    eax,0x1
    3f11:	mov    ecx,edx
    3f13:	shl    rax,cl
    3f16:	test   QWORD PTR [rsp+r8*8+0xf0],rax
    3f1e:	je     3f27 <main+0x767>
    3f20:	cmp    r12d,DWORD PTR [rsp+0x28]
    3f25:	jle    3f96 <main+0x7d6>
    3f27:	cmp    r12d,0x1
    3f2b:	jg     3db0 <main+0x5f0>
    3f31:	cmp    DWORD PTR [rsp+0x58],0x0
    3f36:	jne    3db0 <main+0x5f0>
    3f3c:	mov    rdi,QWORD PTR [rsp+0x18]
    3f41:	call   4ca0 <qemu_free>
    3f46:	mov    edi,DWORD PTR [rbx]
    3f48:	call   3260 <close@plt>
    3f4d:	mov    rdi,QWORD PTR [rsp]
    3f51:	call   174e0 <bdrv_close>
    3f56:	mov    rdi,rbx
    3f59:	call   4ca0 <qemu_free>
    3f5e:	cmp    QWORD PTR [rsp+0x20],0x0
    3f64:	je     3f70 <main+0x7b0>
    3f66:	mov    rdi,QWORD PTR [rsp+0x20]
    3f6b:	call   30c0 <unlink@plt>
    3f70:	xor    r13d,r13d
    3f73:	jmp    3afd <main+0x33d>
    3f78:	mov    edi,DWORD PTR [r15]
    3f7b:	sub    r12d,0x1
    3f7f:	sub    r14d,0x1
    3f83:	call   3260 <close@plt>
    3f88:	movsxd rax,r12d
    3f8b:	mov    eax,DWORD PTR [rbx+rax*4]
    3f8e:	mov    DWORD PTR [r15],eax
    3f91:	jmp    3ef0 <main+0x730>
    3f96:	mov    rsi,QWORD PTR [rsp+0x38]
    3f9b:	movsxd rax,r12d
    3f9e:	lea    rdx,[rsp+0x68]
    3fa3:	lea    rbp,[rbx+rax*4]
    3fa7:	call   35b0 <accept@plt>
    3fac:	mov    DWORD PTR [rbp+0x0],eax
    3faf:	cmp    eax,0xffffffff
    3fb2:	je     3f27 <main+0x767>
    3fb8:	mov    rsi,QWORD PTR [rsp+0x10]
    3fbd:	mov    edi,eax
    3fbf:	call   164d0 <nbd_negotiate>
    3fc4:	add    eax,0x1
    3fc7:	je     3f27 <main+0x767>
    3fcd:	mov    edi,DWORD PTR [rsp+0x5c]
    3fd1:	mov    eax,DWORD PTR [rbp+0x0]
    3fd4:	cmp    edi,eax
    3fd6:	cmovge eax,edi
    3fd9:	add    r12d,0x1
    3fdd:	mov    DWORD PTR [rsp+0x5c],eax
    3fe1:	add    eax,0x1
    3fe4:	mov    DWORD PTR [rsp+0x48],eax
    3fe8:	jmp    3db0 <main+0x5f0>
    3fed:	xor    esi,esi
    3fef:	xor    edi,edi
    3ff1:	call   3480 <daemon@plt>
    3ff6:	jmp    3cfa <main+0x53a>
    3ffb:	mov    eax,DWORD PTR [rsp+0x28]
    3fff:	lea    edi,[rax+0x1]
    4002:	movsxd rdi,edi
    4005:	shl    rdi,0x2
    4009:	call   4cb0 <qemu_malloc>
    400e:	cmp    QWORD PTR [rsp+0x20],0x0
    4014:	mov    rbx,rax
    4017:	jne    3d31 <main+0x571>
    401d:	mov    esi,DWORD PTR [rsp+0x40]
    4021:	mov    rdi,QWORD PTR [rsp+0x48]
    4026:	call   16210 <tcp_socket_incoming>
    402b:	mov    DWORD PTR [rbx],eax
    402d:	jmp    3d3d <main+0x57d>
    4032:	mov    rdi,QWORD PTR [rsp+0x30]
    4037:	lea    rbx,[rsp+0x570]
    403f:	call   3380 <basename@plt>
    4044:	lea    rcx,[rip+0x180bb]        # 1c106 <_IO_stdin_used+0x106>
    404b:	mov    edx,0x80
    4050:	mov    rdi,rbx
    4053:	mov    r8,rax
    4056:	mov    esi,0x1
    405b:	xor    eax,eax
    405d:	call   36e0 <__sprintf_chk@plt>
    4062:	mov    QWORD PTR [rsp+0x20],rbx
    4067:	jmp    3d06 <main+0x546>
    406c:	mov    rdi,QWORD PTR [rsp]
    4070:	call   174e0 <bdrv_close>
    4075:	mov    rbp,QWORD PTR [rsp+0x20]
    407a:	mov    rdi,rbp
    407d:	call   16410 <unix_socket_outgoing>
    4082:	cmp    eax,0xffffffff
    4085:	je     4149 <main+0x989>
    408b:	mov    rdi,QWORD PTR [rsp+0x30]
    4090:	mov    r14d,eax
    4093:	mov    esi,0x2
    4098:	xor    eax,eax
    409a:	call   3500 <open64@plt>
    409f:	mov    ebp,eax
    40a1:	cmp    eax,0xffffffff
    40a4:	je     4169 <main+0x9a9>
    40aa:	lea    rdx,[rsp+0x88]
    40b2:	lea    rsi,[rsp+0x80]
    40ba:	mov    edi,r14d
    40bd:	call   165a0 <nbd_receive_negotiate>
    40c2:	add    eax,0x1
    40c5:	je     4169 <main+0x9a9>
    40cb:	mov    rcx,QWORD PTR [rsp+0x88]
    40d3:	mov    rdx,QWORD PTR [rsp+0x80]
    40db:	mov    esi,r14d
    40de:	mov    edi,ebp
    40e0:	call   166c0 <nbd_init>
    40e5:	mov    r13d,eax
    40e8:	cmp    eax,0xffffffff
    40eb:	je     4169 <main+0x9a9>
    40ed:	movsxd rax,DWORD PTR [rip+0x243ec]        # 284e0 <optind@@GLIBC_2.2.5>
    40f4:	mov    rdx,QWORD PTR [rsp+0x30]
    40f9:	mov    edi,0x1
    40fe:	lea    rsi,[rip+0x1865b]        # 1c760 <_IO_stdin_used+0x760>
    4105:	mov    rcx,QWORD PTR [r12+rax*8]
    4109:	xor    eax,eax
    410b:	call   34d0 <__printf_chk@plt>
    4110:	call   3690 <fork@plt>
    4115:	test   eax,eax
    4117:	je     422d <main+0xa6d>
    411d:	mov    edi,ebp
    411f:	mov    esi,r14d
    4122:	call   16840 <nbd_client>
    4127:	mov    edi,ebp
    4129:	call   3260 <close@plt>
    412e:	mov    edi,ebx
    4130:	mov    esi,0xf
    4135:	call   33d0 <kill@plt>
    413a:	mov    rdi,QWORD PTR [rsp+0x20]
    413f:	call   30c0 <unlink@plt>
    4144:	jmp    3afd <main+0x33d>
    4149:	call   30b0 <__errno_location@plt>
    414e:	mov    eax,DWORD PTR [rax]
    4150:	cmp    eax,0x2
    4153:	je     415a <main+0x99a>
    4155:	cmp    eax,0x6f
    4158:	jne    4171 <main+0x9b1>
    415a:	mov    edi,0x1
    415f:	call   3670 <sleep@plt>
    4164:	jmp    407a <main+0x8ba>
    4169:	mov    r13d,0x1
    416f:	jmp    412e <main+0x96e>
    4171:	xor    r13d,r13d
    4174:	jmp    412e <main+0x96e>
    4176:	movsxd rax,ecx
    4179:	shl    rdx,0x9
    417d:	mov    r12,r15
    4180:	imul   rax,rax,0x18
    4184:	mov    QWORD PTR [rsp+0x10],rdx
    4189:	mov    eax,DWORD PTR [rsp+rax*1+0x100]
    4190:	shl    rax,0x9
    4194:	mov    QWORD PTR [rsp+0x8],rax
    4199:	jmp    3ce1 <main+0x521>
    419e:	call   30b0 <__errno_location@plt>
    41a3:	mov    DWORD PTR [rax],0xffffffea
    41a9:	jmp    3c2f <main+0x46f>
    41ae:	mov    rax,r15
    41b1:	mov    r15d,r12d
    41b4:	shl    rdx,0x9
    41b8:	mov    r12,rax
    41bb:	movsxd rax,r15d
    41be:	mov    QWORD PTR [rsp+0x10],rdx
    41c3:	imul   rax,rax,0x18
    41c7:	mov    eax,DWORD PTR [rsp+rax*1+0xa0]
    41ce:	shl    rax,0x9
    41d2:	mov    QWORD PTR [rsp+0x8],rax
    41d7:	jmp    3ce1 <main+0x521>
    41dc:	mov    rdx,QWORD PTR [rip+0x24305]        # 284e8 <optarg@@GLIBC_2.2.5>
    41e3:	lea    rsi,[rip+0x17e34]        # 1c01e <_IO_stdin_used+0x1e>
    41ea:	mov    edi,0x16
    41ef:	xor    eax,eax
    41f1:	call   31b0 <errx@plt>
    41f6:	call   30b0 <__errno_location@plt>
    41fb:	movsxd rdx,DWORD PTR [rip+0x242de]        # 284e0 <optind@@GLIBC_2.2.5>
    4202:	lea    rsi,[rip+0x17ec5]        # 1c0ce <_IO_stdin_used+0xce>
    4209:	mov    edi,DWORD PTR [rax]
    420b:	xor    eax,eax
    420d:	mov    rdx,QWORD PTR [r12+rdx*8]
    4211:	call   31b0 <errx@plt>
    4216:	mov    rdx,QWORD PTR [r12]
    421a:	lea    rsi,[rip+0x184f7]        # 1c718 <_IO_stdin_used+0x718>
    4221:	mov    edi,0x16
    4226:	xor    eax,eax
    4228:	call   31b0 <errx@plt>
    422d:	mov    rdi,QWORD PTR [rsp+0x30]
    4232:	mov    esi,0x2
    4237:	call   3500 <open64@plt>
    423c:	cmp    eax,0xffffffff
    423f:	je     4248 <main+0xa88>
    4241:	mov    edi,eax
    4243:	call   3260 <close@plt>
    4248:	xor    edi,edi
    424a:	call   35f0 <exit@plt>
    424f:	lea    rsi,[rip+0x17e9c]        # 1c0f2 <_IO_stdin_used+0xf2>
    4256:	mov    edi,0x16
    425b:	xor    eax,eax
    425d:	call   31b0 <errx@plt>
    4262:	lea    rsi,[rip+0x17eb3]        # 1c11c <_IO_stdin_used+0x11c>
    4269:	mov    edi,0xc
    426e:	call   31b0 <errx@plt>
    4273:	call   3190 <__stack_chk_fail@plt>
    4278:	mov    rdx,QWORD PTR [rip+0x24269]        # 284e8 <optarg@@GLIBC_2.2.5>
    427f:	lea    rsi,[rip+0x17daf]        # 1c035 <_IO_stdin_used+0x35>
    4286:	mov    edi,0x16
    428b:	xor    eax,eax
    428d:	call   31b0 <errx@plt>
    4292:	mov    rdx,QWORD PTR [rip+0x2424f]        # 284e8 <optarg@@GLIBC_2.2.5>
    4299:	lea    rsi,[rip+0x17d6c]        # 1c00c <_IO_stdin_used+0xc>
    42a0:	mov    edi,0x16
    42a5:	xor    eax,eax
    42a7:	call   31b0 <errx@plt>
    42ac:	mov    rdx,QWORD PTR [rip+0x24235]        # 284e8 <optarg@@GLIBC_2.2.5>
    42b3:	lea    rsi,[rip+0x17f0e]        # 1c1c8 <_IO_stdin_used+0x1c8>
    42ba:	mov    edi,0x16
    42bf:	xor    eax,eax
    42c1:	call   31b0 <errx@plt>
    42c6:	mov    rdx,QWORD PTR [rip+0x2421b]        # 284e8 <optarg@@GLIBC_2.2.5>
    42cd:	lea    rsi,[rip+0x17d92]        # 1c066 <_IO_stdin_used+0x66>
    42d4:	mov    edi,0x16
    42d9:	xor    eax,eax
    42db:	call   31b0 <errx@plt>

00000000000042e0 <_start>:
    42e0:	xor    ebp,ebp
    42e2:	mov    r9,rdx
    42e5:	pop    rsi
    42e6:	mov    rdx,rsp
    42e9:	and    rsp,0xfffffffffffffff0
    42ed:	push   rax
    42ee:	push   rsp
    42ef:	lea    r8,[rip+0x1785a]        # 1bb50 <__libc_csu_fini>
    42f6:	lea    rcx,[rip+0x177f3]        # 1baf0 <__libc_csu_init>
    42fd:	lea    rdi,[rip+0xfffffffffffff4bc]        # 37c0 <main>
    4304:	call   QWORD PTR [rip+0x22cc6]        # 26fd0 <__libc_start_main@GLIBC_2.2.5>
    430a:	hlt    
    430b:	nop    DWORD PTR [rax+rax*1+0x0]

0000000000004310 <deregister_tm_clones>:
    4310:	lea    rdi,[rip+0x241c9]        # 284e0 <optind@@GLIBC_2.2.5>
    4317:	lea    rax,[rip+0x241c2]        # 284e0 <optind@@GLIBC_2.2.5>
    431e:	cmp    rax,rdi
    4321:	je     4338 <deregister_tm_clones+0x28>
    4323:	mov    rax,QWORD PTR [rip+0x22c9e]        # 26fc8 <_ITM_deregisterTMCloneTable>
    432a:	test   rax,rax
    432d:	je     4338 <deregister_tm_clones+0x28>
    432f:	jmp    rax
    4331:	nop    DWORD PTR [rax+0x0]
    4338:	ret    
    4339:	nop    DWORD PTR [rax+0x0]

0000000000004340 <register_tm_clones>:
    4340:	lea    rdi,[rip+0x24199]        # 284e0 <optind@@GLIBC_2.2.5>
    4347:	lea    rsi,[rip+0x24192]        # 284e0 <optind@@GLIBC_2.2.5>
    434e:	sub    rsi,rdi
    4351:	sar    rsi,0x3
    4355:	mov    rax,rsi
    4358:	shr    rax,0x3f
    435c:	add    rsi,rax
    435f:	sar    rsi,1
    4362:	je     4378 <register_tm_clones+0x38>
    4364:	mov    rax,QWORD PTR [rip+0x22c85]        # 26ff0 <_ITM_registerTMCloneTable>
    436b:	test   rax,rax
    436e:	je     4378 <register_tm_clones+0x38>
    4370:	jmp    rax
    4372:	nop    WORD PTR [rax+rax*1+0x0]
    4378:	ret    
    4379:	nop    DWORD PTR [rax+0x0]

0000000000004380 <__do_global_dtors_aux>:
    4380:	cmp    BYTE PTR [rip+0x24181],0x0        # 28508 <completed.7930>
    4387:	jne    43b8 <__do_global_dtors_aux+0x38>
    4389:	push   rbp
    438a:	cmp    QWORD PTR [rip+0x22c66],0x0        # 26ff8 <__cxa_finalize@GLIBC_2.2.5>
    4392:	mov    rbp,rsp
    4395:	je     43a3 <__do_global_dtors_aux+0x23>
    4397:	mov    rdi,QWORD PTR [rip+0x22c6a]        # 27008 <__dso_handle>
    439e:	call   3700 <__cxa_finalize@plt>
    43a3:	call   4310 <deregister_tm_clones>
    43a8:	mov    BYTE PTR [rip+0x24159],0x1        # 28508 <completed.7930>
    43af:	pop    rbp
    43b0:	ret    
    43b1:	nop    DWORD PTR [rax+0x0]
    43b8:	ret    
    43b9:	nop    DWORD PTR [rax+0x0]

00000000000043c0 <frame_dummy>:
    43c0:	jmp    4340 <register_tm_clones>
    43c5:	nop    WORD PTR cs:[rax+rax*1+0x0]
    43cf:	nop

00000000000043d0 <read_partition>:
    43d0:	movzx  eax,BYTE PTR [rdi]
    43d3:	mov    BYTE PTR [rsi],al
    43d5:	movzx  eax,BYTE PTR [rdi+0x1]
    43d9:	mov    BYTE PTR [rsi+0x1],al
    43dc:	movzx  eax,BYTE PTR [rdi+0x2]
    43e0:	movzx  edx,BYTE PTR [rdi+0x3]
    43e4:	shl    eax,0x2
    43e7:	and    eax,0x300
    43ec:	or     eax,edx
    43ee:	mov    DWORD PTR [rsi+0x4],eax
    43f1:	movzx  eax,BYTE PTR [rdi+0x2]
    43f5:	and    eax,0x3f
    43f8:	mov    BYTE PTR [rsi+0x8],al
    43fb:	movzx  eax,BYTE PTR [rdi+0x4]
    43ff:	mov    BYTE PTR [rsi+0x9],al
    4402:	movzx  eax,BYTE PTR [rdi+0x5]
    4406:	mov    BYTE PTR [rsi+0xa],al
    4409:	movzx  eax,BYTE PTR [rdi+0x7]
    440d:	mov    BYTE PTR [rsi+0xb],al
    4410:	movzx  eax,BYTE PTR [rdi+0x6]
    4414:	and    eax,0x3f
    4417:	mov    BYTE PTR [rsi+0xc],al
    441a:	mov    eax,DWORD PTR [rdi+0x8]
    441d:	mov    DWORD PTR [rsi+0x10],eax
    4420:	mov    eax,DWORD PTR [rdi+0xc]
    4423:	mov    DWORD PTR [rsi+0x14],eax
    4426:	ret    
    4427:	nop    WORD PTR [rax+rax*1+0x0]

0000000000004430 <qemu_service_io>:
    4430:	ret    
    4431:	data16 nop WORD PTR cs:[rax+rax*1+0x0]
    443c:	nop    DWORD PTR [rax+0x0]

0000000000004440 <term_printf>:
    4440:	ret    
    4441:	data16 nop WORD PTR cs:[rax+rax*1+0x0]
    444c:	nop    DWORD PTR [rax+0x0]

0000000000004450 <term_print_filename>:
    4450:	ret    
    4451:	data16 nop WORD PTR cs:[rax+rax*1+0x0]
    445c:	nop    DWORD PTR [rax+0x0]

0000000000004460 <qemu_bh_new>:
    4460:	push   rbp
    4461:	mov    rbp,rdi
    4464:	mov    edi,0x10
    4469:	push   rbx
    446a:	mov    rbx,rsi
    446d:	sub    rsp,0x8
    4471:	call   4cb0 <qemu_malloc>
    4476:	mov    QWORD PTR [rax],rbp
    4479:	mov    QWORD PTR [rax+0x8],rbx
    447d:	add    rsp,0x8
    4481:	pop    rbx
    4482:	pop    rbp
    4483:	ret    
    4484:	data16 nop WORD PTR cs:[rax+rax*1+0x0]
    448f:	nop

0000000000004490 <qemu_bh_poll>:
    4490:	xor    eax,eax
    4492:	ret    
    4493:	data16 nop WORD PTR cs:[rax+rax*1+0x0]
    449e:	xchg   ax,ax

00000000000044a0 <qemu_bh_schedule>:
    44a0:	mov    rax,rdi
    44a3:	mov    rdi,QWORD PTR [rdi+0x8]
    44a7:	jmp    QWORD PTR [rax]
    44a9:	nop    DWORD PTR [rax+0x0]

00000000000044b0 <qemu_bh_cancel>:
    44b0:	ret    
    44b1:	data16 nop WORD PTR cs:[rax+rax*1+0x0]
    44bc:	nop    DWORD PTR [rax+0x0]

00000000000044c0 <qemu_bh_delete>:
    44c0:	jmp    4ca0 <qemu_free>
    44c5:	data16 nop WORD PTR cs:[rax+rax*1+0x0]

00000000000044d0 <qemu_set_fd_handler2>:
    44d0:	xor    eax,eax
    44d2:	ret    
    44d3:	data16 nop WORD PTR cs:[rax+rax*1+0x0]
    44de:	xchg   ax,ax

00000000000044e0 <qemu_get_clock>:
    44e0:	sub    rsp,0x28
    44e4:	xor    esi,esi
    44e6:	mov    rax,QWORD PTR fs:0x28
    44ef:	mov    QWORD PTR [rsp+0x18],rax
    44f4:	xor    eax,eax
    44f6:	mov    rdi,rsp
    44f9:	call   3210 <gettimeofday@plt>
    44fe:	imul   rcx,QWORD PTR [rsp],0x3b9aca00
    4506:	movabs rdx,0x431bde82d7b634db
    4510:	imul   rax,QWORD PTR [rsp+0x8],0x3e8
    4519:	add    rcx,rax
    451c:	mov    rax,rcx
    451f:	sar    rcx,0x3f
    4523:	imul   rdx
    4526:	sar    rdx,0x12
    452a:	mov    rax,rdx
    452d:	sub    rax,rcx
    4530:	mov    rsi,QWORD PTR [rsp+0x18]
    4535:	xor    rsi,QWORD PTR fs:0x28
    453e:	jne    4545 <qemu_get_clock+0x65>
    4540:	add    rsp,0x28
    4544:	ret    
    4545:	call   3190 <__stack_chk_fail@plt>
    454a:	nop    WORD PTR [rax+rax*1+0x0]

0000000000004550 <qemu_read>:
    4550:	push   r13
    4552:	mov    r13d,edi
    4555:	push   r12
    4557:	mov    r12,rsi
    455a:	push   rbp
    455b:	xor    ebp,ebp
    455d:	push   rbx
    455e:	mov    rbx,rdx
    4561:	sub    rsp,0x8
    4565:	test   rdx,rdx
    4568:	je     458f <qemu_read+0x3f>
    456a:	mov    rdx,rbx
    456d:	mov    rsi,r12
    4570:	mov    edi,r13d
    4573:	call   32c0 <read@plt>
    4578:	test   rax,rax
    457b:	je     45d0 <qemu_read+0x80>
    457d:	js     45a0 <qemu_read+0x50>
    457f:	cmp    rax,rbx
    4582:	ja     45dd <qemu_read+0x8d>
    4584:	add    rbp,rax
    4587:	add    r12,rax
    458a:	sub    rbx,rax
    458d:	jne    456a <qemu_read+0x1a>
    458f:	add    rsp,0x8
    4593:	mov    rax,rbp
    4596:	pop    rbx
    4597:	pop    rbp
    4598:	pop    r12
    459a:	pop    r13
    459c:	ret    
    459d:	nop    DWORD PTR [rax]
    45a0:	call   30b0 <__errno_location@plt>
    45a5:	cmp    DWORD PTR [rax],0x4
    45a8:	je     456a <qemu_read+0x1a>
    45aa:	test   rbp,rbp
    45ad:	mov    rax,0xffffffffffffffff
    45b4:	cmove  rbp,rax
    45b8:	add    rsp,0x8
    45bc:	pop    rbx
    45bd:	mov    rax,rbp
    45c0:	pop    rbp
    45c1:	pop    r12
    45c3:	pop    r13
    45c5:	ret    
    45c6:	nop    WORD PTR cs:[rax+rax*1+0x0]
    45d0:	call   30b0 <__errno_location@plt>
    45d5:	mov    DWORD PTR [rax],0x0
    45db:	jmp    458f <qemu_read+0x3f>
    45dd:	lea    rcx,[rip+0x182b4]        # 1c898 <__PRETTY_FUNCTION__.13430>
    45e4:	mov    edx,0x4b
    45e9:	lea    rsi,[rip+0x1827c]        # 1c86c <_IO_stdin_used+0x86c>
    45f0:	lea    rdi,[rip+0x1827d]        # 1c874 <_IO_stdin_used+0x874>
    45f7:	call   3220 <__assert_fail@plt>
    45fc:	nop    DWORD PTR [rax+0x0]

0000000000004600 <qemu_read_ok>:
    4600:	push   rbx
    4601:	mov    rbx,rdx
    4604:	call   4550 <qemu_read>
    4609:	cmp    rbx,rax
    460c:	pop    rbx
    460d:	sete   al
    4610:	movzx  eax,al
    4613:	lea    eax,[rax+rax*1-0x1]
    4617:	ret    
    4618:	nop    DWORD PTR [rax+rax*1+0x0]

0000000000004620 <qemu_write>:
    4620:	push   r13
    4622:	mov    r13d,edi
    4625:	push   r12
    4627:	mov    r12,rsi
    462a:	push   rbp
    462b:	xor    ebp,ebp
    462d:	push   rbx
    462e:	mov    rbx,rdx
    4631:	sub    rsp,0x8
    4635:	test   rdx,rdx
    4638:	je     465f <qemu_write+0x3f>
    463a:	mov    rdx,rbx
    463d:	mov    rsi,r12
    4640:	mov    edi,r13d
    4643:	call   3130 <write@plt>
    4648:	test   rax,rax
    464b:	je     46a0 <qemu_write+0x80>
    464d:	js     4670 <qemu_write+0x50>
    464f:	cmp    rax,rbx
    4652:	ja     46ad <qemu_write+0x8d>
    4654:	add    rbp,rax
    4657:	add    r12,rax
    465a:	sub    rbx,rax
    465d:	jne    463a <qemu_write+0x1a>
    465f:	add    rsp,0x8
    4663:	mov    rax,rbp
    4666:	pop    rbx
    4667:	pop    rbp
    4668:	pop    r12
    466a:	pop    r13
    466c:	ret    
    466d:	nop    DWORD PTR [rax]
    4670:	call   30b0 <__errno_location@plt>
    4675:	cmp    DWORD PTR [rax],0x4
    4678:	je     463a <qemu_write+0x1a>
    467a:	test   rbp,rbp
    467d:	mov    rax,0xffffffffffffffff
    4684:	cmove  rbp,rax
    4688:	add    rsp,0x8
    468c:	pop    rbx
    468d:	mov    rax,rbp
    4690:	pop    rbp
    4691:	pop    r12
    4693:	pop    r13
    4695:	ret    
    4696:	nop    WORD PTR cs:[rax+rax*1+0x0]
    46a0:	call   30b0 <__errno_location@plt>
    46a5:	mov    DWORD PTR [rax],0x0
    46ab:	jmp    465f <qemu_write+0x3f>
    46ad:	lea    rcx,[rip+0x181d4]        # 1c888 <__PRETTY_FUNCTION__.13447>
    46b4:	mov    edx,0x4c
    46b9:	lea    rsi,[rip+0x181ac]        # 1c86c <_IO_stdin_used+0x86c>
    46c0:	lea    rdi,[rip+0x181ad]        # 1c874 <_IO_stdin_used+0x874>
    46c7:	call   3220 <__assert_fail@plt>
    46cc:	nop    DWORD PTR [rax+0x0]

00000000000046d0 <qemu_write_ok>:
    46d0:	push   rbx
    46d1:	mov    rbx,rdx
    46d4:	call   4620 <qemu_write>
    46d9:	cmp    rbx,rax
    46dc:	pop    rbx
    46dd:	sete   al
    46e0:	movzx  eax,al
    46e3:	lea    eax,[rax+rax*1-0x1]
    46e7:	ret    
    46e8:	nop    DWORD PTR [rax+rax*1+0x0]

00000000000046f0 <qemu_memalign>:
    46f0:	sub    rsp,0x18
    46f4:	mov    rax,rdi
    46f7:	mov    rdx,rsi
    46fa:	mov    rcx,QWORD PTR fs:0x28
    4703:	mov    QWORD PTR [rsp+0x8],rcx
    4708:	xor    ecx,ecx
    470a:	mov    rdi,rsp
    470d:	mov    rsi,rax
    4710:	call   3640 <posix_memalign@plt>
    4715:	mov    rdx,QWORD PTR [rsp]
    4719:	test   eax,eax
    471b:	je     471f <qemu_memalign+0x2f>
    471d:	xor    edx,edx
    471f:	mov    rcx,QWORD PTR [rsp+0x8]
    4724:	xor    rcx,QWORD PTR fs:0x28
    472d:	mov    rax,rdx
    4730:	jne    4737 <qemu_memalign+0x47>
    4732:	add    rsp,0x18
    4736:	ret    
    4737:	call   3190 <__stack_chk_fail@plt>
    473c:	nop    DWORD PTR [rax+0x0]

0000000000004740 <qemu_vmalloc>:
    4740:	push   rbx
    4741:	mov    rbx,rdi
    4744:	sub    rsp,0x10
    4748:	mov    rax,QWORD PTR fs:0x28
    4751:	mov    QWORD PTR [rsp+0x8],rax
    4756:	xor    eax,eax
    4758:	call   35e0 <getpagesize@plt>
    475d:	mov    rdx,rbx
    4760:	mov    rdi,rsp
    4763:	movsxd rsi,eax
    4766:	call   3640 <posix_memalign@plt>
    476b:	mov    rdx,QWORD PTR [rsp]
    476f:	test   eax,eax
    4771:	je     4775 <qemu_vmalloc+0x35>
    4773:	xor    edx,edx
    4775:	mov    rcx,QWORD PTR [rsp+0x8]
    477a:	xor    rcx,QWORD PTR fs:0x28
    4783:	mov    rax,rdx
    4786:	jne    478e <qemu_vmalloc+0x4e>
    4788:	add    rsp,0x10
    478c:	pop    rbx
    478d:	ret    
    478e:	call   3190 <__stack_chk_fail@plt>
    4793:	data16 nop WORD PTR cs:[rax+rax*1+0x0]
    479e:	xchg   ax,ax

00000000000047a0 <qemu_vfree>:
    47a0:	jmp    3070 <free@plt>
    47a5:	data16 nop WORD PTR cs:[rax+rax*1+0x0]

00000000000047b0 <qemu_create_pidfile>:
    47b0:	push   r12
    47b2:	mov    edx,0x180
    47b7:	mov    esi,0x42
    47bc:	push   rbp
    47bd:	push   rbx
    47be:	sub    rsp,0x90
    47c5:	mov    rax,QWORD PTR fs:0x28
    47ce:	mov    QWORD PTR [rsp+0x88],rax
    47d6:	xor    eax,eax
    47d8:	call   3500 <open64@plt>
    47dd:	cmp    eax,0xffffffff
    47e0:	je     4860 <qemu_create_pidfile+0xb0>
    47e2:	xor    edx,edx
    47e4:	mov    esi,0x2
    47e9:	mov    edi,eax
    47eb:	mov    ebp,eax
    47ed:	call   3550 <lockf64@plt>
    47f2:	cmp    eax,0xffffffff
    47f5:	je     4860 <qemu_create_pidfile+0xb0>
    47f7:	call   3140 <getpid@plt>
    47fc:	mov    r12,rsp
    47ff:	mov    ecx,0x80
    4804:	lea    r8,[rip+0x18076]        # 1c881 <_IO_stdin_used+0x881>
    480b:	movsxd r9,eax
    480e:	mov    edx,0x1
    4813:	mov    esi,0x80
    4818:	mov    rdi,r12
    481b:	xor    eax,eax
    481d:	call   3060 <__snprintf_chk@plt>
    4822:	mov    rsi,r12
    4825:	mov    edi,ebp
    4827:	movsxd rbx,eax
    482a:	mov    rdx,rbx
    482d:	call   3130 <write@plt>
    4832:	cmp    rbx,rax
    4835:	setne  al
    4838:	movzx  eax,al
    483b:	neg    eax
    483d:	mov    rcx,QWORD PTR [rsp+0x88]
    4845:	xor    rcx,QWORD PTR fs:0x28
    484e:	jne    4867 <qemu_create_pidfile+0xb7>
    4850:	add    rsp,0x90
    4857:	pop    rbx
    4858:	pop    rbp
    4859:	pop    r12
    485b:	ret    
    485c:	nop    DWORD PTR [rax+0x0]
    4860:	mov    eax,0xffffffff
    4865:	jmp    483d <qemu_create_pidfile+0x8d>
    4867:	call   3190 <__stack_chk_fail@plt>
    486c:	nop    DWORD PTR [rax+0x0]

0000000000004870 <socket_set_nonblock>:
    4870:	push   rbx
    4871:	mov    esi,0x3
    4876:	xor    eax,eax
    4878:	mov    ebx,edi
    487a:	call   3520 <fcntl64@plt>
    487f:	mov    edi,ebx
    4881:	mov    esi,0x4
    4886:	pop    rbx
    4887:	or     ah,0x8
    488a:	mov    edx,eax
    488c:	xor    eax,eax
    488e:	jmp    3520 <fcntl64@plt>
    4893:	nop    WORD PTR cs:[rax+rax*1+0x0]
    489d:	nop    DWORD PTR [rax]

00000000000048a0 <pstrcpy>:
    48a0:	test   rsi,rsi
    48a3:	je     48db <pstrcpy+0x3b>
    48a5:	movzx  eax,BYTE PTR [rdx]
    48a8:	lea    rcx,[rdx+0x1]
    48ac:	test   al,al
    48ae:	je     48d8 <pstrcpy+0x38>
    48b0:	lea    rdx,[rdi+rsi*1-0x1]
    48b5:	cmp    rdi,rdx
    48b8:	jb     48c5 <pstrcpy+0x25>
    48ba:	jmp    48d8 <pstrcpy+0x38>
    48bc:	nop    DWORD PTR [rax+0x0]
    48c0:	cmp    rdi,rdx
    48c3:	je     48d8 <pstrcpy+0x38>
    48c5:	add    rdi,0x1
    48c9:	add    rcx,0x1
    48cd:	mov    BYTE PTR [rdi-0x1],al
    48d0:	movzx  eax,BYTE PTR [rcx-0x1]
    48d4:	test   al,al
    48d6:	jne    48c0 <pstrcpy+0x20>
    48d8:	mov    BYTE PTR [rdi],0x0
    48db:	ret    
    48dc:	nop    DWORD PTR [rax+0x0]

00000000000048e0 <pstrcat>:
    48e0:	push   r12
    48e2:	mov    r12,rdx
    48e5:	push   rbp
    48e6:	mov    rbp,rdi
    48e9:	push   rbx
    48ea:	mov    rbx,rsi
    48ed:	call   3180 <strlen@plt>
    48f2:	cdqe   
    48f4:	cmp    rax,rbx
    48f7:	jb     4908 <pstrcat+0x28>
    48f9:	mov    rax,rbp
    48fc:	pop    rbx
    48fd:	pop    rbp
    48fe:	pop    r12
    4900:	ret    
    4901:	nop    DWORD PTR [rax+0x0]
    4908:	movzx  edx,BYTE PTR [r12]
    490d:	sub    rbx,0x1
    4911:	add    rax,rbp
    4914:	lea    rcx,[r12+0x1]
    4919:	test   dl,dl
    491b:	je     4948 <pstrcat+0x68>
    491d:	add    rbx,rbp
    4920:	cmp    rax,rbx
    4923:	jb     4935 <pstrcat+0x55>
    4925:	jmp    4948 <pstrcat+0x68>
    4927:	nop    WORD PTR [rax+rax*1+0x0]
    4930:	cmp    rax,rbx
    4933:	je     4948 <pstrcat+0x68>
    4935:	add    rax,0x1
    4939:	add    rcx,0x1
    493d:	mov    BYTE PTR [rax-0x1],dl
    4940:	movzx  edx,BYTE PTR [rcx-0x1]
    4944:	test   dl,dl
    4946:	jne    4930 <pstrcat+0x50>
    4948:	mov    BYTE PTR [rax],0x0
    494b:	mov    rax,rbp
    494e:	pop    rbx
    494f:	pop    rbp
    4950:	pop    r12
    4952:	ret    
    4953:	data16 nop WORD PTR cs:[rax+rax*1+0x0]
    495e:	xchg   ax,ax

0000000000004960 <strstart>:
    4960:	jmp    4974 <strstart+0x14>
    4962:	nop    WORD PTR [rax+rax*1+0x0]
    4968:	cmp    BYTE PTR [rdi],al
    496a:	jne    4990 <strstart+0x30>
    496c:	add    rdi,0x1
    4970:	add    rsi,0x1
    4974:	movzx  eax,BYTE PTR [rsi]
    4977:	test   al,al
    4979:	jne    4968 <strstart+0x8>
    497b:	mov    eax,0x1
    4980:	test   rdx,rdx
    4983:	je     4992 <strstart+0x32>
    4985:	mov    QWORD PTR [rdx],rdi
    4988:	ret    
    4989:	nop    DWORD PTR [rax+0x0]
    4990:	xor    eax,eax
    4992:	ret    
    4993:	data16 nop WORD PTR cs:[rax+rax*1+0x0]
    499e:	xchg   ax,ax

00000000000049a0 <stristart>:
    49a0:	push   r13
    49a2:	mov    r13,rdx
    49a5:	push   r12
    49a7:	mov    r12,rdi
    49aa:	push   rbp
    49ab:	push   rbx
    49ac:	sub    rsp,0x8
    49b0:	movzx  ebx,BYTE PTR [rsi]
    49b3:	test   bl,bl
    49b5:	je     49f8 <stristart+0x58>
    49b7:	mov    rbp,rsi
    49ba:	call   3030 <__ctype_toupper_loc@plt>
    49bf:	mov    rax,QWORD PTR [rax]
    49c2:	jmp    49d8 <stristart+0x38>
    49c4:	nop    DWORD PTR [rax+0x0]
    49c8:	add    rbp,0x1
    49cc:	movzx  ebx,BYTE PTR [rbp+0x0]
    49d0:	add    r12,0x1
    49d4:	test   bl,bl
    49d6:	je     49f8 <stristart+0x58>
    49d8:	movzx  ecx,BYTE PTR [r12]
    49dd:	mov    edx,DWORD PTR [rax+rbx*4]
    49e0:	cmp    DWORD PTR [rax+rcx*4],edx
    49e3:	je     49c8 <stristart+0x28>
    49e5:	xor    eax,eax
    49e7:	add    rsp,0x8
    49eb:	pop    rbx
    49ec:	pop    rbp
    49ed:	pop    r12
    49ef:	pop    r13
    49f1:	ret    
    49f2:	nop    WORD PTR [rax+rax*1+0x0]
    49f8:	mov    eax,0x1
    49fd:	test   r13,r13
    4a00:	je     49e7 <stristart+0x47>
    4a02:	mov    QWORD PTR [r13+0x0],r12
    4a06:	add    rsp,0x8
    4a0a:	pop    rbx
    4a0b:	pop    rbp
    4a0c:	pop    r12
    4a0e:	pop    r13
    4a10:	ret    
    4a11:	data16 nop WORD PTR cs:[rax+rax*1+0x0]
    4a1c:	nop    DWORD PTR [rax+0x0]

0000000000004a20 <mktimegm>:
    4a20:	mov    edx,DWORD PTR [rdi+0x10]
    4a23:	mov    esi,DWORD PTR [rdi+0x14]
    4a26:	mov    ecx,DWORD PTR [rdi+0xc]
    4a29:	lea    eax,[rdx+0x1]
    4a2c:	cmp    eax,0x2
    4a2f:	jle    4ac0 <mktimegm+0xa0>
    4a35:	add    esi,0x76c
    4a3b:	imul   eax,eax,0x99
    4a41:	mov    edx,0x66666667
    4a46:	lea    r8d,[rax-0x1c9]
    4a4d:	mov    eax,r8d
    4a50:	sar    r8d,0x1f
    4a54:	imul   edx
    4a56:	mov    eax,esi
    4a58:	sar    edx,1
    4a5a:	sub    edx,r8d
    4a5d:	add    edx,ecx
    4a5f:	imul   ecx,esi,0x16d
    4a65:	add    edx,ecx
    4a67:	test   esi,esi
    4a69:	lea    ecx,[rsi+0x3]
    4a6c:	cmovns ecx,esi
    4a6f:	sar    esi,0x1f
    4a72:	mov    r9d,esi
    4a75:	sar    ecx,0x2
    4a78:	add    ecx,edx
    4a7a:	mov    edx,0x51eb851f
    4a7f:	imul   edx
    4a81:	mov    eax,edx
    4a83:	sar    edx,0x7
    4a86:	sar    eax,0x5
    4a89:	sub    edx,esi
    4a8b:	sub    r9d,eax
    4a8e:	add    ecx,r9d
    4a91:	lea    eax,[rcx+rdx*1-0xafa6d]
    4a98:	imul   eax,eax,0x15180
    4a9e:	imul   edx,DWORD PTR [rdi+0x8],0xe10
    4aa5:	movsxd rcx,eax
    4aa8:	imul   eax,DWORD PTR [rdi+0x4],0x3c
    4aac:	add    edx,eax
    4aae:	mov    eax,DWORD PTR [rdi]
    4ab0:	add    eax,edx
    4ab2:	cdqe   
    4ab4:	add    rax,rcx
    4ab7:	ret    
    4ab8:	nop    DWORD PTR [rax+rax*1+0x0]
    4ac0:	lea    eax,[rdx+0xd]
    4ac3:	add    esi,0x76b
    4ac9:	jmp    4a3b <mktimegm+0x1b>
    4ace:	xchg   ax,ax

0000000000004ad0 <qemu_fls>:
    4ad0:	xor    eax,eax
    4ad2:	test   edi,edi
    4ad4:	je     4ae3 <qemu_fls+0x13>
    4ad6:	bsr    edi,edi
    4ad9:	mov    eax,0x20
    4ade:	xor    edi,0x1f
    4ae1:	sub    eax,edi
    4ae3:	ret    
    4ae4:	data16 nop WORD PTR cs:[rax+rax*1+0x0]
    4aef:	nop

0000000000004af0 <qemu_iovec_init>:
    4af0:	push   rbp
    4af1:	push   rbx
    4af2:	mov    rbx,rdi
    4af5:	movsxd rdi,esi
    4af8:	mov    rbp,rdi
    4afb:	shl    rdi,0x4
    4aff:	sub    rsp,0x8
    4b03:	call   4cb0 <qemu_malloc>
    4b08:	mov    DWORD PTR [rbx+0xc],ebp
    4b0b:	mov    QWORD PTR [rbx],rax
    4b0e:	mov    DWORD PTR [rbx+0x8],0x0
    4b15:	mov    QWORD PTR [rbx+0x10],0x0
    4b1d:	add    rsp,0x8
    4b21:	pop    rbx
    4b22:	pop    rbp
    4b23:	ret    
    4b24:	data16 nop WORD PTR cs:[rax+rax*1+0x0]
    4b2f:	nop

0000000000004b30 <qemu_iovec_add>:
    4b30:	push   rbp
    4b31:	mov    rbp,rsi
    4b34:	push   rbx
    4b35:	mov    rbx,rdi
    4b38:	sub    rsp,0x18
    4b3c:	movsxd rcx,DWORD PTR [rdi+0x8]
    4b40:	mov    rax,QWORD PTR [rdi]
    4b43:	cmp    ecx,DWORD PTR [rdi+0xc]
    4b46:	je     4b70 <qemu_iovec_add+0x40>
    4b48:	shl    rcx,0x4
    4b4c:	mov    QWORD PTR [rax+rcx*1],rbp
    4b50:	movsxd rax,DWORD PTR [rbx+0x8]
    4b54:	shl    rax,0x4
    4b58:	add    rax,QWORD PTR [rbx]
    4b5b:	mov    QWORD PTR [rax+0x8],rdx
    4b5f:	add    QWORD PTR [rbx+0x10],rdx
    4b63:	add    DWORD PTR [rbx+0x8],0x1
    4b67:	add    rsp,0x18
    4b6b:	pop    rbx
    4b6c:	pop    rbp
    4b6d:	ret    
    4b6e:	xchg   ax,ax
    4b70:	lea    esi,[rcx+rcx*1+0x1]
    4b74:	mov    QWORD PTR [rsp+0x8],rdx
    4b79:	mov    DWORD PTR [rdi+0xc],esi
    4b7c:	movsxd rsi,esi
    4b7f:	mov    rdi,rax
    4b82:	shl    rsi,0x4
    4b86:	call   4cd0 <qemu_realloc>
    4b8b:	movsxd rcx,DWORD PTR [rbx+0x8]
    4b8f:	mov    rdx,QWORD PTR [rsp+0x8]
    4b94:	mov    QWORD PTR [rbx],rax
    4b97:	jmp    4b48 <qemu_iovec_add+0x18>
    4b99:	nop    DWORD PTR [rax+0x0]

0000000000004ba0 <qemu_iovec_destroy>:
    4ba0:	mov    rdi,QWORD PTR [rdi]
    4ba3:	jmp    4ca0 <qemu_free>
    4ba8:	nop    DWORD PTR [rax+rax*1+0x0]

0000000000004bb0 <qemu_iovec_reset>:
    4bb0:	mov    DWORD PTR [rdi+0x8],0x0
    4bb7:	mov    QWORD PTR [rdi+0x10],0x0
    4bbf:	ret    

0000000000004bc0 <qemu_iovec_to_buffer>:
    4bc0:	mov    eax,DWORD PTR [rdi+0x8]
    4bc3:	test   eax,eax
    4bc5:	jle    4c18 <qemu_iovec_to_buffer+0x58>
    4bc7:	push   r12
    4bc9:	mov    rcx,rsi
    4bcc:	mov    r12,rdi
    4bcf:	push   rbp
    4bd0:	push   rbx
    4bd1:	mov    rax,QWORD PTR [rdi]
    4bd4:	xor    ebx,ebx
    4bd6:	nop    WORD PTR cs:[rax+rax*1+0x0]
    4be0:	mov    rbp,rbx
    4be3:	mov    rdi,rcx
    4be6:	add    rbx,0x1
    4bea:	shl    rbp,0x4
    4bee:	add    rax,rbp
    4bf1:	mov    rsi,QWORD PTR [rax]
    4bf4:	mov    rdx,QWORD PTR [rax+0x8]
    4bf8:	call   33b0 <memcpy@plt>
    4bfd:	mov    rcx,rax
    4c00:	mov    rax,QWORD PTR [r12]
    4c04:	add    rcx,QWORD PTR [rax+rbp*1+0x8]
    4c09:	cmp    DWORD PTR [r12+0x8],ebx
    4c0e:	jg     4be0 <qemu_iovec_to_buffer+0x20>
    4c10:	pop    rbx
    4c11:	pop    rbp
    4c12:	pop    r12
    4c14:	ret    
    4c15:	nop    DWORD PTR [rax]
    4c18:	ret    
    4c19:	nop    DWORD PTR [rax+0x0]

0000000000004c20 <qemu_iovec_from_buffer>:
    4c20:	mov    eax,DWORD PTR [rdi+0x8]
    4c23:	test   eax,eax
    4c25:	jle    4c8a <qemu_iovec_from_buffer+0x6a>
    4c27:	push   r14
    4c29:	push   r13
    4c2b:	push   r12
    4c2d:	push   rbp
    4c2e:	push   rbx
    4c2f:	mov    rbx,rdx
    4c32:	test   rdx,rdx
    4c35:	je     4c81 <qemu_iovec_from_buffer+0x61>
    4c37:	mov    r14,rdi
    4c3a:	mov    r13,rsi
    4c3d:	xor    r12d,r12d
    4c40:	mov    rax,r12
    4c43:	mov    rbp,rbx
    4c46:	mov    rsi,r13
    4c49:	shl    rax,0x4
    4c4d:	add    rax,QWORD PTR [r14]
    4c50:	cmp    QWORD PTR [rax+0x8],rbx
    4c54:	cmovbe rbp,QWORD PTR [rax+0x8]
    4c59:	mov    rdi,QWORD PTR [rax]
    4c5c:	mov    rdx,rbp
    4c5f:	add    r13,rbp
    4c62:	call   33b0 <memcpy@plt>
    4c67:	lea    eax,[r12+0x1]
    4c6c:	cmp    DWORD PTR [r14+0x8],eax
    4c70:	setg   dl
    4c73:	sub    rbx,rbp
    4c76:	setne  al
    4c79:	add    r12,0x1
    4c7d:	test   dl,al
    4c7f:	jne    4c40 <qemu_iovec_from_buffer+0x20>
    4c81:	pop    rbx
    4c82:	pop    rbp
    4c83:	pop    r12
    4c85:	pop    r13
    4c87:	pop    r14
    4c89:	ret    
    4c8a:	ret    
    4c8b:	nop    DWORD PTR [rax+rax*1+0x0]

0000000000004c90 <get_mmap_addr>:
    4c90:	xor    eax,eax
    4c92:	ret    
    4c93:	data16 nop WORD PTR cs:[rax+rax*1+0x0]
    4c9e:	xchg   ax,ax

0000000000004ca0 <qemu_free>:
    4ca0:	jmp    3070 <free@plt>
    4ca5:	data16 nop WORD PTR cs:[rax+rax*1+0x0]

0000000000004cb0 <qemu_malloc>:
    4cb0:	sub    rsp,0x8
    4cb4:	call   3450 <malloc@plt>
    4cb9:	test   rax,rax
    4cbc:	je     3710 <qemu_malloc.cold.0>
    4cc2:	add    rsp,0x8
    4cc6:	ret    
    4cc7:	nop    WORD PTR [rax+rax*1+0x0]

0000000000004cd0 <qemu_realloc>:
    4cd0:	test   rsi,rsi
    4cd3:	je     4cf0 <qemu_realloc+0x20>
    4cd5:	sub    rsp,0x8
    4cd9:	call   34a0 <realloc@plt>
    4cde:	test   rax,rax
    4ce1:	je     3715 <qemu_realloc.cold.1>
    4ce7:	add    rsp,0x8
    4ceb:	ret    
    4cec:	nop    DWORD PTR [rax+0x0]
    4cf0:	xor    esi,esi
    4cf2:	jmp    34a0 <realloc@plt>
    4cf7:	nop    WORD PTR [rax+rax*1+0x0]

0000000000004d00 <qemu_mallocz>:
    4d00:	sub    rsp,0x8
    4d04:	mov    esi,0x1
    4d09:	call   3310 <calloc@plt>
    4d0e:	test   rax,rax
    4d11:	je     371a <qemu_mallocz.cold.2>
    4d17:	add    rsp,0x8
    4d1b:	ret    
    4d1c:	nop    DWORD PTR [rax+0x0]

0000000000004d20 <qemu_strdup>:
    4d20:	push   rbp
    4d21:	mov    rbp,rdi
    4d24:	push   rbx
    4d25:	sub    rsp,0x8
    4d29:	call   3180 <strlen@plt>
    4d2e:	lea    rbx,[rax+0x1]
    4d32:	mov    rdi,rbx
    4d35:	call   3450 <malloc@plt>
    4d3a:	test   rax,rax
    4d3d:	je     371f <qemu_strdup.cold.3>
    4d43:	mov    rdx,rbx
    4d46:	mov    rsi,rbp
    4d49:	mov    rdi,rax
    4d4c:	call   33b0 <memcpy@plt>
    4d51:	add    rsp,0x8
    4d55:	pop    rbx
    4d56:	pop    rbp
    4d57:	ret    
    4d58:	nop    DWORD PTR [rax+rax*1+0x0]

0000000000004d60 <qemu_strndup>:
    4d60:	push   rbp
    4d61:	mov    rdx,rsi
    4d64:	mov    rbp,rdi
    4d67:	push   rbx
    4d68:	mov    rbx,rsi
    4d6b:	xor    esi,esi
    4d6d:	sub    rsp,0x8
    4d71:	call   32b0 <memchr@plt>
    4d76:	mov    rdx,rax
    4d79:	sub    rdx,rbp
    4d7c:	test   rax,rax
    4d7f:	cmovne rbx,rdx
    4d83:	lea    rdi,[rbx+0x1]
    4d87:	call   3450 <malloc@plt>
    4d8c:	test   rax,rax
    4d8f:	je     3724 <qemu_strndup.cold.4>
    4d95:	mov    BYTE PTR [rax+rbx*1],0x0
    4d99:	add    rsp,0x8
    4d9d:	mov    rdx,rbx
    4da0:	mov    rsi,rbp
    4da3:	pop    rbx
    4da4:	mov    rdi,rax
    4da7:	pop    rbp
    4da8:	jmp    33b0 <memcpy@plt>
    4dad:	nop    DWORD PTR [rax]

0000000000004db0 <cow_is_allocated>:
    4db0:	mov    rax,QWORD PTR [rdi+0x40]
    4db4:	mov    r9,rcx
    4db7:	mov    r8,QWORD PTR [rax+0x8]
    4dbb:	test   r8,r8
    4dbe:	je     4e98 <cow_is_allocated+0xe8>
    4dc4:	test   edx,edx
    4dc6:	je     4e98 <cow_is_allocated+0xe8>
    4dcc:	test   rsi,rsi
    4dcf:	lea    rax,[rsi+0x7]
    4dd3:	mov    rdi,rsi
    4dd6:	cmovns rax,rsi
    4dda:	sar    rdi,0x3f
    4dde:	shr    rdi,0x3d
    4de2:	sar    rax,0x3
    4de6:	lea    rcx,[rsi+rdi*1]
    4dea:	movzx  eax,BYTE PTR [r8+rax*1]
    4def:	and    ecx,0x7
    4df2:	mov    DWORD PTR [r9],0x1
    4df9:	sub    rcx,rdi
    4dfc:	sar    eax,cl
    4dfe:	and    eax,0x1
    4e01:	cmp    edx,0x1
    4e04:	jle    4e94 <cow_is_allocated+0xe4>
    4e0a:	mov    rcx,rsi
    4e0d:	lea    rdi,[rsi+0x8]
    4e11:	add    rcx,0x1
    4e15:	mov    r10,rcx
    4e18:	cmovns rdi,rcx
    4e1c:	sar    r10,0x3f
    4e20:	shr    r10,0x3d
    4e24:	sar    rdi,0x3
    4e28:	add    rcx,r10
    4e2b:	movzx  edi,BYTE PTR [r8+rdi*1]
    4e30:	and    ecx,0x7
    4e33:	sub    rcx,r10
    4e36:	sar    edi,cl
    4e38:	and    edi,0x1
    4e3b:	cmp    eax,edi
    4e3d:	jne    4e94 <cow_is_allocated+0xe4>
    4e3f:	lea    rdi,[rsi+0x2]
    4e43:	lea    r10d,[rdx-0x2]
    4e47:	add    r10,rdi
    4e4a:	jmp    4e88 <cow_is_allocated+0xd8>
    4e4c:	nop    DWORD PTR [rax+0x0]
    4e50:	mov    rcx,rdi
    4e53:	add    rdi,0x1
    4e57:	lea    rdx,[rcx+0x7]
    4e5b:	test   rcx,rcx
    4e5e:	mov    r11,rcx
    4e61:	cmovns rdx,rcx
    4e65:	sar    r11,0x3f
    4e69:	shr    r11,0x3d
    4e6d:	sar    rdx,0x3
    4e71:	add    rcx,r11
    4e74:	movzx  edx,BYTE PTR [r8+rdx*1]
    4e79:	and    ecx,0x7
    4e7c:	sub    rcx,r11
    4e7f:	sar    edx,cl
    4e81:	and    edx,0x1
    4e84:	cmp    edx,eax
    4e86:	jne    4e94 <cow_is_allocated+0xe4>
    4e88:	mov    edx,edi
    4e8a:	sub    edx,esi
    4e8c:	mov    DWORD PTR [r9],edx
    4e8f:	cmp    rdi,r10
    4e92:	jne    4e50 <cow_is_allocated+0xa0>
    4e94:	ret    
    4e95:	nop    DWORD PTR [rax]
    4e98:	mov    DWORD PTR [r9],edx
    4e9b:	xor    eax,eax
    4e9d:	ret    
    4e9e:	xchg   ax,ax

0000000000004ea0 <cow_close>:
    4ea0:	push   rbx
    4ea1:	mov    rbx,QWORD PTR [rdi+0x40]
    4ea5:	mov    rdi,QWORD PTR [rbx+0x10]
    4ea9:	movsxd rsi,DWORD PTR [rbx+0x18]
    4ead:	call   34b0 <munmap@plt>
    4eb2:	mov    edi,DWORD PTR [rbx]
    4eb4:	pop    rbx
    4eb5:	jmp    3260 <close@plt>
    4eba:	nop    WORD PTR [rax+rax*1+0x0]

0000000000004ec0 <cow_write>:
    4ec0:	push   r14
    4ec2:	mov    r14,rsi
    4ec5:	shl    rsi,0x9
    4ec9:	push   r13
    4ecb:	mov    r13,rdx
    4ece:	xor    edx,edx
    4ed0:	push   r12
    4ed2:	push   rbp
    4ed3:	mov    ebp,ecx
    4ed5:	push   rbx
    4ed6:	mov    rbx,QWORD PTR [rdi+0x40]
    4eda:	mov    r12d,ebp
    4edd:	shl    r12d,0x9
    4ee1:	mov    edi,DWORD PTR [rbx]
    4ee3:	add    rsi,QWORD PTR [rbx+0x20]
    4ee7:	call   3620 <lseek64@plt>
    4eec:	mov    edi,DWORD PTR [rbx]
    4eee:	movsxd rdx,r12d
    4ef1:	mov    rsi,r13
    4ef4:	call   3130 <write@plt>
    4ef9:	cmp    r12d,eax
    4efc:	jne    4f5a <cow_write+0x9a>
    4efe:	test   ebp,ebp
    4f00:	jle    4f4f <cow_write+0x8f>
    4f02:	lea    eax,[rbp-0x1]
    4f05:	mov    rsi,r14
    4f08:	mov    edi,0x1
    4f0d:	lea    r8,[r14+rax*1+0x1]
    4f12:	nop    WORD PTR [rax+rax*1+0x0]
    4f18:	test   rsi,rsi
    4f1b:	lea    rax,[rsi+0x7]
    4f1f:	mov    rdx,rsi
    4f22:	cmovns rax,rsi
    4f26:	sar    rdx,0x3f
    4f2a:	shr    rdx,0x3d
    4f2e:	lea    rcx,[rsi+rdx*1]
    4f32:	sar    rax,0x3
    4f36:	add    rsi,0x1
    4f3a:	add    rax,QWORD PTR [rbx+0x8]
    4f3e:	and    ecx,0x7
    4f41:	sub    rcx,rdx
    4f44:	mov    edx,edi
    4f46:	shl    edx,cl
    4f48:	or     BYTE PTR [rax],dl
    4f4a:	cmp    r8,rsi
    4f4d:	jne    4f18 <cow_write+0x58>
    4f4f:	xor    eax,eax
    4f51:	pop    rbx
    4f52:	pop    rbp
    4f53:	pop    r12
    4f55:	pop    r13
    4f57:	pop    r14
    4f59:	ret    
    4f5a:	mov    eax,0xffffffff
    4f5f:	jmp    4f51 <cow_write+0x91>
    4f61:	data16 nop WORD PTR cs:[rax+rax*1+0x0]
    4f6c:	nop    DWORD PTR [rax+0x0]

0000000000004f70 <cow_read>:
    4f70:	push   r15
    4f72:	push   r14
    4f74:	push   r13
    4f76:	push   r12
    4f78:	push   rbp
    4f79:	push   rbx
    4f7a:	sub    rsp,0x18
    4f7e:	mov    rbx,QWORD PTR [rdi+0x40]
    4f82:	test   ecx,ecx
    4f84:	jle    50b8 <cow_read+0x148>
    4f8a:	mov    rbp,rdi
    4f8d:	mov    r14,rsi
    4f90:	mov    r15,rdx
    4f93:	mov    r13d,ecx
    4f96:	nop    WORD PTR cs:[rax+rax*1+0x0]
    4fa0:	mov    rdi,QWORD PTR [rbx+0x8]
    4fa4:	test   rdi,rdi
    4fa7:	je     50d0 <cow_read+0x160>
    4fad:	test   r14,r14
    4fb0:	lea    rax,[r14+0x7]
    4fb4:	cmovns rax,r14
    4fb8:	sar    rax,0x3
    4fbc:	movzx  esi,BYTE PTR [rdi+rax*1]
    4fc0:	mov    rax,r14
    4fc3:	sar    rax,0x3f
    4fc7:	shr    rax,0x3d
    4fcb:	lea    rcx,[r14+rax*1]
    4fcf:	and    ecx,0x7
    4fd2:	sub    rcx,rax
    4fd5:	sar    esi,cl
    4fd7:	and    esi,0x1
    4fda:	cmp    r13d,0x1
    4fde:	je     5160 <cow_read+0x1f0>
    4fe4:	mov    rax,r14
    4fe7:	lea    rdx,[r14+0x8]
    4feb:	add    rax,0x1
    4fef:	mov    r8,rax
    4ff2:	cmovns rdx,rax
    4ff6:	sar    r8,0x3f
    4ffa:	shr    r8,0x3d
    4ffe:	sar    rdx,0x3
    5002:	lea    rcx,[rax+r8*1]
    5006:	movzx  edx,BYTE PTR [rdi+rdx*1]
    500a:	and    ecx,0x7
    500d:	sub    rcx,r8
    5010:	sar    edx,cl
    5012:	and    edx,0x1
    5015:	cmp    edx,esi
    5017:	jne    5160 <cow_read+0x1f0>
    501d:	lea    rdx,[r14+0x2]
    5021:	mov    r12d,0x1
    5027:	jmp    5067 <cow_read+0xf7>
    5029:	nop    DWORD PTR [rax+0x0]
    5030:	mov    rcx,rdx
    5033:	add    rdx,0x1
    5037:	lea    rax,[rcx+0x7]
    503b:	test   rcx,rcx
    503e:	mov    r8,rcx
    5041:	cmovns rax,rcx
    5045:	sar    r8,0x3f
    5049:	shr    r8,0x3d
    504d:	sar    rax,0x3
    5051:	add    rcx,r8
    5054:	movzx  eax,BYTE PTR [rdi+rax*1]
    5058:	and    ecx,0x7
    505b:	sub    rcx,r8
    505e:	sar    eax,cl
    5060:	and    eax,0x1
    5063:	cmp    esi,eax
    5065:	jne    5070 <cow_read+0x100>
    5067:	add    r12d,0x1
    506b:	cmp    r12d,r13d
    506e:	jne    5030 <cow_read+0xc0>
    5070:	test   esi,esi
    5072:	jne    5108 <cow_read+0x198>
    5078:	mov    rdi,QWORD PTR [rbp+0x850]
    507f:	mov    ecx,r12d
    5082:	test   rdi,rdi
    5085:	je     50e2 <cow_read+0x172>
    5087:	mov    rdx,r15
    508a:	mov    rsi,r14
    508d:	call   17550 <bdrv_read>
    5092:	test   eax,eax
    5094:	js     5144 <cow_read+0x1d4>
    509a:	mov    ecx,r12d
    509d:	shl    ecx,0x9
    50a0:	movsxd rcx,ecx
    50a3:	sub    r13d,r12d
    50a6:	movsxd r12,r12d
    50a9:	add    r15,rcx
    50ac:	add    r14,r12
    50af:	test   r13d,r13d
    50b2:	jg     4fa0 <cow_read+0x30>
    50b8:	add    rsp,0x18
    50bc:	xor    eax,eax
    50be:	pop    rbx
    50bf:	pop    rbp
    50c0:	pop    r12
    50c2:	pop    r13
    50c4:	pop    r14
    50c6:	pop    r15
    50c8:	ret    
    50c9:	nop    DWORD PTR [rax+0x0]
    50d0:	mov    rdi,QWORD PTR [rbp+0x850]
    50d7:	mov    r12d,r13d
    50da:	mov    ecx,r12d
    50dd:	test   rdi,rdi
    50e0:	jne    5087 <cow_read+0x117>
    50e2:	shl    ecx,0x9
    50e5:	xor    esi,esi
    50e7:	mov    rdi,r15
    50ea:	movsxd rcx,ecx
    50ed:	mov    rdx,rcx
    50f0:	mov    QWORD PTR [rsp+0x8],rcx
    50f5:	call   3240 <memset@plt>
    50fa:	mov    rcx,QWORD PTR [rsp+0x8]
    50ff:	jmp    50a3 <cow_read+0x133>
    5101:	nop    DWORD PTR [rax+0x0]
    5108:	mov    edi,DWORD PTR [rbx]
    510a:	mov    rsi,r14
    510d:	xor    edx,edx
    510f:	shl    rsi,0x9
    5113:	add    rsi,QWORD PTR [rbx+0x20]
    5117:	call   3620 <lseek64@plt>
    511c:	mov    ecx,r12d
    511f:	mov    edi,DWORD PTR [rbx]
    5121:	mov    rsi,r15
    5124:	shl    ecx,0x9
    5127:	movsxd rcx,ecx
    512a:	mov    rdx,rcx
    512d:	mov    QWORD PTR [rsp+0x8],rcx
    5132:	call   4600 <qemu_read_ok>
    5137:	mov    rcx,QWORD PTR [rsp+0x8]
    513c:	test   eax,eax
    513e:	jns    50a3 <cow_read+0x133>
    5144:	add    rsp,0x18
    5148:	mov    eax,0xffffffff
    514d:	pop    rbx
    514e:	pop    rbp
    514f:	pop    r12
    5151:	pop    r13
    5153:	pop    r14
    5155:	pop    r15
    5157:	ret    
    5158:	nop    DWORD PTR [rax+rax*1+0x0]
    5160:	mov    r12d,0x1
    5166:	jmp    5070 <cow_read+0x100>
    516b:	nop    DWORD PTR [rax+rax*1+0x0]

0000000000005170 <cow_open>:
    5170:	push   r13
    5172:	mov    r13,rsi
    5175:	mov    esi,0x2
    517a:	push   r12
    517c:	push   rbp
    517d:	push   rbx
    517e:	mov    rbx,rdi
    5181:	sub    rsp,0x438
    5188:	mov    rbp,QWORD PTR [rdi+0x40]
    518c:	mov    rdi,r13
    518f:	mov    rax,QWORD PTR fs:0x28
    5198:	mov    QWORD PTR [rsp+0x428],rax
    51a0:	xor    eax,eax
    51a2:	call   3500 <open64@plt>
    51a7:	mov    r12d,eax
    51aa:	test   eax,eax
    51ac:	js     52b0 <cow_open+0x140>
    51b2:	mov    DWORD PTR [rbp+0x0],r12d
    51b6:	mov    r13,rsp
    51b9:	mov    edx,0x420
    51be:	mov    edi,r12d
    51c1:	mov    rsi,r13
    51c4:	call   4600 <qemu_read_ok>
    51c9:	test   eax,eax
    51cb:	js     52d0 <cow_open+0x160>
    51d1:	cmp    DWORD PTR [rsp],0x4d4f4f4f
    51d8:	jne    52d0 <cow_open+0x160>
    51de:	cmp    DWORD PTR [rsp+0x4],0x2000000
    51e6:	jne    52d0 <cow_open+0x160>
    51ec:	lea    rdx,[r13+0x8]
    51f0:	mov    rax,QWORD PTR [rsp+0x410]
    51f8:	mov    esi,0x400
    51fd:	lea    rdi,[rbx+0x448]
    5204:	bswap  rax
    5207:	mov    rcx,rax
    520a:	lea    rax,[rax+0x1ff]
    5211:	test   rcx,rcx
    5214:	cmovns rax,rcx
    5218:	sar    rax,0x9
    521c:	mov    QWORD PTR [rbx],rax
    521f:	call   48a0 <pstrcpy>
    5224:	mov    rbx,QWORD PTR [rbx]
    5227:	mov    r13d,DWORD PTR [rbp+0x0]
    522b:	add    rbx,0x7
    522f:	sar    rbx,0x3
    5233:	add    ebx,0x420
    5239:	mov    DWORD PTR [rbp+0x18],ebx
    523c:	movsxd rbx,ebx
    523f:	mov    rdi,rbx
    5242:	call   4c90 <get_mmap_addr>
    5247:	xor    r9d,r9d
    524a:	mov    r8d,r13d
    524d:	mov    ecx,0x1
    5252:	mov    edx,0x3
    5257:	mov    rsi,rbx
    525a:	mov    rdi,rax
    525d:	call   3420 <mmap64@plt>
    5262:	mov    QWORD PTR [rbp+0x10],rax
    5266:	cmp    rax,0xffffffffffffffff
    526a:	je     52d0 <cow_open+0x160>
    526c:	add    rax,0x420
    5272:	mov    QWORD PTR [rbp+0x8],rax
    5276:	mov    eax,DWORD PTR [rbp+0x18]
    5279:	add    eax,0x1ff
    527e:	and    eax,0xfffffe00
    5283:	cdqe   
    5285:	mov    QWORD PTR [rbp+0x20],rax
    5289:	xor    eax,eax
    528b:	mov    rcx,QWORD PTR [rsp+0x428]
    5293:	xor    rcx,QWORD PTR fs:0x28
    529c:	jne    52df <cow_open+0x16f>
    529e:	add    rsp,0x438
    52a5:	pop    rbx
    52a6:	pop    rbp
    52a7:	pop    r12
    52a9:	pop    r13
    52ab:	ret    
    52ac:	nop    DWORD PTR [rax+0x0]
    52b0:	xor    esi,esi
    52b2:	mov    rdi,r13
    52b5:	xor    eax,eax
    52b7:	call   3500 <open64@plt>
    52bc:	mov    r12d,eax
    52bf:	test   eax,eax
    52c1:	jns    51b2 <cow_open+0x42>
    52c7:	mov    eax,0xffffffff
    52cc:	jmp    528b <cow_open+0x11b>
    52ce:	xchg   ax,ax
    52d0:	mov    edi,r12d
    52d3:	call   3260 <close@plt>
    52d8:	mov    eax,0xffffffff
    52dd:	jmp    528b <cow_open+0x11b>
    52df:	call   3190 <__stack_chk_fail@plt>
    52e4:	data16 nop WORD PTR cs:[rax+rax*1+0x0]
    52ef:	nop

00000000000052f0 <cow_flush>:
    52f0:	sub    rsp,0x8
    52f4:	mov    rax,QWORD PTR [rdi+0x40]
    52f8:	mov    edi,DWORD PTR [rax]
    52fa:	call   3560 <fsync@plt>
    52ff:	test   eax,eax
    5301:	je     530a <cow_flush+0x1a>
    5303:	call   30b0 <__errno_location@plt>
    5308:	mov    eax,DWORD PTR [rax]
    530a:	add    rsp,0x8
    530e:	ret    
    530f:	nop

0000000000005310 <cow_probe>:
    5310:	xor    eax,eax
    5312:	cmp    esi,0x41f
    5318:	ja     5320 <cow_probe+0x10>
    531a:	ret    
    531b:	nop    DWORD PTR [rax+rax*1+0x0]
    5320:	cmp    DWORD PTR [rdi],0x4d4f4f4f
    5326:	jne    531a <cow_probe+0xa>
    5328:	cmp    DWORD PTR [rdi+0x4],0x2000000
    532f:	mov    edx,0x64
    5334:	cmove  eax,edx
    5337:	ret    
    5338:	nop    DWORD PTR [rax+rax*1+0x0]

0000000000005340 <cow_create>:
    5340:	push   r14
    5342:	push   r13
    5344:	push   r12
    5346:	push   rbp
    5347:	push   rbx
    5348:	sub    rsp,0x4c0
    534f:	mov    rax,QWORD PTR fs:0x28
    5358:	mov    QWORD PTR [rsp+0x4b8],rax
    5360:	xor    eax,eax
    5362:	test   ecx,ecx
    5364:	jne    5490 <cow_create+0x150>
    536a:	mov    rbx,rsi
    536d:	mov    r13,rdx
    5370:	mov    esi,0x241
    5375:	mov    edx,0x1a4
    537a:	call   3500 <open64@plt>
    537f:	mov    ebp,eax
    5381:	test   eax,eax
    5383:	js     54a0 <cow_create+0x160>
    5389:	lea    r12,[rsp+0x90]
    5391:	xor    eax,eax
    5393:	mov    ecx,0x84
    5398:	mov    rdi,r12
    539b:	rep stos QWORD PTR es:[rdi],rax
    539e:	movabs rax,0x20000004d4f4f4f
    53a8:	mov    QWORD PTR [rsp+0x90],rax
    53b0:	test   r13,r13
    53b3:	je     5407 <cow_create+0xc7>
    53b5:	xor    esi,esi
    53b7:	mov    rdi,r13
    53ba:	xor    eax,eax
    53bc:	call   3500 <open64@plt>
    53c1:	mov    r14d,eax
    53c4:	test   eax,eax
    53c6:	js     53f5 <cow_create+0xb5>
    53c8:	mov    edi,0x1
    53cd:	mov    rdx,rsp
    53d0:	mov    esi,eax
    53d2:	call   3320 <__fxstat64@plt>
    53d7:	mov    edi,r14d
    53da:	test   eax,eax
    53dc:	jne    5480 <cow_create+0x140>
    53e2:	call   3260 <close@plt>
    53e7:	mov    rax,QWORD PTR [rsp+0x58]
    53ec:	bswap  eax
    53ee:	mov    DWORD PTR [rsp+0x498],eax
    53f5:	lea    rdi,[r12+0x8]
    53fa:	mov    rdx,r13
    53fd:	mov    esi,0x400
    5402:	call   48a0 <pstrcpy>
    5407:	mov    rax,rbx
    540a:	mov    edx,0x420
    540f:	mov    rsi,r12
    5412:	mov    edi,ebp
    5414:	mov    DWORD PTR [rsp+0x4a8],0x20000
    541f:	shl    rax,0x9
    5423:	bswap  rax
    5426:	mov    QWORD PTR [rsp+0x4a0],rax
    542e:	call   3130 <write@plt>
    5433:	lea    rsi,[rbx+0x7]
    5437:	mov    edi,ebp
    5439:	mov    rbx,rsi
    543c:	sar    rbx,0x3
    5440:	lea    rsi,[rbx+0x420]
    5447:	call   34c0 <ftruncate64@plt>
    544c:	mov    edi,ebp
    544e:	call   3260 <close@plt>
    5453:	xor    eax,eax
    5455:	mov    rdx,QWORD PTR [rsp+0x4b8]
    545d:	xor    rdx,QWORD PTR fs:0x28
    5466:	jne    54a7 <cow_create+0x167>
    5468:	add    rsp,0x4c0
    546f:	pop    rbx
    5470:	pop    rbp
    5471:	pop    r12
    5473:	pop    r13
    5475:	pop    r14
    5477:	ret    
    5478:	nop    DWORD PTR [rax+rax*1+0x0]
    5480:	call   3260 <close@plt>
    5485:	jmp    53f5 <cow_create+0xb5>
    548a:	nop    WORD PTR [rax+rax*1+0x0]
    5490:	mov    eax,0xffffffa1
    5495:	jmp    5455 <cow_create+0x115>
    5497:	nop    WORD PTR [rax+rax*1+0x0]
    54a0:	mov    eax,0xffffffff
    54a5:	jmp    5455 <cow_create+0x115>
    54a7:	call   3190 <__stack_chk_fail@plt>
    54ac:	nop    DWORD PTR [rax+0x0]

00000000000054b0 <qcow_get_info>:
    54b0:	mov    rax,QWORD PTR [rdi+0x40]
    54b4:	mov    eax,DWORD PTR [rax+0xc]
    54b7:	mov    DWORD PTR [rsi],eax
    54b9:	xor    eax,eax
    54bb:	ret    
    54bc:	nop    DWORD PTR [rax+0x0]

00000000000054c0 <qcow_make_empty>:
    54c0:	push   r12
    54c2:	xor    esi,esi
    54c4:	push   rbp
    54c5:	push   rbx
    54c6:	mov    rbx,QWORD PTR [rdi+0x40]
    54ca:	mov    eax,DWORD PTR [rbx+0x1c]
    54cd:	mov    rdi,QWORD PTR [rbx+0x30]
    54d1:	lea    r12d,[rax*8+0x0]
    54d9:	mov    rdx,r12
    54dc:	call   3240 <memset@plt>
    54e1:	mov    rdx,QWORD PTR [rbx+0x30]
    54e5:	mov    rsi,QWORD PTR [rbx+0x28]
    54e9:	mov    ecx,r12d
    54ec:	mov    rdi,QWORD PTR [rbx]
    54ef:	call   18450 <bdrv_pwrite>
    54f4:	test   eax,eax
    54f6:	js     5580 <qcow_make_empty+0xc0>
    54fc:	mov    rsi,QWORD PTR [rbx+0x28]
    5500:	mov    rdi,QWORD PTR [rbx]
    5503:	add    rsi,r12
    5506:	call   184d0 <bdrv_truncate>
    550b:	test   eax,eax
    550d:	js     5574 <qcow_make_empty+0xb4>
    550f:	mov    edx,DWORD PTR [rbx+0x18]
    5512:	mov    rdi,QWORD PTR [rbx+0x38]
    5516:	xor    esi,esi
    5518:	shl    edx,0x4
    551b:	movsxd rdx,edx
    551e:	shl    rdx,0x3
    5522:	call   3240 <memset@plt>
    5527:	lea    rdi,[rbx+0x48]
    552b:	mov    eax,ebx
    552d:	pxor   xmm0,xmm0
    5531:	and    rdi,0xfffffffffffffff8
    5535:	mov    QWORD PTR [rbx+0x40],0x0
    553d:	mov    QWORD PTR [rbx+0xb8],0x0
    5548:	sub    eax,edi
    554a:	lea    ecx,[rax+0xc0]
    5550:	xor    eax,eax
    5552:	shr    ecx,0x3
    5555:	rep stos QWORD PTR es:[rdi],rax
    5558:	movups XMMWORD PTR [rbx+0xc0],xmm0
    555f:	movups XMMWORD PTR [rbx+0xd0],xmm0
    5566:	movups XMMWORD PTR [rbx+0xe0],xmm0
    556d:	movups XMMWORD PTR [rbx+0xf0],xmm0
    5574:	pop    rbx
    5575:	pop    rbp
    5576:	pop    r12
    5578:	ret    
    5579:	nop    DWORD PTR [rax+0x0]
    5580:	mov    eax,0xffffffff
    5585:	jmp    5574 <qcow_make_empty+0xb4>
    5587:	nop    WORD PTR [rax+rax*1+0x0]

0000000000005590 <qcow_aio_flush>:
    5590:	mov    rax,QWORD PTR [rdi+0x40]
    5594:	mov    rdi,QWORD PTR [rax]
    5597:	jmp    19870 <bdrv_aio_flush>
    559c:	nop    DWORD PTR [rax+0x0]

00000000000055a0 <qcow_aio_cancel>:
    55a0:	push   rbx
    55a1:	mov    rbx,rdi
    55a4:	mov    rdi,QWORD PTR [rdi+0x50]
    55a8:	test   rdi,rdi
    55ab:	je     55b2 <qcow_aio_cancel+0x12>
    55ad:	call   19860 <bdrv_aio_cancel>
    55b2:	mov    rdi,rbx
    55b5:	pop    rbx
    55b6:	jmp    19ba0 <qemu_aio_release>
    55bb:	nop    DWORD PTR [rax+rax*1+0x0]

00000000000055c0 <qcow_flush>:
    55c0:	mov    rax,QWORD PTR [rdi+0x40]
    55c4:	mov    rdi,QWORD PTR [rax]
    55c7:	jmp    18a40 <bdrv_flush>
    55cc:	nop    DWORD PTR [rax+0x0]

00000000000055d0 <qcow_close>:
    55d0:	push   rbx
    55d1:	mov    rbx,QWORD PTR [rdi+0x40]
    55d5:	mov    rdi,QWORD PTR [rbx+0x30]
    55d9:	call   4ca0 <qemu_free>
    55de:	mov    rdi,QWORD PTR [rbx+0x38]
    55e2:	call   4ca0 <qemu_free>
    55e7:	mov    rdi,QWORD PTR [rbx+0x100]
    55ee:	call   4ca0 <qemu_free>
    55f3:	mov    rdi,QWORD PTR [rbx+0x108]
    55fa:	call   4ca0 <qemu_free>
    55ff:	mov    rdi,QWORD PTR [rbx]
    5602:	pop    rbx
    5603:	jmp    17470 <bdrv_delete>
    5608:	nop    DWORD PTR [rax+rax*1+0x0]

0000000000005610 <qcow_open>:
    5610:	push   r13
    5612:	push   r12
    5614:	push   rbp
    5615:	mov    rbp,rdi
    5618:	push   rbx
    5619:	sub    rsp,0x58
    561d:	mov    rbx,QWORD PTR [rdi+0x40]
    5621:	mov    rax,QWORD PTR fs:0x28
    562a:	mov    QWORD PTR [rsp+0x48],rax
    562f:	xor    eax,eax
    5631:	mov    rdi,rbx
    5634:	call   183c0 <bdrv_file_open>
    5639:	mov    r12d,eax
    563c:	test   eax,eax
    563e:	js     588d <qcow_open+0x27d>
    5644:	mov    rdi,QWORD PTR [rbx]
    5647:	xor    esi,esi
    5649:	lea    rdx,[rsp+0x10]
    564e:	mov    ecx,0x30
    5653:	call   17e40 <bdrv_pread>
    5658:	cmp    eax,0x30
    565b:	jne    59b0 <qcow_open+0x3a0>
    5661:	mov    eax,DWORD PTR [rsp+0x10]
    5665:	mov    rdx,QWORD PTR [rsp+0x28]
    566a:	mov    rcx,QWORD PTR [rsp+0x38]
    566f:	bswap  eax
    5671:	mov    DWORD PTR [rsp+0x10],eax
    5675:	mov    eax,DWORD PTR [rsp+0x14]
    5679:	bswap  rdx
    567c:	bswap  rcx
    567f:	mov    QWORD PTR [rsp+0x28],rdx
    5684:	bswap  eax
    5686:	mov    DWORD PTR [rsp+0x14],eax
    568a:	mov    rax,QWORD PTR [rsp+0x18]
    568f:	mov    QWORD PTR [rsp+0x38],rcx
    5694:	movabs rcx,0x1514649fb
    569e:	bswap  rax
    56a1:	mov    QWORD PTR [rsp+0x18],rax
    56a6:	mov    eax,DWORD PTR [rsp+0x20]
    56aa:	bswap  eax
    56ac:	mov    DWORD PTR [rsp+0x20],eax
    56b0:	mov    eax,DWORD PTR [rsp+0x24]
    56b4:	bswap  eax
    56b6:	mov    DWORD PTR [rsp+0x24],eax
    56ba:	mov    eax,DWORD PTR [rsp+0x34]
    56be:	bswap  eax
    56c0:	mov    DWORD PTR [rsp+0x34],eax
    56c4:	cmp    QWORD PTR [rsp+0x10],rcx
    56c9:	jne    59b0 <qcow_open+0x3a0>
    56cf:	cmp    rdx,0x1
    56d3:	jbe    59b0 <qcow_open+0x3a0>
    56d9:	movzx  ecx,BYTE PTR [rsp+0x30]
    56de:	cmp    cl,0x8
    56e1:	jbe    59b0 <qcow_open+0x3a0>
    56e7:	cmp    eax,0x1
    56ea:	ja     59b0 <qcow_open+0x3a0>
    56f0:	mov    DWORD PTR [rbx+0x11c],eax
    56f6:	test   eax,eax
    56f8:	jne    58b0 <qcow_open+0x2a0>
    56fe:	mov    eax,0x1
    5703:	movzx  edx,cl
    5706:	mov    esi,eax
    5708:	mov    DWORD PTR [rbx+0x8],edx
    570b:	shl    esi,cl
    570d:	lea    ecx,[rdx-0x9]
    5710:	mov    edx,eax
    5712:	shl    edx,cl
    5714:	mov    DWORD PTR [rbx+0xc],esi
    5717:	mov    DWORD PTR [rbx+0x10],edx
    571a:	movzx  ecx,BYTE PTR [rsp+0x31]
    571f:	shl    eax,cl
    5721:	mov    DWORD PTR [rbx+0x14],ecx
    5724:	mov    DWORD PTR [rbx+0x18],eax
    5727:	mov    rdx,QWORD PTR [rsp+0x28]
    572c:	mov    rax,rdx
    572f:	shr    rax,0x9
    5733:	mov    QWORD PTR [rbp+0x0],rax
    5737:	mov    ecx,DWORD PTR [rbx+0x8]
    573a:	movabs rax,0x8000000000000000
    5744:	shr    rax,cl
    5747:	add    ecx,DWORD PTR [rbx+0x14]
    574a:	sub    rax,0x1
    574e:	mov    QWORD PTR [rbx+0x20],rax
    5752:	mov    eax,0x1
    5757:	shl    rax,cl
    575a:	lea    rdi,[rdx+rax*1-0x1]
    575f:	shr    rdi,cl
    5762:	mov    DWORD PTR [rbx+0x1c],edi
    5765:	mov    rax,QWORD PTR [rsp+0x38]
    576a:	movsxd rdi,edi
    576d:	shl    rdi,0x3
    5771:	mov    QWORD PTR [rbx+0x28],rax
    5775:	call   4cb0 <qemu_malloc>
    577a:	mov    QWORD PTR [rbx+0x30],rax
    577e:	test   rax,rax
    5781:	je     59b4 <qcow_open+0x3a4>
    5787:	mov    esi,DWORD PTR [rbx+0x1c]
    578a:	mov    rdi,QWORD PTR [rbx]
    578d:	mov    rdx,rax
    5790:	lea    ecx,[rsi*8+0x0]
    5797:	mov    rsi,QWORD PTR [rbx+0x28]
    579b:	call   17e40 <bdrv_pread>
    57a0:	movsxd r12,DWORD PTR [rbx+0x1c]
    57a4:	cdqe   
    57a6:	mov    rdx,r12
    57a9:	shl    r12,0x3
    57ad:	cmp    rax,r12
    57b0:	jne    59b0 <qcow_open+0x3a0>
    57b6:	cmp    QWORD PTR [rsp+0x18],0x0
    57bc:	jne    57ca <qcow_open+0x1ba>
    57be:	test   WORD PTR [rbx+0x28],0xfff
    57c4:	je     58c0 <qcow_open+0x2b0>
    57ca:	xor    eax,eax
    57cc:	test   edx,edx
    57ce:	jle    57ea <qcow_open+0x1da>
    57d0:	mov    rdx,QWORD PTR [rbx+0x30]
    57d4:	lea    rcx,[rdx+rax*8]
    57d8:	add    rax,0x1
    57dc:	mov    rdx,QWORD PTR [rcx]
    57df:	bswap  rdx
    57e2:	mov    QWORD PTR [rcx],rdx
    57e5:	cmp    DWORD PTR [rbx+0x1c],eax
    57e8:	jg     57d0 <qcow_open+0x1c0>
    57ea:	mov    edi,DWORD PTR [rbx+0x18]
    57ed:	shl    edi,0x4
    57f0:	movsxd rdi,edi
    57f3:	shl    rdi,0x3
    57f7:	call   4cb0 <qemu_malloc>
    57fc:	mov    QWORD PTR [rbx+0x38],rax
    5800:	test   rax,rax
    5803:	je     59b0 <qcow_open+0x3a0>
    5809:	movsxd rdi,DWORD PTR [rbx+0xc]
    580d:	call   4cb0 <qemu_malloc>
    5812:	mov    QWORD PTR [rbx+0x100],rax
    5819:	test   rax,rax
    581c:	je     59b0 <qcow_open+0x3a0>
    5822:	movsxd rdi,DWORD PTR [rbx+0xc]
    5826:	call   4cb0 <qemu_malloc>
    582b:	mov    QWORD PTR [rbx+0x108],rax
    5832:	test   rax,rax
    5835:	je     59b0 <qcow_open+0x3a0>
    583b:	mov    rsi,QWORD PTR [rsp+0x18]
    5840:	xor    r12d,r12d
    5843:	mov    QWORD PTR [rbx+0x110],0xffffffffffffffff
    584e:	test   rsi,rsi
    5851:	je     588d <qcow_open+0x27d>
    5853:	mov    r13d,DWORD PTR [rsp+0x20]
    5858:	mov    eax,0x3ff
    585d:	mov    rdi,QWORD PTR [rbx]
    5860:	lea    rdx,[rbp+0x448]
    5867:	cmp    r13d,0x3ff
    586e:	cmovg  r13d,eax
    5872:	mov    ecx,r13d
    5875:	call   17e40 <bdrv_pread>
    587a:	cmp    eax,r13d
    587d:	jne    59b0 <qcow_open+0x3a0>
    5883:	cdqe   
    5885:	mov    BYTE PTR [rbp+rax*1+0x448],0x0
    588d:	mov    rsi,QWORD PTR [rsp+0x48]
    5892:	xor    rsi,QWORD PTR fs:0x28
    589b:	mov    eax,r12d
    589e:	jne    59f8 <qcow_open+0x3e8>
    58a4:	add    rsp,0x58
    58a8:	pop    rbx
    58a9:	pop    rbp
    58aa:	pop    r12
    58ac:	pop    r13
    58ae:	ret    
    58af:	nop
    58b0:	mov    DWORD PTR [rbp+0x14],0x1
    58b7:	jmp    56fe <qcow_open+0xee>
    58bc:	nop    DWORD PTR [rax+0x0]
    58c0:	mov    r13,rsp
    58c3:	mov    rdi,QWORD PTR [rbx]
    58c6:	mov    ecx,0x10
    58cb:	mov    esi,0x30
    58d0:	mov    rdx,r13
    58d3:	call   17e40 <bdrv_pread>
    58d8:	cmp    eax,0x10
    58db:	jne    59f0 <qcow_open+0x3e0>
    58e1:	mov    eax,DWORD PTR [rsp]
    58e4:	bswap  eax
    58e6:	mov    DWORD PTR [rsp],eax
    58e9:	cmp    eax,0x58454efb
    58ee:	jne    59f0 <qcow_open+0x3e0>
    58f4:	mov    eax,DWORD PTR [rsp+0xc]
    58f8:	bswap  eax
    58fa:	mov    DWORD PTR [rsp+0xc],eax
    58fe:	test   al,0x2
    5900:	jne    59f0 <qcow_open+0x3e0>
    5906:	mov    rcx,QWORD PTR [rip+0x22bf3]        # 28500 <stderr@@GLIBC_2.2.5>
    590d:	mov    edx,0x2e
    5912:	mov    esi,0x1
    5917:	lea    rdi,[rip+0x16f8a]        # 1c8a8 <__PRETTY_FUNCTION__.13430+0x10>
    591e:	call   3610 <fwrite@plt>
    5923:	mov    edx,DWORD PTR [rbx+0x1c]
    5926:	xor    eax,eax
    5928:	test   edx,edx
    592a:	jle    594a <qcow_open+0x33a>
    592c:	nop    DWORD PTR [rax+0x0]
    5930:	mov    rdx,QWORD PTR [rbx+0x30]
    5934:	lea    rcx,[rdx+rax*8]
    5938:	add    rax,0x1
    593c:	mov    rdx,QWORD PTR [rcx]
    593f:	bswap  rdx
    5942:	mov    QWORD PTR [rcx],rdx
    5945:	cmp    DWORD PTR [rbx+0x1c],eax
    5948:	jg     5930 <qcow_open+0x320>
    594a:	mov    rdx,QWORD PTR [rbx+0x30]
    594e:	mov    rsi,QWORD PTR [rbx+0x28]
    5952:	mov    ecx,r12d
    5955:	mov    rdi,QWORD PTR [rbx]
    5958:	call   18450 <bdrv_pwrite>
    595d:	cdqe   
    595f:	cmp    r12,rax
    5962:	jne    59fd <qcow_open+0x3ed>
    5968:	mov    eax,DWORD PTR [rsp+0xc]
    596c:	mov    ecx,0x10
    5971:	mov    rdx,r13
    5974:	mov    esi,0x30
    5979:	or     eax,0x2
    597c:	bswap  eax
    597e:	mov    DWORD PTR [rsp+0xc],eax
    5982:	mov    rdi,QWORD PTR [rbx]
    5985:	call   18450 <bdrv_pwrite>
    598a:	cmp    eax,0x10
    598d:	je     59f0 <qcow_open+0x3e0>
    598f:	mov    rcx,QWORD PTR [rip+0x22b6a]        # 28500 <stderr@@GLIBC_2.2.5>
    5996:	mov    edx,0x26
    599b:	mov    esi,0x1
    59a0:	lea    rdi,[rip+0x16f59]        # 1c900 <__PRETTY_FUNCTION__.13430+0x68>
    59a7:	call   3610 <fwrite@plt>
    59ac:	nop    DWORD PTR [rax+0x0]
    59b0:	mov    rax,QWORD PTR [rbx+0x30]
    59b4:	mov    rdi,rax
    59b7:	mov    r12d,0xffffffff
    59bd:	call   4ca0 <qemu_free>
    59c2:	mov    rdi,QWORD PTR [rbx+0x38]
    59c6:	call   4ca0 <qemu_free>
    59cb:	mov    rdi,QWORD PTR [rbx+0x100]
    59d2:	call   4ca0 <qemu_free>
    59d7:	mov    rdi,QWORD PTR [rbx+0x108]
    59de:	call   4ca0 <qemu_free>
    59e3:	mov    rdi,QWORD PTR [rbx]
    59e6:	call   17470 <bdrv_delete>
    59eb:	jmp    588d <qcow_open+0x27d>
    59f0:	mov    edx,DWORD PTR [rbx+0x1c]
    59f3:	jmp    57ca <qcow_open+0x1ba>
    59f8:	call   3190 <__stack_chk_fail@plt>
    59fd:	mov    rcx,QWORD PTR [rip+0x22afc]        # 28500 <stderr@@GLIBC_2.2.5>
    5a04:	mov    edx,0x23
    5a09:	mov    esi,0x1
    5a0e:	lea    rdi,[rip+0x16ec3]        # 1c8d8 <__PRETTY_FUNCTION__.13430+0x40>
    5a15:	call   3610 <fwrite@plt>
    5a1a:	jmp    59b0 <qcow_open+0x3a0>
    5a1c:	nop    DWORD PTR [rax+0x0]

0000000000005a20 <encrypt_sectors.isra.0>:
    5a20:	push   r15
    5a22:	push   r14
    5a24:	push   r13
    5a26:	push   r12
    5a28:	push   rbp
    5a29:	push   rbx
    5a2a:	sub    rsp,0x38
    5a2e:	mov    rax,QWORD PTR fs:0x28
    5a37:	mov    QWORD PTR [rsp+0x28],rax
    5a3c:	xor    eax,eax
    5a3e:	test   ecx,ecx
    5a40:	jle    5aab <encrypt_sectors.isra.0+0x8b>
    5a42:	lea    r12d,[rcx-0x1]
    5a46:	lea    rbx,[rdi+0x1]
    5a4a:	mov    rbp,rsi
    5a4d:	mov    r15,rdx
    5a50:	lea    rax,[rsp+0x10]
    5a55:	mov    r13d,r8d
    5a58:	mov    r14,r9
    5a5b:	add    r12,rbx
    5a5e:	mov    QWORD PTR [rsp+0x8],rax
    5a63:	jmp    5a6c <encrypt_sectors.isra.0+0x4c>
    5a65:	nop    DWORD PTR [rax]
    5a68:	add    rbx,0x1
    5a6c:	mov    r8,QWORD PTR [rsp+0x8]
    5a71:	mov    QWORD PTR [rsp+0x10],rdi
    5a76:	mov    rsi,rbp
    5a79:	mov    rdi,r15
    5a7c:	mov    r9d,r13d
    5a7f:	mov    rcx,r14
    5a82:	mov    edx,0x200
    5a87:	mov    QWORD PTR [rsp+0x18],0x0
    5a90:	add    r15,0x200
    5a97:	add    rbp,0x200
    5a9e:	call   7970 <AES_cbc_encrypt>
    5aa3:	mov    rdi,rbx
    5aa6:	cmp    rbx,r12
    5aa9:	jne    5a68 <encrypt_sectors.isra.0+0x48>
    5aab:	mov    rax,QWORD PTR [rsp+0x28]
    5ab0:	xor    rax,QWORD PTR fs:0x28
    5ab9:	jne    5aca <encrypt_sectors.isra.0+0xaa>
    5abb:	add    rsp,0x38
    5abf:	pop    rbx
    5ac0:	pop    rbp
    5ac1:	pop    r12
    5ac3:	pop    r13
    5ac5:	pop    r14
    5ac7:	pop    r15
    5ac9:	ret    
    5aca:	call   3190 <__stack_chk_fail@plt>
    5acf:	nop

0000000000005ad0 <decompress_cluster>:
    5ad0:	push   r15
    5ad2:	push   r14
    5ad4:	push   r13
    5ad6:	push   r12
    5ad8:	push   rbp
    5ad9:	xor    ebp,ebp
    5adb:	push   rbx
    5adc:	sub    rsp,0x88
    5ae3:	mov    r12,QWORD PTR [rdi+0x20]
    5ae7:	mov    rax,QWORD PTR fs:0x28
    5af0:	mov    QWORD PTR [rsp+0x78],rax
    5af5:	xor    eax,eax
    5af7:	and    r12,rsi
    5afa:	cmp    QWORD PTR [rdi+0x110],r12
    5b01:	jne    5b30 <decompress_cluster+0x60>
    5b03:	mov    rdi,QWORD PTR [rsp+0x78]
    5b08:	xor    rdi,QWORD PTR fs:0x28
    5b11:	mov    eax,ebp
    5b13:	jne    5c27 <decompress_cluster+0x157>
    5b19:	add    rsp,0x88
    5b20:	pop    rbx
    5b21:	pop    rbp
    5b22:	pop    r12
    5b24:	pop    r13
    5b26:	pop    r14
    5b28:	pop    r15
    5b2a:	ret    
    5b2b:	nop    DWORD PTR [rax+rax*1+0x0]
    5b30:	mov    eax,DWORD PTR [rdi+0xc]
    5b33:	mov    ecx,0x3f
    5b38:	sub    ecx,DWORD PTR [rdi+0x8]
    5b3b:	mov    rbx,rdi
    5b3e:	shr    rsi,cl
    5b41:	mov    rdx,QWORD PTR [rdi+0x108]
    5b48:	mov    rdi,QWORD PTR [rdi]
    5b4b:	lea    ebp,[rax-0x1]
    5b4e:	and    ebp,esi
    5b50:	mov    rsi,r12
    5b53:	mov    ecx,ebp
    5b55:	call   17e40 <bdrv_pread>
    5b5a:	cmp    ebp,eax
    5b5c:	jne    5c08 <decompress_cluster+0x138>
    5b62:	mov    r15,rsp
    5b65:	xor    eax,eax
    5b67:	mov    ecx,0xc
    5b6c:	mov    r13d,DWORD PTR [rbx+0xc]
    5b70:	lea    rdi,[r15+0x10]
    5b74:	mov    rdx,QWORD PTR [rbx+0x108]
    5b7b:	mov    esi,0xfffffff4
    5b80:	mov    r14,QWORD PTR [rbx+0x100]
    5b87:	mov    QWORD PTR [rsp+0xc],0x0
    5b90:	mov    QWORD PTR [r15+0x68],0x0
    5b98:	rep stos QWORD PTR es:[rdi],rax
    5b9b:	mov    QWORD PTR [rsp],rdx
    5b9f:	mov    ecx,0x70
    5ba4:	mov    rdi,r15
    5ba7:	lea    rdx,[rip+0x16d79]        # 1c927 <__PRETTY_FUNCTION__.13430+0x8f>
    5bae:	mov    DWORD PTR [rsp+0x8],ebp
    5bb2:	mov    QWORD PTR [rsp+0x18],r14
    5bb7:	mov    DWORD PTR [rsp+0x20],r13d
    5bbc:	call   3580 <inflateInit2_@plt>
    5bc1:	mov    ebp,eax
    5bc3:	test   eax,eax
    5bc5:	jne    5c08 <decompress_cluster+0x138>
    5bc7:	mov    rdi,r15
    5bca:	mov    esi,0x4
    5bcf:	call   30f0 <inflate@plt>
    5bd4:	mov    rdx,QWORD PTR [rsp+0x18]
    5bd9:	mov    rdi,r15
    5bdc:	sub    rdx,r14
    5bdf:	cmp    r13d,edx
    5be2:	jne    5c18 <decompress_cluster+0x148>
    5be4:	cmp    eax,0x1
    5be7:	setne  dl
    5bea:	cmp    eax,0xfffffffb
    5bed:	setne  al
    5bf0:	test   dl,al
    5bf2:	jne    5c18 <decompress_cluster+0x148>
    5bf4:	call   33c0 <inflateEnd@plt>
    5bf9:	mov    QWORD PTR [rbx+0x110],r12
    5c00:	jmp    5b03 <decompress_cluster+0x33>
    5c05:	nop    DWORD PTR [rax]
    5c08:	mov    ebp,0xffffffff
    5c0d:	jmp    5b03 <decompress_cluster+0x33>
    5c12:	nop    WORD PTR [rax+rax*1+0x0]
    5c18:	call   33c0 <inflateEnd@plt>
    5c1d:	mov    ebp,0xffffffff
    5c22:	jmp    5b03 <decompress_cluster+0x33>
    5c27:	call   3190 <__stack_chk_fail@plt>
    5c2c:	nop    DWORD PTR [rax+0x0]

0000000000005c30 <qcow_set_key>:
    5c30:	push   r12
    5c32:	pxor   xmm0,xmm0
    5c36:	push   rbp
    5c37:	mov    rbp,rsi
    5c3a:	push   rbx
    5c3b:	sub    rsp,0x20
    5c3f:	mov    r12,QWORD PTR [rdi+0x40]
    5c43:	mov    rdi,rsi
    5c46:	mov    rax,QWORD PTR fs:0x28
    5c4f:	mov    QWORD PTR [rsp+0x18],rax
    5c54:	xor    eax,eax
    5c56:	movaps XMMWORD PTR [rsp],xmm0
    5c5a:	mov    rbx,rsp
    5c5d:	call   3180 <strlen@plt>
    5c62:	mov    edi,0x10
    5c67:	cmp    eax,0x10
    5c6a:	cmovle edi,eax
    5c6d:	test   eax,eax
    5c6f:	jle    5c90 <qcow_set_key+0x60>
    5c71:	xor    eax,eax
    5c73:	mov    rbx,rsp
    5c76:	nop    WORD PTR cs:[rax+rax*1+0x0]
    5c80:	movzx  ecx,BYTE PTR [rbp+rax*1+0x0]
    5c85:	mov    BYTE PTR [rbx+rax*1],cl
    5c88:	add    rax,0x1
    5c8c:	cmp    edi,eax
    5c8e:	jg     5c80 <qcow_set_key+0x50>
    5c90:	mov    eax,DWORD PTR [r12+0x11c]
    5c98:	lea    rdx,[r12+0x120]
    5ca0:	mov    esi,0x80
    5ca5:	mov    rdi,rbx
    5ca8:	mov    DWORD PTR [r12+0x118],eax
    5cb0:	call   6bc0 <AES_set_encrypt_key>
    5cb5:	test   eax,eax
    5cb7:	jne    5cf1 <qcow_set_key+0xc1>
    5cb9:	lea    rdx,[r12+0x214]
    5cc1:	mov    esi,0x80
    5cc6:	mov    rdi,rbx
    5cc9:	call   6ff0 <AES_set_decrypt_key>
    5cce:	test   eax,eax
    5cd0:	setne  al
    5cd3:	movzx  eax,al
    5cd6:	neg    eax
    5cd8:	mov    rsi,QWORD PTR [rsp+0x18]
    5cdd:	xor    rsi,QWORD PTR fs:0x28
    5ce6:	jne    5cf8 <qcow_set_key+0xc8>
    5ce8:	add    rsp,0x20
    5cec:	pop    rbx
    5ced:	pop    rbp
    5cee:	pop    r12
    5cf0:	ret    
    5cf1:	mov    eax,0xffffffff
    5cf6:	jmp    5cd8 <qcow_set_key+0xa8>
    5cf8:	call   3190 <__stack_chk_fail@plt>
    5cfd:	nop    DWORD PTR [rax]

0000000000005d00 <get_cluster_offset.isra.1>:
    5d00:	push   r15
    5d02:	mov    r15d,edx
    5d05:	push   r14
    5d07:	mov    r14,rsi
    5d0a:	push   r13
    5d0c:	push   r12
    5d0e:	mov    r12,rsi
    5d11:	push   rbp
    5d12:	push   rbx
    5d13:	mov    rbx,rdi
    5d16:	sub    rsp,0x48
    5d1a:	mov    edi,DWORD PTR [rdi+0x14]
    5d1d:	mov    DWORD PTR [rsp+0x10],ecx
    5d21:	mov    ecx,DWORD PTR [rbx+0x8]
    5d24:	mov    DWORD PTR [rsp+0x8],r8d
    5d29:	mov    DWORD PTR [rsp+0xc],r9d
    5d2e:	add    ecx,edi
    5d30:	shr    r12,cl
    5d33:	movsxd r12,r12d
    5d36:	mov    rax,QWORD PTR fs:0x28
    5d3f:	mov    QWORD PTR [rsp+0x38],rax
    5d44:	xor    eax,eax
    5d46:	mov    rax,QWORD PTR [rbx+0x30]
    5d4a:	mov    rbp,QWORD PTR [rax+r12*8]
    5d4e:	test   rbp,rbp
    5d51:	jne    5d88 <get_cluster_offset.isra.1+0x88>
    5d53:	test   edx,edx
    5d55:	jne    5e30 <get_cluster_offset.isra.1+0x130>
    5d5b:	xor    r12d,r12d
    5d5e:	mov    rdi,QWORD PTR [rsp+0x38]
    5d63:	xor    rdi,QWORD PTR fs:0x28
    5d6c:	mov    rax,r12
    5d6f:	jne    617d <get_cluster_offset.isra.1+0x47d>
    5d75:	add    rsp,0x48
    5d79:	pop    rbx
    5d7a:	pop    rbp
    5d7b:	pop    r12
    5d7d:	pop    r13
    5d7f:	pop    r14
    5d81:	pop    r15
    5d83:	ret    
    5d84:	nop    DWORD PTR [rax+0x0]
    5d88:	xor    esi,esi
    5d8a:	xor    eax,eax
    5d8c:	nop    DWORD PTR [rax+0x0]
    5d90:	mov    edx,eax
    5d92:	cmp    QWORD PTR [rbx+rax*8+0x40],rbp
    5d97:	je     5ea0 <get_cluster_offset.isra.1+0x1a0>
    5d9d:	add    rax,0x1
    5da1:	cmp    rax,0x10
    5da5:	jne    5d90 <get_cluster_offset.isra.1+0x90>
    5da7:	xor    eax,eax
    5da9:	xor    r12d,r12d
    5dac:	mov    ecx,0xffffffff
    5db1:	nop    DWORD PTR [rax+0x0]
    5db8:	mov    edx,DWORD PTR [rbx+rax*4+0xc0]
    5dbf:	cmp    edx,ecx
    5dc1:	jae    5dc8 <get_cluster_offset.isra.1+0xc8>
    5dc3:	mov    ecx,edx
    5dc5:	movsxd r12,eax
    5dc8:	add    rax,0x1
    5dcc:	cmp    rax,0x10
    5dd0:	jne    5db8 <get_cluster_offset.isra.1+0xb8>
    5dd2:	mov    ecx,edi
    5dd4:	mov    eax,r12d
    5dd7:	mov    rdx,QWORD PTR [rbx+0x38]
    5ddb:	shl    eax,cl
    5ddd:	cdqe   
    5ddf:	lea    r13,[rdx+rax*8]
    5de3:	movsxd rdx,DWORD PTR [rbx+0x18]
    5de7:	mov    rcx,rdx
    5dea:	test   esi,esi
    5dec:	jne    60d0 <get_cluster_offset.isra.1+0x3d0>
    5df2:	mov    rdi,QWORD PTR [rbx]
    5df5:	shl    ecx,0x3
    5df8:	mov    rdx,r13
    5dfb:	mov    rsi,rbp
    5dfe:	call   17e40 <bdrv_pread>
    5e03:	movsxd rcx,DWORD PTR [rbx+0x18]
    5e07:	cdqe   
    5e09:	mov    rdx,rcx
    5e0c:	shl    rcx,0x3
    5e10:	cmp    rax,rcx
    5e13:	jne    5d5b <get_cluster_offset.isra.1+0x5b>
    5e19:	mov    QWORD PTR [rbx+r12*8+0x40],rbp
    5e1e:	mov    DWORD PTR [rbx+r12*4+0xc0],0x1
    5e2a:	jmp    5ed0 <get_cluster_offset.isra.1+0x1d0>
    5e2f:	nop
    5e30:	mov    rdi,QWORD PTR [rbx]
    5e33:	lea    r13,[r12*8+0x0]
    5e3b:	call   18500 <bdrv_getlength>
    5e40:	movsxd rcx,DWORD PTR [rbx+0xc]
    5e44:	mov    rdx,rcx
    5e47:	lea    rsi,[rax+rcx*1-0x1]
    5e4c:	mov    rax,QWORD PTR [rbx+0x30]
    5e50:	mov    ecx,0x8
    5e55:	neg    edx
    5e57:	movsxd rbp,edx
    5e5a:	lea    rdx,[rsp+0x30]
    5e5f:	and    rbp,rsi
    5e62:	mov    QWORD PTR [rax+r12*8],rbp
    5e66:	mov    rsi,QWORD PTR [rbx+0x28]
    5e6a:	mov    rax,rbp
    5e6d:	mov    rdi,QWORD PTR [rbx]
    5e70:	bswap  rax
    5e73:	mov    QWORD PTR [rsp+0x30],rax
    5e78:	add    rsi,r13
    5e7b:	call   18450 <bdrv_pwrite>
    5e80:	cmp    eax,0x8
    5e83:	jne    5d5b <get_cluster_offset.isra.1+0x5b>
    5e89:	mov    edi,DWORD PTR [rbx+0x14]
    5e8c:	mov    esi,0x1
    5e91:	jmp    5d8a <get_cluster_offset.isra.1+0x8a>
    5e96:	nop    WORD PTR cs:[rax+rax*1+0x0]
    5ea0:	cdqe   
    5ea2:	lea    rcx,[rbx+rax*4]
    5ea6:	mov    eax,DWORD PTR [rcx+0xc0]
    5eac:	add    eax,0x1
    5eaf:	mov    DWORD PTR [rcx+0xc0],eax
    5eb5:	cmp    eax,0xffffffff
    5eb8:	je     6100 <get_cluster_offset.isra.1+0x400>
    5ebe:	mov    ecx,edi
    5ec0:	mov    rax,QWORD PTR [rbx+0x38]
    5ec4:	shl    edx,cl
    5ec6:	movsxd rdx,edx
    5ec9:	lea    r13,[rax+rdx*8]
    5ecd:	mov    edx,DWORD PTR [rbx+0x18]
    5ed0:	mov    ecx,DWORD PTR [rbx+0x8]
    5ed3:	mov    rsi,r14
    5ed6:	sub    edx,0x1
    5ed9:	shr    rsi,cl
    5edc:	and    edx,esi
    5ede:	movsxd rsi,edx
    5ee1:	lea    rax,[rsi*8+0x0]
    5ee9:	add    r13,rax
    5eec:	mov    QWORD PTR [rsp+0x18],rax
    5ef1:	mov    r12,QWORD PTR [r13+0x0]
    5ef5:	bswap  r12
    5ef8:	test   r12,r12
    5efb:	je     6060 <get_cluster_offset.isra.1+0x360>
    5f01:	jns    5d5e <get_cluster_offset.isra.1+0x5e>
    5f07:	cmp    r15d,0x1
    5f0b:	jne    5d5e <get_cluster_offset.isra.1+0x5e>
    5f11:	mov    eax,DWORD PTR [rsp+0xc]
    5f15:	sub    eax,DWORD PTR [rsp+0x8]
    5f19:	cmp    eax,DWORD PTR [rbx+0x10]
    5f1c:	jl     6120 <get_cluster_offset.isra.1+0x420>
    5f22:	mov    rdi,QWORD PTR [rbx]
    5f25:	call   18500 <bdrv_getlength>
    5f2a:	mov    rcx,rax
    5f2d:	movsxd rax,DWORD PTR [rbx+0xc]
    5f31:	mov    rdi,QWORD PTR [rbx]
    5f34:	mov    rdx,rax
    5f37:	lea    rcx,[rcx+rax*1-0x1]
    5f3c:	neg    edx
    5f3e:	movsxd r12,edx
    5f41:	and    r12,rcx
    5f44:	lea    rsi,[rax+r12*1]
    5f48:	call   184d0 <bdrv_truncate>
    5f4d:	mov    edx,DWORD PTR [rbx+0x118]
    5f53:	test   edx,edx
    5f55:	je     6099 <get_cluster_offset.isra.1+0x399>
    5f5b:	mov    eax,DWORD PTR [rsp+0xc]
    5f5f:	sub    eax,DWORD PTR [rsp+0x8]
    5f63:	cmp    eax,DWORD PTR [rbx+0x10]
    5f66:	jge    6099 <get_cluster_offset.isra.1+0x399>
    5f6c:	mov    eax,DWORD PTR [rbx+0xc]
    5f6f:	neg    eax
    5f71:	cdqe   
    5f73:	and    rax,r14
    5f76:	mov    r10,rax
    5f79:	mov    rax,QWORD PTR [rbx+0x108]
    5f80:	shr    r10,0x9
    5f84:	lea    rdi,[rax+0x208]
    5f8b:	mov    QWORD PTR [rsp+0x10],r10
    5f90:	mov    QWORD PTR [rax+0x200],0x0
    5f9b:	and    rdi,0xfffffffffffffff8
    5f9f:	mov    QWORD PTR [rax+0x3f8],0x0
    5faa:	sub    eax,edi
    5fac:	lea    ecx,[rax+0x400]
    5fb2:	xor    eax,eax
    5fb4:	shr    ecx,0x3
    5fb7:	rep stos QWORD PTR es:[rdi],rax
    5fba:	mov    eax,DWORD PTR [rbx+0x10]
    5fbd:	test   eax,eax
    5fbf:	jle    6099 <get_cluster_offset.isra.1+0x399>
    5fc5:	lea    rax,[rbx+0x120]
    5fcc:	mov    QWORD PTR [rsp+0x28],rbp
    5fd1:	xor    r14d,r14d
    5fd4:	mov    ebp,DWORD PTR [rsp+0x8]
    5fd8:	mov    QWORD PTR [rsp+0x20],rax
    5fdd:	mov    r15d,DWORD PTR [rsp+0xc]
    5fe2:	jmp    5ffb <get_cluster_offset.isra.1+0x2fb>
    5fe4:	nop    DWORD PTR [rax+0x0]
    5fe8:	cmp    r15d,r14d
    5feb:	jle    6000 <get_cluster_offset.isra.1+0x300>
    5fed:	add    r14,0x1
    5ff1:	cmp    DWORD PTR [rbx+0x10],r14d
    5ff5:	jle    6173 <get_cluster_offset.isra.1+0x473>
    5ffb:	cmp    ebp,r14d
    5ffe:	jle    5fe8 <get_cluster_offset.isra.1+0x2e8>
    6000:	mov    rax,QWORD PTR [rsp+0x10]
    6005:	mov    r9,QWORD PTR [rsp+0x20]
    600a:	mov    ecx,0x1
    600f:	mov    r8d,0x1
    6015:	mov    rsi,QWORD PTR [rbx+0x108]
    601c:	lea    rdi,[rax+r14*1]
    6020:	lea    rdx,[rsi+0x200]
    6027:	call   5a20 <encrypt_sectors.isra.0>
    602c:	mov    esi,r14d
    602f:	mov    rdi,QWORD PTR [rbx]
    6032:	mov    ecx,0x200
    6037:	shl    esi,0x9
    603a:	mov    rdx,QWORD PTR [rbx+0x108]
    6041:	movsxd rsi,esi
    6044:	add    rsi,r12
    6047:	call   18450 <bdrv_pwrite>
    604c:	cmp    eax,0x200
    6051:	je     5fed <get_cluster_offset.isra.1+0x2ed>
    6053:	mov    r12,0xffffffffffffffff
    605a:	jmp    5d5e <get_cluster_offset.isra.1+0x5e>
    605f:	nop
    6060:	test   r15d,r15d
    6063:	je     5d5b <get_cluster_offset.isra.1+0x5b>
    6069:	mov    rdi,QWORD PTR [rbx]
    606c:	call   18500 <bdrv_getlength>
    6071:	mov    rcx,rax
    6074:	cmp    r15d,0x1
    6078:	je     5f2d <get_cluster_offset.isra.1+0x22d>
    607e:	movsxd r14,DWORD PTR [rsp+0x10]
    6083:	mov    ecx,0x3f
    6088:	sub    ecx,DWORD PTR [rbx+0x8]
    608b:	shl    r14,cl
    608e:	or     r14,rax
    6091:	bts    r14,0x3f
    6096:	mov    r12,r14
    6099:	mov    rax,r12
    609c:	mov    rsi,QWORD PTR [rsp+0x18]
    60a1:	lea    rdx,[rsp+0x30]
    60a6:	mov    ecx,0x8
    60ab:	bswap  rax
    60ae:	mov    QWORD PTR [rsp+0x30],rax
    60b3:	mov    QWORD PTR [r13+0x0],rax
    60b7:	mov    rdi,QWORD PTR [rbx]
    60ba:	add    rsi,rbp
    60bd:	call   18450 <bdrv_pwrite>
    60c2:	cmp    eax,0x8
    60c5:	jne    5d5b <get_cluster_offset.isra.1+0x5b>
    60cb:	jmp    5d5e <get_cluster_offset.isra.1+0x5e>
    60d0:	shl    rdx,0x3
    60d4:	xor    esi,esi
    60d6:	mov    rdi,r13
    60d9:	call   3240 <memset@plt>
    60de:	mov    eax,DWORD PTR [rbx+0x18]
    60e1:	mov    rdi,QWORD PTR [rbx]
    60e4:	mov    rdx,r13
    60e7:	mov    rsi,rbp
    60ea:	lea    ecx,[rax*8+0x0]
    60f1:	call   18450 <bdrv_pwrite>
    60f6:	jmp    5e03 <get_cluster_offset.isra.1+0x103>
    60fb:	nop    DWORD PTR [rax+rax*1+0x0]
    6100:	lea    rax,[rbx+0xc0]
    6107:	lea    rcx,[rbx+0x100]
    610e:	xchg   ax,ax
    6110:	shr    DWORD PTR [rax],1
    6112:	add    rax,0x4
    6116:	cmp    rcx,rax
    6119:	jne    6110 <get_cluster_offset.isra.1+0x410>
    611b:	jmp    5ebe <get_cluster_offset.isra.1+0x1be>
    6120:	mov    rsi,r12
    6123:	mov    rdi,rbx
    6126:	call   5ad0 <decompress_cluster>
    612b:	test   eax,eax
    612d:	js     5d5b <get_cluster_offset.isra.1+0x5b>
    6133:	mov    rdi,QWORD PTR [rbx]
    6136:	call   18500 <bdrv_getlength>
    613b:	movsxd rdx,DWORD PTR [rbx+0xc]
    613f:	mov    rdi,QWORD PTR [rbx]
    6142:	mov    r12d,edx
    6145:	lea    rax,[rax+rdx*1-0x1]
    614a:	mov    rcx,rdx
    614d:	mov    rdx,QWORD PTR [rbx+0x100]
    6154:	neg    r12d
    6157:	movsxd r12,r12d
    615a:	and    r12,rax
    615d:	mov    rsi,r12
    6160:	call   18450 <bdrv_pwrite>
    6165:	cmp    eax,DWORD PTR [rbx+0xc]
    6168:	je     6099 <get_cluster_offset.isra.1+0x399>
    616e:	jmp    6053 <get_cluster_offset.isra.1+0x353>
    6173:	mov    rbp,QWORD PTR [rsp+0x28]
    6178:	jmp    6099 <get_cluster_offset.isra.1+0x399>
    617d:	call   3190 <__stack_chk_fail@plt>
    6182:	data16 nop WORD PTR cs:[rax+rax*1+0x0]
    618d:	nop    DWORD PTR [rax]

0000000000006190 <qcow_write_compressed>:
    6190:	push   r15
    6192:	push   r14
    6194:	push   r13
    6196:	push   r12
    6198:	mov    r12,rsi
    619b:	push   rbp
    619c:	push   rbx
    619d:	sub    rsp,0xb8
    61a4:	mov    rbx,QWORD PTR [rdi+0x40]
    61a8:	mov    QWORD PTR [rsp+0x8],rdi
    61ad:	mov    rsi,QWORD PTR fs:0x28
    61b6:	mov    QWORD PTR [rsp+0xa8],rsi
    61be:	xor    esi,esi
    61c0:	cmp    DWORD PTR [rbx+0x10],ecx
    61c3:	jne    6468 <qcow_write_compressed+0x2d8>
    61c9:	mov    ecx,DWORD PTR [rbx+0xc]
    61cc:	mov    r13,rdx
    61cf:	mov    edx,0x10624dd3
    61d4:	mov    eax,ecx
    61d6:	imul   edx
    61d8:	mov    eax,ecx
    61da:	sar    eax,0x1f
    61dd:	sar    edx,0x6
    61e0:	sub    edx,eax
    61e2:	lea    edi,[rcx+rdx*1+0x80]
    61e9:	movsxd rdi,edi
    61ec:	call   4cb0 <qemu_malloc>
    61f1:	mov    r14,rax
    61f4:	test   rax,rax
    61f7:	je     6495 <qcow_write_compressed+0x305>
    61fd:	lea    r15,[rsp+0x30]
    6202:	xor    eax,eax
    6204:	mov    ecx,0xe
    6209:	xor    r9d,r9d
    620c:	mov    rdi,r15
    620f:	mov    esi,0xffffffff
    6214:	mov    r8d,0x9
    621a:	mov    edx,0x8
    621f:	rep stos QWORD PTR es:[rdi],rax
    6222:	lea    rax,[rip+0x166fe]        # 1c927 <__PRETTY_FUNCTION__.13430+0x8f>
    6229:	push   0x70
    622b:	mov    rdi,r15
    622e:	push   rax
    622f:	mov    ecx,0xfffffff4
    6234:	call   32a0 <deflateInit2_@plt>
    6239:	mov    DWORD PTR [rsp+0x24],eax
    623d:	pop    rcx
    623e:	pop    rsi
    623f:	test   eax,eax
    6241:	jne    6450 <qcow_write_compressed+0x2c0>
    6247:	mov    eax,DWORD PTR [rbx+0xc]
    624a:	mov    esi,0x4
    624f:	mov    rdi,r15
    6252:	mov    QWORD PTR [rsp+0x30],r13
    6257:	mov    QWORD PTR [rsp+0x48],r14
    625c:	mov    DWORD PTR [rsp+0x38],eax
    6260:	mov    DWORD PTR [rsp+0x50],eax
    6264:	call   3230 <deflate@plt>
    6269:	mov    ebp,eax
    626b:	cmp    eax,0x1
    626e:	ja     6478 <qcow_write_compressed+0x2e8>
    6274:	mov    rax,QWORD PTR [rsp+0x48]
    6279:	mov    rdi,r15
    627c:	mov    QWORD PTR [rsp+0x18],rax
    6281:	call   3490 <deflateEnd@plt>
    6286:	cmp    ebp,0x1
    6289:	jne    63e8 <qcow_write_compressed+0x258>
    628f:	mov    rbp,QWORD PTR [rsp+0x18]
    6294:	mov    rax,QWORD PTR [rsp+0x8]
    6299:	sub    rbp,r14
    629c:	mov    r15,QWORD PTR [rax+0x40]
    62a0:	cmp    DWORD PTR [rbx+0xc],ebp
    62a3:	jg     6418 <qcow_write_compressed+0x288>
    62a9:	mov    ebp,DWORD PTR [rbx+0x10]
    62ac:	test   ebp,ebp
    62ae:	jle    6408 <qcow_write_compressed+0x278>
    62b4:	lea    rax,[r15+0x120]
    62bb:	mov    QWORD PTR [rsp+0x28],r14
    62c0:	mov    rdi,r15
    62c3:	mov    r14,r15
    62c6:	mov    QWORD PTR [rsp+0x20],rax
    62cb:	jmp    6335 <qcow_write_compressed+0x1a5>
    62cd:	nop    DWORD PTR [rax]
    62d0:	mov    rsi,QWORD PTR [r14+0x108]
    62d7:	mov    ecx,ebx
    62d9:	mov    rdx,r13
    62dc:	mov    rdi,r12
    62df:	mov    r9,QWORD PTR [rsp+0x20]
    62e4:	mov    r8d,0x1
    62ea:	mov    QWORD PTR [rsp+0x18],rax
    62ef:	call   5a20 <encrypt_sectors.isra.0>
    62f4:	mov    rax,QWORD PTR [rsp+0x18]
    62f9:	mov    rdi,QWORD PTR [r14]
    62fc:	mov    ecx,r15d
    62ff:	mov    rdx,QWORD PTR [r14+0x108]
    6306:	mov    rsi,rax
    6309:	call   18450 <bdrv_pwrite>
    630e:	cmp    eax,r15d
    6311:	jne    63ab <qcow_write_compressed+0x21b>
    6317:	sub    ebp,ebx
    6319:	cdqe   
    631b:	movsxd rbx,ebx
    631e:	add    r12,rbx
    6321:	add    r13,rax
    6324:	test   ebp,ebp
    6326:	jle    6400 <qcow_write_compressed+0x270>
    632c:	mov    rax,QWORD PTR [rsp+0x8]
    6331:	mov    rdi,QWORD PTR [rax+0x40]
    6335:	mov    ebx,DWORD PTR [r14+0x10]
    6339:	mov    rsi,r12
    633c:	mov    edx,0x1
    6341:	lea    r10d,[rbx-0x1]
    6345:	and    r10d,r12d
    6348:	sub    ebx,r10d
    634b:	mov    r8d,r10d
    634e:	mov    DWORD PTR [rsp+0x18],r10d
    6353:	cmp    ebx,ebp
    6355:	cmovg  ebx,ebp
    6358:	shl    rsi,0x9
    635c:	xor    ecx,ecx
    635e:	lea    r9d,[r10+rbx*1]
    6362:	call   5d00 <get_cluster_offset.isra.1>
    6367:	test   rax,rax
    636a:	je     63ab <qcow_write_compressed+0x21b>
    636c:	mov    r10d,DWORD PTR [rsp+0x18]
    6371:	mov    edx,DWORD PTR [r14+0x118]
    6378:	mov    r15d,ebx
    637b:	shl    r15d,0x9
    637f:	shl    r10d,0x9
    6383:	movsxd r10,r10d
    6386:	add    rax,r10
    6389:	test   edx,edx
    638b:	jne    62d0 <qcow_write_compressed+0x140>
    6391:	mov    rdi,QWORD PTR [r14]
    6394:	mov    ecx,r15d
    6397:	mov    rdx,r13
    639a:	mov    rsi,rax
    639d:	call   18450 <bdrv_pwrite>
    63a2:	cmp    eax,r15d
    63a5:	je     6317 <qcow_write_compressed+0x187>
    63ab:	mov    r14,QWORD PTR [rsp+0x28]
    63b0:	mov    rdi,r14
    63b3:	call   4ca0 <qemu_free>
    63b8:	mov    rcx,QWORD PTR [rsp+0xa8]
    63c0:	xor    rcx,QWORD PTR fs:0x28
    63c9:	mov    eax,DWORD PTR [rsp+0x14]
    63cd:	jne    64a2 <qcow_write_compressed+0x312>
    63d3:	add    rsp,0xb8
    63da:	pop    rbx
    63db:	pop    rbp
    63dc:	pop    r12
    63de:	pop    r13
    63e0:	pop    r14
    63e2:	pop    r15
    63e4:	ret    
    63e5:	nop    DWORD PTR [rax]
    63e8:	mov    rax,QWORD PTR [rsp+0x8]
    63ed:	mov    r15,QWORD PTR [rax+0x40]
    63f1:	jmp    62a9 <qcow_write_compressed+0x119>
    63f6:	nop    WORD PTR cs:[rax+rax*1+0x0]
    6400:	mov    r15,r14
    6403:	mov    r14,QWORD PTR [rsp+0x28]
    6408:	mov    QWORD PTR [r15+0x110],0xffffffffffffffff
    6413:	jmp    63b0 <qcow_write_compressed+0x220>
    6415:	nop    DWORD PTR [rax]
    6418:	mov    rsi,r12
    641b:	xor    r9d,r9d
    641e:	xor    r8d,r8d
    6421:	mov    ecx,ebp
    6423:	shl    rsi,0x9
    6427:	mov    edx,0x2
    642c:	mov    rdi,r15
    642f:	call   5d00 <get_cluster_offset.isra.1>
    6434:	mov    rdi,QWORD PTR [rbx]
    6437:	and    rax,QWORD PTR [rbx+0x20]
    643b:	mov    ecx,ebp
    643d:	mov    rsi,rax
    6440:	mov    rdx,r14
    6443:	call   18450 <bdrv_pwrite>
    6448:	cmp    eax,ebp
    644a:	je     63b0 <qcow_write_compressed+0x220>
    6450:	mov    rdi,r14
    6453:	call   4ca0 <qemu_free>
    6458:	mov    DWORD PTR [rsp+0x14],0xffffffff
    6460:	jmp    63b8 <qcow_write_compressed+0x228>
    6465:	nop    DWORD PTR [rax]
    6468:	mov    DWORD PTR [rsp+0x14],0xffffffea
    6470:	jmp    63b8 <qcow_write_compressed+0x228>
    6475:	nop    DWORD PTR [rax]
    6478:	mov    rdi,r14
    647b:	call   4ca0 <qemu_free>
    6480:	mov    rdi,r15
    6483:	call   3490 <deflateEnd@plt>
    6488:	mov    DWORD PTR [rsp+0x14],0xffffffff
    6490:	jmp    63b8 <qcow_write_compressed+0x228>
    6495:	mov    DWORD PTR [rsp+0x14],0xffffffff
    649d:	jmp    63b8 <qcow_write_compressed+0x228>
    64a2:	call   3190 <__stack_chk_fail@plt>
    64a7:	nop    WORD PTR [rax+rax*1+0x0]

00000000000064b0 <qcow_is_allocated>:
    64b0:	push   r13
    64b2:	xor    r9d,r9d
    64b5:	xor    r8d,r8d
    64b8:	push   r12
    64ba:	mov    r12,rcx
    64bd:	xor    ecx,ecx
    64bf:	push   rbp
    64c0:	mov    rbp,rsi
    64c3:	shl    rsi,0x9
    64c7:	push   rbx
    64c8:	mov    ebx,edx
    64ca:	xor    edx,edx
    64cc:	sub    rsp,0x8
    64d0:	mov    r13,QWORD PTR [rdi+0x40]
    64d4:	mov    rdi,r13
    64d7:	call   5d00 <get_cluster_offset.isra.1>
    64dc:	mov    edx,DWORD PTR [r13+0x10]
    64e0:	lea    esi,[rdx-0x1]
    64e3:	and    esi,ebp
    64e5:	sub    edx,esi
    64e7:	cmp    edx,ebx
    64e9:	cmovg  edx,ebx
    64ec:	test   rax,rax
    64ef:	setne  al
    64f2:	mov    DWORD PTR [r12],edx
    64f6:	add    rsp,0x8
    64fa:	movzx  eax,al
    64fd:	pop    rbx
    64fe:	pop    rbp
    64ff:	pop    r12
    6501:	pop    r13
    6503:	ret    
    6504:	data16 nop WORD PTR cs:[rax+rax*1+0x0]
    650f:	nop

0000000000006510 <qcow_aio_write_cb>:
    6510:	push   r14
    6512:	push   r13
    6514:	push   r12
    6516:	push   rbp
    6517:	mov    ebp,esi
    6519:	push   rbx
    651a:	mov    rcx,QWORD PTR [rdi+0x8]
    651e:	mov    rbx,rdi
    6521:	mov    r12,QWORD PTR [rcx+0x40]
    6525:	mov    QWORD PTR [rdi+0x50],0x0
    652d:	test   esi,esi
    652f:	js     6630 <qcow_aio_write_cb+0x120>
    6535:	movsxd rsi,DWORD PTR [rdi+0x3c]
    6539:	mov    edx,DWORD PTR [rdi+0x38]
    653c:	mov    rax,rsi
    653f:	sub    edx,esi
    6541:	add    rsi,QWORD PTR [rdi+0x28]
    6545:	shl    eax,0x9
    6548:	mov    DWORD PTR [rdi+0x38],edx
    654b:	cdqe   
    654d:	mov    QWORD PTR [rdi+0x28],rsi
    6551:	add    QWORD PTR [rdi+0x30],rax
    6555:	test   edx,edx
    6557:	je     65f0 <qcow_aio_write_cb+0xe0>
    655d:	mov    r9d,DWORD PTR [r12+0x10]
    6562:	lea    r13d,[r9-0x1]
    6566:	mov    eax,r9d
    6569:	and    r13d,esi
    656c:	sub    eax,r13d
    656f:	cmp    edx,eax
    6571:	jl     6640 <qcow_aio_write_cb+0x130>
    6577:	mov    DWORD PTR [rdi+0x3c],eax
    657a:	mov    rdi,QWORD PTR [rcx+0x40]
    657e:	shl    rsi,0x9
    6582:	mov    r8d,r13d
    6585:	xor    ecx,ecx
    6587:	mov    edx,0x1
    658c:	call   5d00 <get_cluster_offset.isra.1>
    6591:	mov    r14,rax
    6594:	test   rax,rax
    6597:	je     6680 <qcow_aio_write_cb+0x170>
    659d:	test   eax,0x1ff
    65a2:	jne    6680 <qcow_aio_write_cb+0x170>
    65a8:	mov    eax,DWORD PTR [r12+0x118]
    65b0:	test   eax,eax
    65b2:	jne    6650 <qcow_aio_write_cb+0x140>
    65b8:	mov    rdx,QWORD PTR [rbx+0x30]
    65bc:	mov    ecx,DWORD PTR [rbx+0x3c]
    65bf:	shr    r14,0x9
    65c3:	movsxd rsi,r13d
    65c6:	mov    rdi,QWORD PTR [r12]
    65ca:	add    rsi,r14
    65cd:	mov    r9,rbx
    65d0:	lea    r8,[rip+0xffffffffffffff39]        # 6510 <qcow_aio_write_cb>
    65d7:	call   194e0 <bdrv_aio_write>
    65dc:	mov    QWORD PTR [rbx+0x50],rax
    65e0:	test   rax,rax
    65e3:	je     6630 <qcow_aio_write_cb+0x120>
    65e5:	pop    rbx
    65e6:	pop    rbp
    65e7:	pop    r12
    65e9:	pop    r13
    65eb:	pop    r14
    65ed:	ret    
    65ee:	xchg   ax,ax
    65f0:	mov    rdi,QWORD PTR [rdi+0x18]
    65f4:	xor    esi,esi
    65f6:	call   QWORD PTR [rbx+0x10]
    65f9:	mov    rdi,rbx
    65fc:	pop    rbx
    65fd:	pop    rbp
    65fe:	pop    r12
    6600:	pop    r13
    6602:	pop    r14
    6604:	jmp    19ba0 <qemu_aio_release>
    6609:	nop    DWORD PTR [rax+0x0]
    6610:	movsxd rdi,DWORD PTR [r12+0xc]
    6615:	call   4d00 <qemu_mallocz>
    661a:	mov    rsi,rax
    661d:	mov    QWORD PTR [rbx+0x48],rax
    6621:	test   rax,rax
    6624:	jne    6659 <qcow_aio_write_cb+0x149>
    6626:	mov    ebp,0xfffffff4
    662b:	nop    DWORD PTR [rax+rax*1+0x0]
    6630:	mov    rdi,QWORD PTR [rbx+0x18]
    6634:	mov    esi,ebp
    6636:	jmp    65f6 <qcow_aio_write_cb+0xe6>
    6638:	nop    DWORD PTR [rax+rax*1+0x0]
    6640:	mov    DWORD PTR [rdi+0x3c],edx
    6643:	lea    r9d,[rdx+r13*1]
    6647:	jmp    657a <qcow_aio_write_cb+0x6a>
    664c:	nop    DWORD PTR [rax+0x0]
    6650:	mov    rsi,QWORD PTR [rbx+0x48]
    6654:	test   rsi,rsi
    6657:	je     6610 <qcow_aio_write_cb+0x100>
    6659:	mov    rdx,QWORD PTR [rbx+0x30]
    665d:	mov    ecx,DWORD PTR [rbx+0x3c]
    6660:	lea    r9,[r12+0x120]
    6668:	mov    r8d,0x1
    666e:	mov    rdi,QWORD PTR [rbx+0x28]
    6672:	call   5a20 <encrypt_sectors.isra.0>
    6677:	mov    rdx,QWORD PTR [rbx+0x48]
    667b:	jmp    65bc <qcow_aio_write_cb+0xac>
    6680:	mov    ebp,0xfffffffb
    6685:	mov    rdi,QWORD PTR [rbx+0x18]
    6689:	mov    esi,ebp
    668b:	jmp    65f6 <qcow_aio_write_cb+0xe6>

0000000000006690 <qcow_aio_write>:
    6690:	push   r13
    6692:	mov    r13d,ecx
    6695:	push   r12
    6697:	mov    r12,rsi
    669a:	mov    rsi,r8
    669d:	push   rbp
    669e:	mov    rbp,rdx
    66a1:	mov    rdx,r9
    66a4:	push   rbx
    66a5:	sub    rsp,0x8
    66a9:	mov    rax,QWORD PTR [rdi+0x40]
    66ad:	mov    QWORD PTR [rax+0x110],0xffffffffffffffff
    66b8:	call   199c0 <qemu_aio_get>
    66bd:	mov    rbx,rax
    66c0:	test   rax,rax
    66c3:	je     66ea <qcow_aio_write+0x5a>
    66c5:	mov    QWORD PTR [rax+0x50],0x0
    66cd:	xor    esi,esi
    66cf:	mov    rdi,rax
    66d2:	mov    QWORD PTR [rax+0x28],r12
    66d6:	mov    QWORD PTR [rax+0x30],rbp
    66da:	mov    DWORD PTR [rax+0x38],r13d
    66de:	mov    DWORD PTR [rax+0x3c],0x0
    66e5:	call   6510 <qcow_aio_write_cb>
    66ea:	add    rsp,0x8
    66ee:	mov    rax,rbx
    66f1:	pop    rbx
    66f2:	pop    rbp
    66f3:	pop    r12
    66f5:	pop    r13
    66f7:	ret    
    66f8:	nop    DWORD PTR [rax+rax*1+0x0]

0000000000006700 <qcow_aio_read_cb>:
    6700:	push   r15
    6702:	push   r14
    6704:	push   r13
    6706:	mov    r13d,esi
    6709:	push   r12
    670b:	push   rbp
    670c:	push   rbx
    670d:	mov    rbx,rdi
    6710:	sub    rsp,0x8
    6714:	mov    r12,QWORD PTR [rdi+0x8]
    6718:	mov    rbp,QWORD PTR [r12+0x40]
    671d:	mov    QWORD PTR [rdi+0x50],0x0
    6725:	lea    r14,[rbp+0x214]
    672c:	test   esi,esi
    672e:	js     6850 <qcow_aio_read_cb+0x150>
    6734:	nop    DWORD PTR [rax+0x0]
    6738:	cmp    QWORD PTR [rbx+0x40],0x0
    673d:	mov    ecx,DWORD PTR [rbx+0x3c]
    6740:	mov    rax,QWORD PTR [rbx+0x30]
    6744:	mov    rdi,QWORD PTR [rbx+0x28]
    6748:	jle    6758 <qcow_aio_read_cb+0x58>
    674a:	mov    edx,DWORD PTR [rbp+0x118]
    6750:	test   edx,edx
    6752:	jne    6828 <qcow_aio_read_cb+0x128>
    6758:	mov    edx,DWORD PTR [rbx+0x38]
    675b:	movsxd rsi,ecx
    675e:	add    rsi,rdi
    6761:	sub    edx,ecx
    6763:	shl    ecx,0x9
    6766:	mov    QWORD PTR [rbx+0x28],rsi
    676a:	movsxd rcx,ecx
    676d:	mov    DWORD PTR [rbx+0x38],edx
    6770:	add    rcx,rax
    6773:	mov    QWORD PTR [rbx+0x30],rcx
    6777:	test   edx,edx
    6779:	je     6870 <qcow_aio_read_cb+0x170>
    677f:	mov    rdi,QWORD PTR [r12+0x40]
    6784:	shl    rsi,0x9
    6788:	xor    ecx,ecx
    678a:	xor    edx,edx
    678c:	xor    r9d,r9d
    678f:	xor    r8d,r8d
    6792:	call   5d00 <get_cluster_offset.isra.1>
    6797:	mov    rsi,QWORD PTR [rbx+0x28]
    679b:	mov    edx,DWORD PTR [rbx+0x38]
    679e:	mov    QWORD PTR [rbx+0x40],rax
    67a2:	mov    ecx,DWORD PTR [rbp+0x10]
    67a5:	lea    r15d,[rcx-0x1]
    67a9:	and    r15d,esi
    67ac:	sub    ecx,r15d
    67af:	cmp    ecx,edx
    67b1:	cmovg  ecx,edx
    67b4:	mov    DWORD PTR [rbx+0x3c],ecx
    67b7:	test   rax,rax
    67ba:	jne    67e8 <qcow_aio_read_cb+0xe8>
    67bc:	mov    rax,QWORD PTR [r12+0x850]
    67c4:	mov    rdi,QWORD PTR [rbx+0x30]
    67c8:	test   rax,rax
    67cb:	jne    68c0 <qcow_aio_read_cb+0x1c0>
    67d1:	shl    ecx,0x9
    67d4:	xor    esi,esi
    67d6:	movsxd rdx,ecx
    67d9:	call   3240 <memset@plt>
    67de:	jmp    6738 <qcow_aio_read_cb+0x38>
    67e3:	nop    DWORD PTR [rax+rax*1+0x0]
    67e8:	jns    6880 <qcow_aio_read_cb+0x180>
    67ee:	mov    rsi,rax
    67f1:	mov    rdi,rbp
    67f4:	call   5ad0 <decompress_cluster>
    67f9:	test   eax,eax
    67fb:	js     6850 <qcow_aio_read_cb+0x150>
    67fd:	mov    edx,DWORD PTR [rbx+0x3c]
    6800:	shl    r15d,0x9
    6804:	mov    rdi,QWORD PTR [rbx+0x30]
    6808:	movsxd rsi,r15d
    680b:	add    rsi,QWORD PTR [rbp+0x100]
    6812:	shl    edx,0x9
    6815:	movsxd rdx,edx
    6818:	call   33b0 <memcpy@plt>
    681d:	jmp    6738 <qcow_aio_read_cb+0x38>
    6822:	nop    WORD PTR [rax+rax*1+0x0]
    6828:	mov    rdx,rax
    682b:	mov    rsi,rax
    682e:	mov    r9,r14
    6831:	xor    r8d,r8d
    6834:	call   5a20 <encrypt_sectors.isra.0>
    6839:	mov    ecx,DWORD PTR [rbx+0x3c]
    683c:	mov    rdi,QWORD PTR [rbx+0x28]
    6840:	mov    rax,QWORD PTR [rbx+0x30]
    6844:	jmp    6758 <qcow_aio_read_cb+0x58>
    6849:	mov    r13d,0xfffffffb
    684f:	nop
    6850:	mov    rdi,QWORD PTR [rbx+0x18]
    6854:	mov    esi,r13d
    6857:	call   QWORD PTR [rbx+0x10]
    685a:	add    rsp,0x8
    685e:	mov    rdi,rbx
    6861:	pop    rbx
    6862:	pop    rbp
    6863:	pop    r12
    6865:	pop    r13
    6867:	pop    r14
    6869:	pop    r15
    686b:	jmp    19ba0 <qemu_aio_release>
    6870:	mov    rdi,QWORD PTR [rbx+0x18]
    6874:	xor    esi,esi
    6876:	jmp    6857 <qcow_aio_read_cb+0x157>
    6878:	nop    DWORD PTR [rax+rax*1+0x0]
    6880:	test   eax,0x1ff
    6885:	jne    6849 <qcow_aio_read_cb+0x149>
    6887:	shr    rax,0x9
    688b:	mov    rdx,QWORD PTR [rbx+0x30]
    688f:	movsxd rsi,r15d
    6892:	mov    rdi,QWORD PTR [rbp+0x0]
    6896:	add    rsi,rax
    6899:	mov    r9,rbx
    689c:	lea    r8,[rip+0xfffffffffffffe5d]        # 6700 <qcow_aio_read_cb>
    68a3:	call   193b0 <bdrv_aio_read>
    68a8:	mov    QWORD PTR [rbx+0x50],rax
    68ac:	test   rax,rax
    68af:	je     6850 <qcow_aio_read_cb+0x150>
    68b1:	add    rsp,0x8
    68b5:	pop    rbx
    68b6:	pop    rbp
    68b7:	pop    r12
    68b9:	pop    r13
    68bb:	pop    r14
    68bd:	pop    r15
    68bf:	ret    
    68c0:	mov    rdx,rdi
    68c3:	mov    r9,rbx
    68c6:	lea    r8,[rip+0xfffffffffffffe33]        # 6700 <qcow_aio_read_cb>
    68cd:	mov    rdi,rax
    68d0:	call   193b0 <bdrv_aio_read>
    68d5:	mov    QWORD PTR [rbx+0x50],rax
    68d9:	test   rax,rax
    68dc:	je     6850 <qcow_aio_read_cb+0x150>
    68e2:	add    rsp,0x8
    68e6:	pop    rbx
    68e7:	pop    rbp
    68e8:	pop    r12
    68ea:	pop    r13
    68ec:	pop    r14
    68ee:	pop    r15
    68f0:	ret    
    68f1:	data16 nop WORD PTR cs:[rax+rax*1+0x0]
    68fc:	nop    DWORD PTR [rax+0x0]

0000000000006900 <qcow_aio_read>:
    6900:	push   r13
    6902:	mov    r13d,ecx
    6905:	push   r12
    6907:	mov    r12,rsi
    690a:	mov    rsi,r8
    690d:	push   rbp
    690e:	mov    rbp,rdx
    6911:	mov    rdx,r9
    6914:	push   rbx
    6915:	sub    rsp,0x8
    6919:	call   199c0 <qemu_aio_get>
    691e:	mov    rbx,rax
    6921:	test   rax,rax
    6924:	je     6953 <qcow_aio_read+0x53>
    6926:	mov    QWORD PTR [rax+0x50],0x0
    692e:	xor    esi,esi
    6930:	mov    rdi,rax
    6933:	mov    QWORD PTR [rax+0x28],r12
    6937:	mov    QWORD PTR [rax+0x30],rbp
    693b:	mov    DWORD PTR [rax+0x38],r13d
    693f:	mov    DWORD PTR [rax+0x3c],0x0
    6946:	mov    QWORD PTR [rax+0x40],0x0
    694e:	call   6700 <qcow_aio_read_cb>
    6953:	add    rsp,0x8
    6957:	mov    rax,rbx
    695a:	pop    rbx
    695b:	pop    rbp
    695c:	pop    r12
    695e:	pop    r13
    6960:	ret    
    6961:	data16 nop WORD PTR cs:[rax+rax*1+0x0]
    696c:	nop    DWORD PTR [rax+0x0]

0000000000006970 <qcow_probe>:
    6970:	xor    eax,eax
    6972:	cmp    esi,0x2f
    6975:	ja     6980 <qcow_probe+0x10>
    6977:	ret    
    6978:	nop    DWORD PTR [rax+rax*1+0x0]
    6980:	cmp    DWORD PTR [rdi],0xfb494651
    6986:	jne    6977 <qcow_probe+0x7>
    6988:	cmp    DWORD PTR [rdi+0x4],0x1000000
    698f:	mov    edx,0x64
    6994:	cmove  eax,edx
    6997:	ret    
    6998:	nop    DWORD PTR [rax+rax*1+0x0]

00000000000069a0 <qcow_create>:
    69a0:	push   r15
    69a2:	mov    r15,rdx
    69a5:	mov    edx,0x1a4
    69aa:	push   r14
    69ac:	push   r13
    69ae:	push   r12
    69b0:	push   rbp
    69b1:	push   rbx
    69b2:	mov    rbx,rsi
    69b5:	mov    esi,0x241
    69ba:	sub    rsp,0x68
    69be:	mov    DWORD PTR [rsp+0x4],ecx
    69c2:	mov    rax,QWORD PTR fs:0x28
    69cb:	mov    QWORD PTR [rsp+0x58],rax
    69d0:	xor    eax,eax
    69d2:	call   3500 <open64@plt>
    69d7:	test   eax,eax
    69d9:	js     6bb1 <qcow_create+0x211>
    69df:	mov    ebp,eax
    69e1:	shl    rbx,0x9
    69e5:	lea    r9,[rsp+0x20]
    69ea:	pxor   xmm0,xmm0
    69ee:	movabs rax,0x1000000fb494651
    69f8:	movups XMMWORD PTR [rsp+0x28],xmm0
    69fd:	mov    QWORD PTR [rsp+0x20],rax
    6a02:	mov    rax,rbx
    6a05:	movups XMMWORD PTR [r9+0x18],xmm0
    6a0a:	bswap  rax
    6a0d:	mov    QWORD PTR [r9+0x28],0x0
    6a15:	mov    QWORD PTR [rsp+0x38],rax
    6a1a:	test   r15,r15
    6a1d:	je     6b90 <qcow_create+0x1f0>
    6a23:	mov    ecx,0x5
    6a28:	lea    rdi,[rip+0x15eff]        # 1c92e <__PRETTY_FUNCTION__.13430+0x96>
    6a2f:	mov    rsi,r15
    6a32:	repz cmps BYTE PTR ds:[rsi],BYTE PTR es:[rdi]
    6a34:	seta   dl
    6a37:	sbb    dl,0x0
    6a3a:	movsx  ecx,dl
    6a3d:	test   ecx,ecx
    6a3f:	jne    6b40 <qcow_create+0x1a0>
    6a45:	movabs rax,0x3000000000000000
    6a4f:	mov    r12d,0x30
    6a55:	xor    r15d,r15d
    6a58:	mov    edx,0xc09
    6a5d:	mov    WORD PTR [rsp+0x40],dx
    6a62:	lea    r13,[rbx+0x1fffff]
    6a69:	mov    QWORD PTR [rsp+0x48],rax
    6a6e:	sar    r13,0x15
    6a72:	mov    r14d,r13d
    6a75:	test   BYTE PTR [rsp+0x4],0x1
    6a7a:	je     6a84 <qcow_create+0xe4>
    6a7c:	mov    DWORD PTR [rsp+0x44],0x1000000
    6a84:	mov    edx,0x30
    6a89:	mov    rsi,r9
    6a8c:	mov    edi,ebp
    6a8e:	mov    DWORD PTR [rsp+0x4],ecx
    6a92:	call   46d0 <qemu_write_ok>
    6a97:	test   eax,eax
    6a99:	js     6aff <qcow_create+0x15f>
    6a9b:	test   r15,r15
    6a9e:	mov    ecx,DWORD PTR [rsp+0x4]
    6aa2:	je     6ab5 <qcow_create+0x115>
    6aa4:	movsxd rdx,ecx
    6aa7:	mov    rsi,r15
    6aaa:	mov    edi,ebp
    6aac:	call   46d0 <qemu_write_ok>
    6ab1:	test   eax,eax
    6ab3:	js     6aff <qcow_create+0x15f>
    6ab5:	movsxd rsi,r12d
    6ab8:	xor    edx,edx
    6aba:	mov    edi,ebp
    6abc:	xor    ebx,ebx
    6abe:	call   3620 <lseek64@plt>
    6ac3:	lea    r12,[rsp+0x18]
    6ac8:	mov    QWORD PTR [rsp+0x18],0x0
    6ad1:	test   r13d,r13d
    6ad4:	jg     6aec <qcow_create+0x14c>
    6ad6:	jmp    6b80 <qcow_create+0x1e0>
    6adb:	nop    DWORD PTR [rax+rax*1+0x0]
    6ae0:	add    ebx,0x1
    6ae3:	cmp    r14d,ebx
    6ae6:	je     6b80 <qcow_create+0x1e0>
    6aec:	mov    edx,0x8
    6af1:	mov    rsi,r12
    6af4:	mov    edi,ebp
    6af6:	call   46d0 <qemu_write_ok>
    6afb:	test   eax,eax
    6afd:	jns    6ae0 <qcow_create+0x140>
    6aff:	call   30b0 <__errno_location@plt>
    6b04:	mov    edi,ebp
    6b06:	mov    r12d,DWORD PTR [rax]
    6b09:	mov    rbx,rax
    6b0c:	call   3260 <close@plt>
    6b11:	mov    eax,0xffffffff
    6b16:	mov    DWORD PTR [rbx],r12d
    6b19:	mov    rcx,QWORD PTR [rsp+0x58]
    6b1e:	xor    rcx,QWORD PTR fs:0x28
    6b27:	jne    6bbb <qcow_create+0x21b>
    6b2d:	add    rsp,0x68
    6b31:	pop    rbx
    6b32:	pop    rbp
    6b33:	pop    r12
    6b35:	pop    r13
    6b37:	pop    r14
    6b39:	pop    r15
    6b3b:	ret    
    6b3c:	nop    DWORD PTR [rax+0x0]
    6b40:	movabs rax,0x3000000000000000
    6b4a:	mov    rdi,r15
    6b4d:	mov    QWORD PTR [rsp+0x8],r9
    6b52:	mov    QWORD PTR [rsp+0x28],rax
    6b57:	call   3180 <strlen@plt>
    6b5c:	mov    r9,QWORD PTR [rsp+0x8]
    6b61:	lea    r12d,[rax+0x37]
    6b65:	mov    edx,eax
    6b67:	mov    ecx,eax
    6b69:	and    r12d,0xfffffff8
    6b6d:	bswap  edx
    6b6f:	mov    DWORD PTR [rsp+0x30],edx
    6b73:	movsxd rax,r12d
    6b76:	bswap  rax
    6b79:	jmp    6a58 <qcow_create+0xb8>
    6b7e:	xchg   ax,ax
    6b80:	mov    edi,ebp
    6b82:	call   3260 <close@plt>
    6b87:	xor    eax,eax
    6b89:	jmp    6b19 <qcow_create+0x179>
    6b8b:	nop    DWORD PTR [rax+rax*1+0x0]
    6b90:	mov    eax,0x90c
    6b95:	mov    r12d,0x30
    6b9b:	xor    ecx,ecx
    6b9d:	mov    WORD PTR [rsp+0x40],ax
    6ba2:	movabs rax,0x3000000000000000
    6bac:	jmp    6a62 <qcow_create+0xc2>
    6bb1:	mov    eax,0xffffffff
    6bb6:	jmp    6b19 <qcow_create+0x179>
    6bbb:	call   3190 <__stack_chk_fail@plt>

0000000000006bc0 <AES_set_encrypt_key>:
    6bc0:	test   rdi,rdi
    6bc3:	je     6fd9 <AES_set_encrypt_key+0x419>
    6bc9:	test   rdx,rdx
    6bcc:	je     6fd9 <AES_set_encrypt_key+0x419>
    6bd2:	mov    eax,esi
    6bd4:	and    eax,0xffffffbf
    6bd7:	cmp    eax,0x80
    6bdc:	jne    6d60 <AES_set_encrypt_key+0x1a0>
    6be2:	cmp    esi,0x80
    6be8:	jne    6d80 <AES_set_encrypt_key+0x1c0>
    6bee:	mov    DWORD PTR [rdx+0xf0],0xa
    6bf8:	push   r14
    6bfa:	push   r12
    6bfc:	push   rbp
    6bfd:	push   rbx
    6bfe:	movzx  eax,BYTE PTR [rdi]
    6c01:	movzx  r8d,BYTE PTR [rdi+0x1]
    6c06:	shl    eax,0x18
    6c09:	shl    r8d,0x10
    6c0d:	xor    eax,r8d
    6c10:	movzx  r8d,BYTE PTR [rdi+0x3]
    6c15:	xor    eax,r8d
    6c18:	movzx  r8d,BYTE PTR [rdi+0x2]
    6c1d:	shl    r8d,0x8
    6c21:	xor    r8d,eax
    6c24:	mov    DWORD PTR [rdx],r8d
    6c27:	movzx  r9d,BYTE PTR [rdi+0x4]
    6c2c:	movzx  eax,BYTE PTR [rdi+0x5]
    6c30:	shl    r9d,0x18
    6c34:	shl    eax,0x10
    6c37:	xor    r9d,eax
    6c3a:	movzx  eax,BYTE PTR [rdi+0x7]
    6c3e:	xor    r9d,eax
    6c41:	movzx  eax,BYTE PTR [rdi+0x6]
    6c45:	shl    eax,0x8
    6c48:	xor    r9d,eax
    6c4b:	mov    DWORD PTR [rdx+0x4],r9d
    6c4f:	movzx  r10d,BYTE PTR [rdi+0x8]
    6c54:	movzx  eax,BYTE PTR [rdi+0x9]
    6c58:	shl    r10d,0x18
    6c5c:	shl    eax,0x10
    6c5f:	xor    r10d,eax
    6c62:	movzx  eax,BYTE PTR [rdi+0xb]
    6c66:	xor    r10d,eax
    6c69:	movzx  eax,BYTE PTR [rdi+0xa]
    6c6d:	shl    eax,0x8
    6c70:	xor    r10d,eax
    6c73:	mov    DWORD PTR [rdx+0x8],r10d
    6c77:	movzx  ecx,BYTE PTR [rdi+0xc]
    6c7b:	movzx  eax,BYTE PTR [rdi+0xd]
    6c7f:	shl    ecx,0x18
    6c82:	shl    eax,0x10
    6c85:	xor    ecx,eax
    6c87:	movzx  eax,BYTE PTR [rdi+0xf]
    6c8b:	xor    ecx,eax
    6c8d:	movzx  eax,BYTE PTR [rdi+0xe]
    6c91:	shl    eax,0x8
    6c94:	xor    ecx,eax
    6c96:	mov    DWORD PTR [rdx+0xc],ecx
    6c99:	cmp    esi,0x80
    6c9f:	je     6da0 <AES_set_encrypt_key+0x1e0>
    6ca5:	movzx  eax,BYTE PTR [rdi+0x10]
    6ca9:	movzx  r11d,BYTE PTR [rdi+0x11]
    6cae:	shl    eax,0x18
    6cb1:	shl    r11d,0x10
    6cb5:	xor    eax,r11d
    6cb8:	movzx  r11d,BYTE PTR [rdi+0x13]
    6cbd:	xor    eax,r11d
    6cc0:	movzx  r11d,BYTE PTR [rdi+0x12]
    6cc5:	shl    r11d,0x8
    6cc9:	xor    eax,r11d
    6ccc:	mov    DWORD PTR [rdx+0x10],eax
    6ccf:	movzx  ebx,BYTE PTR [rdi+0x14]
    6cd3:	movzx  eax,BYTE PTR [rdi+0x15]
    6cd7:	shl    ebx,0x18
    6cda:	shl    eax,0x10
    6cdd:	xor    ebx,eax
    6cdf:	movzx  eax,BYTE PTR [rdi+0x17]
    6ce3:	xor    ebx,eax
    6ce5:	movzx  eax,BYTE PTR [rdi+0x16]
    6ce9:	shl    eax,0x8
    6cec:	xor    ebx,eax
    6cee:	mov    DWORD PTR [rdx+0x14],ebx
    6cf1:	cmp    esi,0xc0
    6cf7:	je     6e30 <AES_set_encrypt_key+0x270>
    6cfd:	movzx  eax,BYTE PTR [rdi+0x18]
    6d01:	movzx  r11d,BYTE PTR [rdi+0x19]
    6d06:	shl    eax,0x18
    6d09:	shl    r11d,0x10
    6d0d:	xor    eax,r11d
    6d10:	movzx  r11d,BYTE PTR [rdi+0x1b]
    6d15:	xor    eax,r11d
    6d18:	movzx  r11d,BYTE PTR [rdi+0x1a]
    6d1d:	shl    r11d,0x8
    6d21:	xor    eax,r11d
    6d24:	mov    DWORD PTR [rdx+0x18],eax
    6d27:	movzx  ebx,BYTE PTR [rdi+0x1c]
    6d2b:	movzx  eax,BYTE PTR [rdi+0x1d]
    6d2f:	shl    ebx,0x18
    6d32:	shl    eax,0x10
    6d35:	xor    ebx,eax
    6d37:	movzx  eax,BYTE PTR [rdi+0x1f]
    6d3b:	xor    ebx,eax
    6d3d:	movzx  eax,BYTE PTR [rdi+0x1e]
    6d41:	shl    eax,0x8
    6d44:	xor    ebx,eax
    6d46:	mov    DWORD PTR [rdx+0x1c],ebx
    6d49:	cmp    esi,0x100
    6d4f:	je     6ee0 <AES_set_encrypt_key+0x320>
    6d55:	pop    rbx
    6d56:	xor    eax,eax
    6d58:	pop    rbp
    6d59:	pop    r12
    6d5b:	pop    r14
    6d5d:	ret    
    6d5e:	xchg   ax,ax
    6d60:	cmp    esi,0x100
    6d66:	jne    6fdf <AES_set_encrypt_key+0x41f>
    6d6c:	mov    DWORD PTR [rdx+0xf0],0xe
    6d76:	jmp    6bf8 <AES_set_encrypt_key+0x38>
    6d7b:	nop    DWORD PTR [rax+rax*1+0x0]
    6d80:	cmp    esi,0xc0
    6d86:	jne    6d6c <AES_set_encrypt_key+0x1ac>
    6d88:	mov    DWORD PTR [rdx+0xf0],0xc
    6d92:	jmp    6bf8 <AES_set_encrypt_key+0x38>
    6d97:	nop    WORD PTR [rax+rax*1+0x0]
    6da0:	lea    rdi,[rip+0x15b9d]        # 1c944 <rcon+0x4>
    6da7:	add    rdx,0x10
    6dab:	mov    r11d,0x1000000
    6db1:	lea    rbx,[rdi+0x24]
    6db5:	lea    rsi,[rip+0x16fc4]        # 1dd80 <Te4>
    6dbc:	jmp    6dcb <AES_set_encrypt_key+0x20b>
    6dbe:	xchg   ax,ax
    6dc0:	mov    r11d,DWORD PTR [rdi]
    6dc3:	add    rdx,0x10
    6dc7:	add    rdi,0x4
    6dcb:	movzx  eax,cl
    6dce:	mov    ebp,ecx
    6dd0:	mov    eax,DWORD PTR [rsi+rax*4]
    6dd3:	shr    ebp,0x18
    6dd6:	movzx  ebp,BYTE PTR [rsi+rbp*4]
    6dda:	and    eax,0xff00
    6ddf:	or     eax,ebp
    6de1:	mov    ebp,ecx
    6de3:	shr    ebp,0x10
    6de6:	movzx  ebp,bpl
    6dea:	mov    ebp,DWORD PTR [rsi+rbp*4]
    6ded:	and    ebp,0xff000000
    6df3:	xor    eax,ebp
    6df5:	movzx  ebp,ch
    6df8:	mov    ebp,DWORD PTR [rsi+rbp*4]
    6dfb:	and    ebp,0xff0000
    6e01:	xor    eax,ebp
    6e03:	xor    eax,r8d
    6e06:	xor    eax,r11d
    6e09:	xor    r9d,eax
    6e0c:	mov    r8d,eax
    6e0f:	mov    DWORD PTR [rdx],eax
    6e11:	xor    r10d,r9d
    6e14:	mov    DWORD PTR [rdx+0x4],r9d
    6e18:	xor    ecx,r10d
    6e1b:	mov    DWORD PTR [rdx+0x8],r10d
    6e1f:	mov    DWORD PTR [rdx+0xc],ecx
    6e22:	cmp    rbx,rdi
    6e25:	jne    6dc0 <AES_set_encrypt_key+0x200>
    6e27:	pop    rbx
    6e28:	xor    eax,eax
    6e2a:	pop    rbp
    6e2b:	pop    r12
    6e2d:	pop    r14
    6e2f:	ret    
    6e30:	lea    rdi,[rip+0x15b09]        # 1c940 <rcon>
    6e37:	add    rdx,0x18
    6e3b:	mov    r11d,0x1000000
    6e41:	lea    r14,[rdi+0x20]
    6e45:	lea    rsi,[rip+0x16f34]        # 1dd80 <Te4>
    6e4c:	jmp    6e64 <AES_set_encrypt_key+0x2a4>
    6e4e:	xchg   ax,ax
    6e50:	mov    eax,DWORD PTR [rdx-0x8]
    6e53:	add    rdx,0x18
    6e57:	xor    eax,ecx
    6e59:	xor    ebx,eax
    6e5b:	mov    DWORD PTR [rdx-0x8],eax
    6e5e:	mov    DWORD PTR [rdx-0x4],ebx
    6e61:	mov    r11d,DWORD PTR [rdi]
    6e64:	movzx  eax,bl
    6e67:	mov    r12d,ebx
    6e6a:	movzx  ebp,bh
    6e6d:	add    rdi,0x4
    6e71:	mov    eax,DWORD PTR [rsi+rax*4]
    6e74:	shr    r12d,0x18
    6e78:	movzx  r12d,BYTE PTR [rsi+r12*4]
    6e7d:	and    eax,0xff00
    6e82:	or     eax,r12d
    6e85:	mov    r12d,ebx
    6e88:	shr    r12d,0x10
    6e8c:	movzx  r12d,r12b
    6e90:	mov    r12d,DWORD PTR [rsi+r12*4]
    6e94:	and    r12d,0xff000000
    6e9b:	xor    eax,r12d
    6e9e:	mov    r12d,DWORD PTR [rsi+rbp*4]
    6ea2:	and    r12d,0xff0000
    6ea9:	xor    eax,r12d
    6eac:	xor    eax,r8d
    6eaf:	xor    eax,r11d
    6eb2:	xor    r9d,eax
    6eb5:	mov    r8d,eax
    6eb8:	mov    DWORD PTR [rdx],eax
    6eba:	xor    r10d,r9d
    6ebd:	mov    DWORD PTR [rdx+0x4],r9d
    6ec1:	xor    ecx,r10d
    6ec4:	mov    DWORD PTR [rdx+0x8],r10d
    6ec8:	mov    DWORD PTR [rdx+0xc],ecx
    6ecb:	cmp    r14,rdi
    6ece:	jne    6e50 <AES_set_encrypt_key+0x290>
    6ed0:	pop    rbx
    6ed1:	xor    eax,eax
    6ed3:	pop    rbp
    6ed4:	pop    r12
    6ed6:	pop    r14
    6ed8:	ret    
    6ed9:	nop    DWORD PTR [rax+0x0]
    6ee0:	lea    rdi,[rip+0x15a59]        # 1c940 <rcon>
    6ee7:	add    rdx,0x20
    6eeb:	mov    r11d,0x1000000
    6ef1:	lea    r14,[rdi+0x1c]
    6ef5:	lea    rsi,[rip+0x16e84]        # 1dd80 <Te4>
    6efc:	jmp    6f60 <AES_set_encrypt_key+0x3a0>
    6efe:	xchg   ax,ax
    6f00:	mov    eax,ecx
    6f02:	movzx  ebp,ch
    6f05:	movzx  r12d,cl
    6f09:	add    rdx,0x20
    6f0d:	shr    eax,0x10
    6f10:	mov    r11d,DWORD PTR [rsi+rbp*4]
    6f14:	movzx  r12d,BYTE PTR [rsi+r12*4]
    6f19:	movzx  eax,al
    6f1c:	mov    eax,DWORD PTR [rsi+rax*4]
    6f1f:	and    r11d,0xff00
    6f26:	and    eax,0xff0000
    6f2b:	or     eax,r11d
    6f2e:	mov    r11d,ecx
    6f31:	xor    eax,DWORD PTR [rdx-0x30]
    6f34:	shr    r11d,0x18
    6f38:	mov    r11d,DWORD PTR [rsi+r11*4]
    6f3c:	and    r11d,0xff000000
    6f43:	or     r11d,r12d
    6f46:	xor    eax,r11d
    6f49:	mov    DWORD PTR [rdx-0x10],eax
    6f4c:	xor    eax,DWORD PTR [rdx-0x2c]
    6f4f:	mov    DWORD PTR [rdx-0xc],eax
    6f52:	xor    eax,DWORD PTR [rdx-0x28]
    6f55:	xor    ebx,eax
    6f57:	mov    DWORD PTR [rdx-0x8],eax
    6f5a:	mov    DWORD PTR [rdx-0x4],ebx
    6f5d:	mov    r11d,DWORD PTR [rdi]
    6f60:	movzx  eax,bl
    6f63:	mov    r12d,ebx
    6f66:	movzx  ebp,bh
    6f69:	add    rdi,0x4
    6f6d:	mov    eax,DWORD PTR [rsi+rax*4]
    6f70:	shr    r12d,0x18
    6f74:	movzx  r12d,BYTE PTR [rsi+r12*4]
    6f79:	and    eax,0xff00
    6f7e:	or     eax,r12d
    6f81:	mov    r12d,ebx
    6f84:	shr    r12d,0x10
    6f88:	movzx  r12d,r12b
    6f8c:	mov    r12d,DWORD PTR [rsi+r12*4]
    6f90:	and    r12d,0xff000000
    6f97:	xor    eax,r12d
    6f9a:	mov    r12d,DWORD PTR [rsi+rbp*4]
    6f9e:	and    r12d,0xff0000
    6fa5:	xor    eax,r12d
    6fa8:	xor    eax,r8d
    6fab:	xor    eax,r11d
    6fae:	xor    r9d,eax
    6fb1:	mov    r8d,eax
    6fb4:	mov    DWORD PTR [rdx],eax
    6fb6:	xor    r10d,r9d
    6fb9:	mov    DWORD PTR [rdx+0x4],r9d
    6fbd:	xor    ecx,r10d
    6fc0:	mov    DWORD PTR [rdx+0x8],r10d
    6fc4:	mov    DWORD PTR [rdx+0xc],ecx
    6fc7:	cmp    r14,rdi
    6fca:	jne    6f00 <AES_set_encrypt_key+0x340>
    6fd0:	pop    rbx
    6fd1:	xor    eax,eax
    6fd3:	pop    rbp
    6fd4:	pop    r12
    6fd6:	pop    r14
    6fd8:	ret    
    6fd9:	mov    eax,0xffffffff
    6fde:	ret    
    6fdf:	mov    eax,0xfffffffe
    6fe4:	ret    
    6fe5:	data16 nop WORD PTR cs:[rax+rax*1+0x0]

0000000000006ff0 <AES_set_decrypt_key>:
    6ff0:	push   r14
    6ff2:	mov    r14,rdx
    6ff5:	push   rbp
    6ff6:	push   rbx
    6ff7:	call   6bc0 <AES_set_encrypt_key>
    6ffc:	test   eax,eax
    6ffe:	js     71d1 <AES_set_decrypt_key+0x1e1>
    7004:	mov    eax,DWORD PTR [r14+0xf0]
    700b:	mov    rdx,r14
    700e:	lea    r9d,[rax*4+0x0]
    7016:	test   r9d,r9d
    7019:	jle    7081 <AES_set_decrypt_key+0x91>
    701b:	movsxd rax,r9d
    701e:	mov    rcx,r14
    7021:	xor    esi,esi
    7023:	lea    rax,[r14+rax*4]
    7027:	nop    WORD PTR [rax+rax*1+0x0]
    7030:	mov    edi,DWORD PTR [rcx]
    7032:	mov    r8d,DWORD PTR [rax]
    7035:	add    esi,0x4
    7038:	add    rcx,0x10
    703c:	sub    rax,0x10
    7040:	mov    DWORD PTR [rcx-0x10],r8d
    7044:	mov    r8d,DWORD PTR [rax+0x14]
    7048:	mov    DWORD PTR [rax+0x10],edi
    704b:	mov    edi,DWORD PTR [rcx-0xc]
    704e:	mov    DWORD PTR [rcx-0xc],r8d
    7052:	mov    r8d,DWORD PTR [rax+0x18]
    7056:	mov    DWORD PTR [rax+0x14],edi
    7059:	mov    edi,DWORD PTR [rcx-0x8]
    705c:	mov    DWORD PTR [rcx-0x8],r8d
    7060:	mov    r8d,DWORD PTR [rax+0x1c]
    7064:	mov    DWORD PTR [rax+0x18],edi
    7067:	mov    edi,DWORD PTR [rcx-0x4]
    706a:	mov    DWORD PTR [rcx-0x4],r8d
    706e:	mov    DWORD PTR [rax+0x1c],edi
    7071:	mov    edi,r9d
    7074:	sub    edi,esi
    7076:	cmp    esi,edi
    7078:	jl     7030 <AES_set_decrypt_key+0x40>
    707a:	mov    eax,DWORD PTR [r14+0xf0]
    7081:	cmp    eax,0x1
    7084:	jle    71cf <AES_set_decrypt_key+0x1df>
    708a:	mov    r10d,0x1
    7090:	lea    r9,[rip+0x168e9]        # 1d980 <Td0>
    7097:	lea    rax,[rip+0x16ce2]        # 1dd80 <Te4>
    709e:	lea    r8,[rip+0x15cdb]        # 1cd80 <Td3>
    70a5:	lea    rdi,[rip+0x164d4]        # 1d580 <Td1>
    70ac:	lea    rsi,[rip+0x160cd]        # 1d180 <Td2>
    70b3:	nop    DWORD PTR [rax+rax*1+0x0]
    70b8:	add    rdx,0x10
    70bc:	mov    r11d,DWORD PTR [rdx]
    70bf:	add    r10d,0x1
    70c3:	mov    ecx,r11d
    70c6:	movzx  ebp,r11b
    70ca:	mov    ebx,r11d
    70cd:	shr    ecx,0x18
    70d0:	movzx  ebp,BYTE PTR [rax+rbp*4]
    70d4:	movzx  ebx,bh
    70d7:	movzx  ecx,BYTE PTR [rax+rcx*4]
    70db:	mov    ecx,DWORD PTR [r9+rcx*4]
    70df:	xor    ecx,DWORD PTR [r8+rbp*4]
    70e3:	mov    ebp,r11d
    70e6:	shr    ebp,0x10
    70e9:	movzx  r11d,BYTE PTR [rax+rbx*4]
    70ee:	movzx  ebp,bpl
    70f2:	movzx  ebp,BYTE PTR [rax+rbp*4]
    70f6:	xor    ecx,DWORD PTR [rdi+rbp*4]
    70f9:	xor    ecx,DWORD PTR [rsi+r11*4]
    70fd:	mov    r11d,DWORD PTR [rdx+0x4]
    7101:	mov    DWORD PTR [rdx],ecx
    7103:	mov    ecx,r11d
    7106:	movzx  ebp,r11b
    710a:	mov    ebx,r11d
    710d:	shr    ecx,0x18
    7110:	movzx  ebp,BYTE PTR [rax+rbp*4]
    7114:	movzx  ebx,bh
    7117:	movzx  ecx,BYTE PTR [rax+rcx*4]
    711b:	mov    ecx,DWORD PTR [r9+rcx*4]
    711f:	xor    ecx,DWORD PTR [r8+rbp*4]
    7123:	mov    ebp,r11d
    7126:	shr    ebp,0x10
    7129:	movzx  r11d,BYTE PTR [rax+rbx*4]
    712e:	movzx  ebp,bpl
    7132:	movzx  ebp,BYTE PTR [rax+rbp*4]
    7136:	xor    ecx,DWORD PTR [rdi+rbp*4]
    7139:	xor    ecx,DWORD PTR [rsi+r11*4]
    713d:	mov    r11d,DWORD PTR [rdx+0x8]
    7141:	mov    DWORD PTR [rdx+0x4],ecx
    7144:	mov    ecx,r11d
    7147:	movzx  ebp,r11b
    714b:	mov    ebx,r11d
    714e:	shr    ecx,0x18
    7151:	movzx  ebp,BYTE PTR [rax+rbp*4]
    7155:	movzx  ebx,bh
    7158:	movzx  ecx,BYTE PTR [rax+rcx*4]
    715c:	mov    ecx,DWORD PTR [r9+rcx*4]
    7160:	xor    ecx,DWORD PTR [r8+rbp*4]
    7164:	mov    ebp,r11d
    7167:	shr    ebp,0x10
    716a:	movzx  r11d,BYTE PTR [rax+rbx*4]
    716f:	movzx  ebp,bpl
    7173:	movzx  ebp,BYTE PTR [rax+rbp*4]
    7177:	xor    ecx,DWORD PTR [rdi+rbp*4]
    717a:	xor    ecx,DWORD PTR [rsi+r11*4]
    717e:	mov    r11d,DWORD PTR [rdx+0xc]
    7182:	mov    DWORD PTR [rdx+0x8],ecx
    7185:	mov    ecx,r11d
    7188:	movzx  ebp,r11b
    718c:	mov    ebx,r11d
    718f:	shr    ecx,0x18
    7192:	movzx  ebx,bh
    7195:	movzx  ecx,BYTE PTR [rax+rcx*4]
    7199:	movzx  ebp,BYTE PTR [rax+rbp*4]
    719d:	mov    ecx,DWORD PTR [r9+rcx*4]
    71a1:	xor    ecx,DWORD PTR [r8+rbp*4]
    71a5:	mov    ebp,r11d
    71a8:	shr    ebp,0x10
    71ab:	movzx  r11d,BYTE PTR [rax+rbx*4]
    71b0:	movzx  ebp,bpl
    71b4:	movzx  ebp,BYTE PTR [rax+rbp*4]
    71b8:	xor    ecx,DWORD PTR [rdi+rbp*4]
    71bb:	xor    ecx,DWORD PTR [rsi+r11*4]
    71bf:	mov    DWORD PTR [rdx+0xc],ecx
    71c2:	cmp    DWORD PTR [r14+0xf0],r10d
    71c9:	jg     70b8 <AES_set_decrypt_key+0xc8>
    71cf:	xor    eax,eax
    71d1:	pop    rbx
    71d2:	pop    rbp
    71d3:	pop    r14
    71d5:	ret    
    71d6:	nop    WORD PTR cs:[rax+rax*1+0x0]

00000000000071e0 <AES_encrypt>:
    71e0:	push   r15
    71e2:	lea    r11,[rip+0x17b97]        # 1ed80 <Te0>
    71e9:	lea    r10,[rip+0x16f90]        # 1e180 <Te3>
    71f0:	push   r14
    71f2:	lea    r9,[rip+0x17787]        # 1e980 <Te1>
    71f9:	lea    r8,[rip+0x17380]        # 1e580 <Te2>
    7200:	push   r13
    7202:	push   r12
    7204:	push   rbp
    7205:	push   rbx
    7206:	mov    rbx,rdx
    7209:	movzx  eax,BYTE PTR [rdi]
    720c:	movzx  ebp,BYTE PTR [rdi+0x4]
    7210:	movzx  r12d,BYTE PTR [rdi+0x8]
    7215:	shl    eax,0x18
    7218:	mov    QWORD PTR [rsp-0x18],rdx
    721d:	movzx  edx,BYTE PTR [rdi+0x1]
    7221:	shl    ebp,0x18
    7224:	shl    r12d,0x18
    7228:	mov    QWORD PTR [rsp-0x10],rsi
    722d:	movzx  esi,BYTE PTR [rdi+0xc]
    7231:	shl    edx,0x10
    7234:	xor    eax,edx
    7236:	movzx  edx,BYTE PTR [rdi+0x3]
    723a:	shl    esi,0x18
    723d:	xor    eax,edx
    723f:	movzx  edx,BYTE PTR [rdi+0x2]
    7243:	shl    edx,0x8
    7246:	xor    eax,edx
    7248:	movzx  edx,BYTE PTR [rdi+0x5]
    724c:	xor    eax,DWORD PTR [rbx]
    724e:	shl    edx,0x10
    7251:	xor    ebp,edx
    7253:	movzx  edx,BYTE PTR [rdi+0x7]
    7257:	xor    ebp,edx
    7259:	movzx  edx,BYTE PTR [rdi+0x6]
    725d:	shl    edx,0x8
    7260:	xor    ebp,edx
    7262:	movzx  edx,BYTE PTR [rdi+0x9]
    7266:	xor    ebp,DWORD PTR [rbx+0x4]
    7269:	shl    edx,0x10
    726c:	xor    r12d,edx
    726f:	movzx  edx,BYTE PTR [rdi+0xb]
    7273:	xor    r12d,edx
    7276:	movzx  edx,BYTE PTR [rdi+0xa]
    727a:	shl    edx,0x8
    727d:	xor    r12d,edx
    7280:	movzx  edx,BYTE PTR [rdi+0xd]
    7284:	xor    r12d,DWORD PTR [rbx+0x8]
    7288:	shl    edx,0x10
    728b:	xor    esi,edx
    728d:	movzx  edx,BYTE PTR [rdi+0xf]
    7291:	xor    esi,edx
    7293:	movzx  edx,BYTE PTR [rdi+0xe]
    7297:	mov    rdi,rbx
    729a:	shl    edx,0x8
    729d:	xor    esi,edx
    729f:	xor    esi,DWORD PTR [rbx+0xc]
    72a2:	mov    ebx,DWORD PTR [rbx+0xf0]
    72a8:	mov    edx,ebx
    72aa:	mov    DWORD PTR [rsp-0x40],ebx
    72ae:	sar    edx,1
    72b0:	sub    edx,0x1
    72b3:	mov    DWORD PTR [rsp-0x4],edx
    72b7:	add    rdx,0x1
    72bb:	shl    rdx,0x5
    72bf:	add    rdx,rdi
    72c2:	mov    QWORD PTR [rsp-0x20],rdx
    72c7:	jmp    7346 <AES_encrypt+0x166>
    72c9:	nop    DWORD PTR [rax+0x0]
    72d0:	mov    edx,DWORD PTR [rsp-0x3c]
    72d4:	mov    eax,DWORD PTR [r11+r12*4]
    72d8:	mov    esi,esi
    72da:	mov    ebx,ebx
    72dc:	xor    eax,DWORD PTR [r10+r13*4]
    72e0:	xor    eax,r14d
    72e3:	xor    eax,DWORD PTR [r9+rbp*4]
    72e7:	mov    ebp,DWORD PTR [r11+rdx*4]
    72eb:	xor    eax,DWORD PTR [r8+rsi*4]
    72ef:	mov    edx,DWORD PTR [rsp-0x38]
    72f3:	mov    esi,DWORD PTR [rsp-0x30]
    72f7:	xor    ebp,DWORD PTR [r10+rsi*4]
    72fb:	xor    ebp,DWORD PTR [rdi+0x4]
    72fe:	xor    ebp,DWORD PTR [r9+rdx*4]
    7302:	mov    edx,DWORD PTR [rsp-0x34]
    7306:	xor    ebp,DWORD PTR [r8+rdx*4]
    730a:	mov    edx,DWORD PTR [rsp-0x2c]
    730e:	mov    r12d,DWORD PTR [r11+rdx*4]
    7312:	mov    edx,DWORD PTR [rsp-0x24]
    7316:	xor    r12d,DWORD PTR [r10+r15*4]
    731a:	mov    r15d,DWORD PTR [rsp-0x28]
    731f:	xor    r12d,DWORD PTR [rdi+0x8]
    7323:	xor    r12d,DWORD PTR [r9+r15*4]
    7327:	xor    r12d,DWORD PTR [r8+rdx*4]
    732b:	mov    edx,DWORD PTR [rsp-0x8]
    732f:	mov    esi,DWORD PTR [r11+rdx*4]
    7333:	mov    edx,DWORD PTR [rsp-0x40]
    7337:	xor    esi,DWORD PTR [r10+rcx*4]
    733b:	xor    esi,DWORD PTR [rdi+0xc]
    733e:	xor    esi,DWORD PTR [r9+rdx*4]
    7342:	xor    esi,DWORD PTR [r8+rbx*4]
    7346:	mov    edx,eax
    7348:	movzx  ecx,sil
    734c:	mov    ebx,r12d
    734f:	movzx  r13d,al
    7353:	shr    edx,0x18
    7356:	add    rdi,0x20
    735a:	mov    edx,DWORD PTR [r11+rdx*4]
    735e:	xor    edx,DWORD PTR [r10+rcx*4]
    7362:	mov    ecx,ebp
    7364:	shr    ecx,0x10
    7367:	xor    edx,DWORD PTR [rdi-0x10]
    736a:	movzx  ecx,cl
    736d:	xor    edx,DWORD PTR [r9+rcx*4]
    7371:	movzx  ecx,bh
    7374:	xor    edx,DWORD PTR [r8+rcx*4]
    7378:	mov    ecx,ebp
    737a:	shr    ecx,0x18
    737d:	mov    r14d,edx
    7380:	movzx  edx,ah
    7383:	shr    eax,0x10
    7386:	mov    ebx,DWORD PTR [r11+rcx*4]
    738a:	mov    ecx,r12d
    738d:	xor    ebx,DWORD PTR [r10+r13*4]
    7391:	movzx  r13d,bpl
    7395:	shr    ecx,0x10
    7398:	xor    ebx,DWORD PTR [rdi-0xc]
    739b:	mov    DWORD PTR [rsp-0x40],r14d
    73a0:	movzx  eax,al
    73a3:	movzx  ecx,cl
    73a6:	xor    ebx,DWORD PTR [r9+rcx*4]
    73aa:	mov    ecx,esi
    73ac:	movzx  ecx,ch
    73af:	xor    ebx,DWORD PTR [r8+rcx*4]
    73b3:	mov    ecx,r12d
    73b6:	movzx  r12d,r12b
    73ba:	shr    ecx,0x18
    73bd:	mov    ecx,DWORD PTR [r11+rcx*4]
    73c1:	xor    ecx,DWORD PTR [r10+r13*4]
    73c5:	mov    r13d,esi
    73c8:	shr    esi,0x18
    73cb:	shr    r13d,0x10
    73cf:	xor    ecx,DWORD PTR [rdi-0x8]
    73d2:	mov    esi,DWORD PTR [r11+rsi*4]
    73d6:	movzx  r13d,r13b
    73da:	xor    esi,DWORD PTR [r10+r12*4]
    73de:	xor    esi,DWORD PTR [rdi-0x4]
    73e1:	mov    r12d,r14d
    73e4:	xor    ecx,DWORD PTR [r9+r13*4]
    73e8:	xor    ecx,DWORD PTR [r8+rdx*4]
    73ec:	mov    edx,ebp
    73ee:	mov    ebp,ebx
    73f0:	mov    r15d,ecx
    73f3:	xor    esi,DWORD PTR [r9+rax*4]
    73f7:	mov    r14d,DWORD PTR [rdi]
    73fa:	shr    ebp,0x10
    73fd:	shr    r15d,0x10
    7401:	mov    eax,esi
    7403:	movzx  esi,dh
    7406:	mov    edx,ebx
    7408:	movzx  r15d,r15b
    740c:	xor    eax,DWORD PTR [r8+rsi*4]
    7410:	shr    edx,0x18
    7413:	movzx  esi,ch
    7416:	mov    DWORD PTR [rsp-0x3c],edx
    741a:	movzx  edx,ah
    741d:	movzx  r13d,al
    7421:	shr    r12d,0x18
    7425:	mov    DWORD PTR [rsp-0x38],r15d
    742a:	movzx  r15d,BYTE PTR [rsp-0x40]
    7430:	movzx  ebp,bpl
    7434:	mov    DWORD PTR [rsp-0x34],edx
    7438:	mov    DWORD PTR [rsp-0x30],r15d
    743d:	mov    r15d,ecx
    7440:	movzx  ecx,cl
    7443:	shr    r15d,0x18
    7447:	mov    DWORD PTR [rsp-0x2c],r15d
    744c:	mov    r15d,eax
    744f:	shr    eax,0x18
    7452:	shr    r15d,0x10
    7456:	mov    DWORD PTR [rsp-0x8],eax
    745a:	movzx  edx,r15b
    745e:	movzx  r15d,bl
    7462:	movzx  ebx,bh
    7465:	mov    DWORD PTR [rsp-0x28],edx
    7469:	mov    edx,DWORD PTR [rsp-0x40]
    746d:	movzx  edx,dh
    7470:	mov    DWORD PTR [rsp-0x24],edx
    7474:	mov    edx,DWORD PTR [rsp-0x40]
    7478:	shr    edx,0x10
    747b:	movzx  eax,dl
    747e:	mov    DWORD PTR [rsp-0x40],eax
    7482:	cmp    rdi,QWORD PTR [rsp-0x20]
    7487:	jne    72d0 <AES_encrypt+0xf0>
    748d:	mov    edx,DWORD PTR [rsp-0x4]
    7491:	mov    r8,QWORD PTR [rsp-0x18]
    7496:	mov    eax,r14d
    7499:	mov    r14d,esi
    749c:	lea    rdi,[rip+0x168dd]        # 1dd80 <Te4>
    74a3:	mov    r9,QWORD PTR [rsp-0x10]
    74a8:	mov    ebx,ebx
    74aa:	add    rdx,0x1
    74ae:	movzx  esi,BYTE PTR [rdi+r13*4]
    74b3:	shl    rdx,0x5
    74b7:	add    r8,rdx
    74ba:	mov    edx,DWORD PTR [rdi+r14*4]
    74be:	and    edx,0xff00
    74c4:	or     edx,esi
    74c6:	mov    esi,edx
    74c8:	mov    edx,DWORD PTR [rdi+rbp*4]
    74cb:	xor    esi,eax
    74cd:	mov    eax,DWORD PTR [rdi+r12*4]
    74d1:	and    edx,0xff0000
    74d7:	and    eax,0xff000000
    74dc:	or     eax,edx
    74de:	xor    eax,esi
    74e0:	bswap  eax
    74e2:	mov    DWORD PTR [r9],eax
    74e5:	mov    eax,DWORD PTR [rsp-0x34]
    74e9:	mov    edx,DWORD PTR [rdi+rax*4]
    74ec:	mov    eax,DWORD PTR [rsp-0x30]
    74f0:	movzx  eax,BYTE PTR [rdi+rax*4]
    74f4:	and    edx,0xff00
    74fa:	or     edx,eax
    74fc:	mov    eax,DWORD PTR [rsp-0x3c]
    7500:	xor    edx,DWORD PTR [r8+0x4]
    7504:	mov    eax,DWORD PTR [rdi+rax*4]
    7507:	and    eax,0xff000000
    750c:	mov    esi,eax
    750e:	mov    eax,DWORD PTR [rsp-0x38]
    7512:	mov    eax,DWORD PTR [rdi+rax*4]
    7515:	and    eax,0xff0000
    751a:	or     eax,esi
    751c:	xor    edx,eax
    751e:	mov    eax,DWORD PTR [rsp-0x24]
    7522:	bswap  edx
    7524:	mov    DWORD PTR [r9+0x4],edx
    7528:	movzx  edx,BYTE PTR [rdi+r15*4]
    752d:	mov    eax,DWORD PTR [rdi+rax*4]
    7530:	mov    r15d,DWORD PTR [rsp-0x28]
    7535:	and    eax,0xff00
    753a:	mov    esi,DWORD PTR [rdi+r15*4]
    753e:	or     eax,edx
    7540:	xor    eax,DWORD PTR [r8+0x8]
    7544:	mov    edx,eax
    7546:	mov    eax,DWORD PTR [rsp-0x2c]
    754a:	and    esi,0xff0000
    7550:	mov    eax,DWORD PTR [rdi+rax*4]
    7553:	and    eax,0xff000000
    7558:	or     eax,esi
    755a:	mov    esi,DWORD PTR [rsp-0x8]
    755e:	xor    eax,edx
    7560:	movzx  edx,BYTE PTR [rdi+rcx*4]
    7564:	bswap  eax
    7566:	mov    DWORD PTR [r9+0x8],eax
    756a:	mov    eax,DWORD PTR [rdi+rbx*4]
    756d:	and    eax,0xff00
    7572:	or     eax,edx
    7574:	mov    edx,DWORD PTR [rdi+rsi*4]
    7577:	xor    eax,DWORD PTR [r8+0xc]
    757b:	mov    ecx,edx
    757d:	mov    edx,DWORD PTR [rsp-0x40]
    7581:	and    ecx,0xff000000
    7587:	mov    edx,DWORD PTR [rdi+rdx*4]
    758a:	and    edx,0xff0000
    7590:	or     edx,ecx
    7592:	xor    eax,edx
    7594:	bswap  eax
    7596:	mov    DWORD PTR [r9+0xc],eax
    759a:	pop    rbx
    759b:	pop    rbp
    759c:	pop    r12
    759e:	pop    r13
    75a0:	pop    r14
    75a2:	pop    r15
    75a4:	ret    
    75a5:	data16 nop WORD PTR cs:[rax+rax*1+0x0]

00000000000075b0 <AES_decrypt>:
    75b0:	push   r15
    75b2:	lea    r11,[rip+0x163c7]        # 1d980 <Td0>
    75b9:	lea    r10,[rip+0x157c0]        # 1cd80 <Td3>
    75c0:	push   r14
    75c2:	lea    r9,[rip+0x15fb7]        # 1d580 <Td1>
    75c9:	lea    r8,[rip+0x15bb0]        # 1d180 <Td2>
    75d0:	push   r13
    75d2:	push   r12
    75d4:	push   rbp
    75d5:	push   rbx
    75d6:	mov    rbx,rdx
    75d9:	movzx  eax,BYTE PTR [rdi]
    75dc:	movzx  ebp,BYTE PTR [rdi+0x4]
    75e0:	movzx  r12d,BYTE PTR [rdi+0x8]
    75e5:	shl    eax,0x18
    75e8:	mov    QWORD PTR [rsp-0x18],rdx
    75ed:	movzx  edx,BYTE PTR [rdi+0x1]
    75f1:	shl    ebp,0x18
    75f4:	shl    r12d,0x18
    75f8:	mov    QWORD PTR [rsp-0x10],rsi
    75fd:	movzx  esi,BYTE PTR [rdi+0xc]
    7601:	shl    edx,0x10
    7604:	xor    eax,edx
    7606:	movzx  edx,BYTE PTR [rdi+0x3]
    760a:	shl    esi,0x18
    760d:	xor    eax,edx
    760f:	movzx  edx,BYTE PTR [rdi+0x2]
    7613:	shl    edx,0x8
    7616:	xor    eax,edx
    7618:	movzx  edx,BYTE PTR [rdi+0x5]
    761c:	xor    eax,DWORD PTR [rbx]
    761e:	shl    edx,0x10
    7621:	xor    ebp,edx
    7623:	movzx  edx,BYTE PTR [rdi+0x7]
    7627:	xor    ebp,edx
    7629:	movzx  edx,BYTE PTR [rdi+0x6]
    762d:	shl    edx,0x8
    7630:	xor    ebp,edx
    7632:	movzx  edx,BYTE PTR [rdi+0x9]
    7636:	xor    ebp,DWORD PTR [rbx+0x4]
    7639:	shl    edx,0x10
    763c:	xor    r12d,edx
    763f:	movzx  edx,BYTE PTR [rdi+0xb]
    7643:	xor    r12d,edx
    7646:	movzx  edx,BYTE PTR [rdi+0xa]
    764a:	shl    edx,0x8
    764d:	xor    r12d,edx
    7650:	movzx  edx,BYTE PTR [rdi+0xd]
    7654:	xor    r12d,DWORD PTR [rbx+0x8]
    7658:	shl    edx,0x10
    765b:	xor    esi,edx
    765d:	movzx  edx,BYTE PTR [rdi+0xf]
    7661:	xor    esi,edx
    7663:	movzx  edx,BYTE PTR [rdi+0xe]
    7667:	mov    rdi,rbx
    766a:	shl    edx,0x8
    766d:	xor    esi,edx
    766f:	xor    esi,DWORD PTR [rbx+0xc]
    7672:	mov    ebx,DWORD PTR [rbx+0xf0]
    7678:	mov    edx,ebx
    767a:	mov    DWORD PTR [rsp-0x44],ebx
    767e:	sar    edx,1
    7680:	sub    edx,0x1
    7683:	mov    DWORD PTR [rsp-0x4],edx
    7687:	add    rdx,0x1
    768b:	shl    rdx,0x5
    768f:	add    rdx,rdi
    7692:	mov    QWORD PTR [rsp-0x20],rdx
    7697:	jmp    7716 <AES_decrypt+0x166>
    7699:	nop    DWORD PTR [rax+0x0]
    76a0:	mov    edx,DWORD PTR [rsp-0x40]
    76a4:	mov    eax,DWORD PTR [r11+r12*4]
    76a8:	mov    esi,esi
    76aa:	mov    ebx,ebx
    76ac:	xor    eax,DWORD PTR [r10+r13*4]
    76b0:	xor    eax,r14d
    76b3:	xor    eax,DWORD PTR [r9+rbp*4]
    76b7:	mov    ebp,DWORD PTR [r11+rdx*4]
    76bb:	xor    eax,DWORD PTR [r8+rsi*4]
    76bf:	mov    edx,DWORD PTR [rsp-0x3c]
    76c3:	mov    esi,DWORD PTR [rsp-0x34]
    76c7:	xor    ebp,DWORD PTR [r10+rsi*4]
    76cb:	xor    ebp,DWORD PTR [rdi+0x4]
    76ce:	xor    ebp,DWORD PTR [r9+rdx*4]
    76d2:	mov    edx,DWORD PTR [rsp-0x38]
    76d6:	xor    ebp,DWORD PTR [r8+rdx*4]
    76da:	mov    edx,DWORD PTR [rsp-0x30]
    76de:	mov    r12d,DWORD PTR [r11+rdx*4]
    76e2:	mov    edx,DWORD PTR [rsp-0x28]
    76e6:	xor    r12d,DWORD PTR [r10+r15*4]
    76ea:	mov    r15d,DWORD PTR [rsp-0x2c]
    76ef:	xor    r12d,DWORD PTR [rdi+0x8]
    76f3:	xor    r12d,DWORD PTR [r9+r15*4]
    76f7:	xor    r12d,DWORD PTR [r8+rdx*4]
    76fb:	mov    edx,DWORD PTR [rsp-0x24]
    76ff:	mov    esi,DWORD PTR [r11+rdx*4]
    7703:	mov    edx,DWORD PTR [rsp-0x8]
    7707:	xor    esi,DWORD PTR [r10+rcx*4]
    770b:	xor    esi,DWORD PTR [rdi+0xc]
    770e:	xor    esi,DWORD PTR [r9+rdx*4]
    7712:	xor    esi,DWORD PTR [r8+rbx*4]
    7716:	mov    edx,eax
    7718:	movzx  ebx,bpl
    771c:	movzx  r13d,r12b
    7720:	movzx  r14d,al
    7724:	shr    edx,0x18
    7727:	add    rdi,0x20
    772b:	mov    ecx,DWORD PTR [r11+rdx*4]
    772f:	mov    edx,esi
    7731:	xor    ecx,DWORD PTR [r10+rbx*4]
    7735:	mov    ebx,r12d
    7738:	shr    edx,0x10
    773b:	xor    ecx,DWORD PTR [rdi-0x10]
    773e:	movzx  edx,dl
    7741:	xor    ecx,DWORD PTR [r9+rdx*4]
    7745:	movzx  edx,bh
    7748:	xor    ecx,DWORD PTR [r8+rdx*4]
    774c:	mov    edx,ebp
    774e:	shr    edx,0x18
    7751:	mov    r15d,ecx
    7754:	movzx  ecx,ah
    7757:	mov    ebx,DWORD PTR [r11+rdx*4]
    775b:	mov    edx,eax
    775d:	xor    ebx,DWORD PTR [r10+r13*4]
    7761:	movzx  r13d,sil
    7765:	shr    edx,0x10
    7768:	xor    ebx,DWORD PTR [rdi-0xc]
    776b:	mov    DWORD PTR [rsp-0x44],r15d
    7770:	movzx  edx,dl
    7773:	xor    ebx,DWORD PTR [r9+rdx*4]
    7777:	mov    edx,esi
    7779:	shr    esi,0x18
    777c:	movzx  edx,dh
    777f:	mov    eax,DWORD PTR [r11+rsi*4]
    7783:	xor    eax,DWORD PTR [r10+r14*4]
    7787:	xor    ebx,DWORD PTR [r8+rdx*4]
    778b:	mov    edx,r12d
    778e:	shr    r12d,0x10
    7792:	xor    eax,DWORD PTR [rdi-0x4]
    7795:	shr    edx,0x18
    7798:	movzx  r12d,r12b
    779c:	mov    edx,DWORD PTR [r11+rdx*4]
    77a0:	xor    edx,DWORD PTR [r10+r13*4]
    77a4:	mov    r13d,ebp
    77a7:	shr    r13d,0x10
    77ab:	xor    eax,DWORD PTR [r9+r12*4]
    77af:	mov    r12d,r15d
    77b2:	shr    r15d,0x10
    77b6:	movzx  r13d,r13b
    77ba:	xor    edx,DWORD PTR [rdi-0x8]
    77bd:	movzx  r15d,r15b
    77c1:	shr    r12d,0x18
    77c5:	xor    edx,DWORD PTR [r9+r13*4]
    77c9:	mov    r14d,DWORD PTR [rdi]
    77cc:	mov    DWORD PTR [rsp-0x3c],r15d
    77d1:	movzx  r13d,bl
    77d5:	xor    edx,DWORD PTR [r8+rcx*4]
    77d9:	mov    ecx,ebp
    77db:	movzx  r15d,dl
    77df:	movzx  esi,ch
    77e2:	mov    ecx,ebx
    77e4:	mov    DWORD PTR [rsp-0x34],r15d
    77e9:	mov    r15d,edx
    77ec:	xor    eax,DWORD PTR [r8+rsi*4]
    77f0:	shr    ecx,0x18
    77f3:	shr    r15d,0x18
    77f7:	mov    DWORD PTR [rsp-0x40],ecx
    77fb:	movzx  ecx,ah
    77fe:	mov    ebp,eax
    7800:	mov    DWORD PTR [rsp-0x30],r15d
    7805:	mov    r15d,ebx
    7808:	shr    ebp,0x10
    780b:	movzx  esi,dh
    780e:	shr    r15d,0x10
    7812:	mov    DWORD PTR [rsp-0x38],ecx
    7816:	movzx  ebp,bpl
    781a:	movzx  ebx,bh
    781d:	movzx  ecx,r15b
    7821:	movzx  r15d,al
    7825:	shr    eax,0x18
    7828:	mov    DWORD PTR [rsp-0x2c],ecx
    782c:	mov    ecx,DWORD PTR [rsp-0x44]
    7830:	shr    edx,0x10
    7833:	mov    DWORD PTR [rsp-0x24],eax
    7837:	movzx  eax,dl
    783a:	movzx  ecx,ch
    783d:	mov    DWORD PTR [rsp-0x8],eax
    7841:	mov    DWORD PTR [rsp-0x28],ecx
    7845:	movzx  ecx,BYTE PTR [rsp-0x44]
    784a:	cmp    rdi,QWORD PTR [rsp-0x20]
    784f:	jne    76a0 <AES_decrypt+0xf0>
    7855:	mov    edx,DWORD PTR [rsp-0x4]
    7859:	mov    r8,QWORD PTR [rsp-0x18]
    785e:	mov    eax,r14d
    7861:	mov    r14d,esi
    7864:	lea    rdi,[rip+0x15115]        # 1c980 <Td4>
    786b:	mov    r9,QWORD PTR [rsp-0x10]
    7870:	mov    ebx,ebx
    7872:	add    rdx,0x1
    7876:	movzx  esi,BYTE PTR [rdi+r13*4]
    787b:	shl    rdx,0x5
    787f:	add    r8,rdx
    7882:	mov    edx,DWORD PTR [rdi+r14*4]
    7886:	and    edx,0xff00
    788c:	or     edx,esi
    788e:	mov    esi,edx
    7890:	mov    edx,DWORD PTR [rdi+rbp*4]
    7893:	xor    esi,eax
    7895:	mov    eax,DWORD PTR [rdi+r12*4]
    7899:	and    edx,0xff0000
    789f:	and    eax,0xff000000
    78a4:	or     eax,edx
    78a6:	xor    eax,esi
    78a8:	bswap  eax
    78aa:	mov    DWORD PTR [r9],eax
    78ad:	mov    eax,DWORD PTR [rsp-0x38]
    78b1:	mov    edx,DWORD PTR [rdi+rax*4]
    78b4:	mov    eax,DWORD PTR [rsp-0x34]
    78b8:	movzx  eax,BYTE PTR [rdi+rax*4]
    78bc:	and    edx,0xff00
    78c2:	or     edx,eax
    78c4:	mov    eax,DWORD PTR [rsp-0x40]
    78c8:	xor    edx,DWORD PTR [r8+0x4]
    78cc:	mov    eax,DWORD PTR [rdi+rax*4]
    78cf:	and    eax,0xff000000
    78d4:	mov    esi,eax
    78d6:	mov    eax,DWORD PTR [rsp-0x3c]
    78da:	mov    eax,DWORD PTR [rdi+rax*4]
    78dd:	and    eax,0xff0000
    78e2:	or     eax,esi
    78e4:	xor    edx,eax
    78e6:	mov    eax,DWORD PTR [rsp-0x28]
    78ea:	bswap  edx
    78ec:	mov    DWORD PTR [r9+0x4],edx
    78f0:	movzx  edx,BYTE PTR [rdi+r15*4]
    78f5:	mov    eax,DWORD PTR [rdi+rax*4]
    78f8:	mov    r15d,DWORD PTR [rsp-0x2c]
    78fd:	and    eax,0xff00
    7902:	mov    esi,DWORD PTR [rdi+r15*4]
    7906:	or     eax,edx
    7908:	xor    eax,DWORD PTR [r8+0x8]
    790c:	mov    edx,eax
    790e:	mov    eax,DWORD PTR [rsp-0x30]
    7912:	and    esi,0xff0000
    7918:	mov    eax,DWORD PTR [rdi+rax*4]
    791b:	and    eax,0xff000000
    7920:	or     eax,esi
    7922:	mov    esi,DWORD PTR [rsp-0x24]
    7926:	xor    eax,edx
    7928:	movzx  edx,BYTE PTR [rdi+rcx*4]
    792c:	bswap  eax
    792e:	mov    DWORD PTR [r9+0x8],eax
    7932:	mov    eax,DWORD PTR [rdi+rbx*4]
    7935:	and    eax,0xff00
    793a:	or     eax,edx
    793c:	mov    edx,DWORD PTR [rdi+rsi*4]
    793f:	xor    eax,DWORD PTR [r8+0xc]
    7943:	mov    ecx,edx
    7945:	mov    edx,DWORD PTR [rsp-0x8]
    7949:	and    ecx,0xff000000
    794f:	mov    edx,DWORD PTR [rdi+rdx*4]
    7952:	and    edx,0xff0000
    7958:	or     edx,ecx
    795a:	xor    eax,edx
    795c:	bswap  eax
    795e:	mov    DWORD PTR [r9+0xc],eax
    7962:	pop    rbx
    7963:	pop    rbp
    7964:	pop    r12
    7966:	pop    r13
    7968:	pop    r14
    796a:	pop    r15
    796c:	ret    
    796d:	nop    DWORD PTR [rax]

0000000000007970 <AES_cbc_encrypt>:
    7970:	push   r15
    7972:	mov    r15,rdx
    7975:	push   r14
    7977:	mov    r14,r8
    797a:	push   r13
    797c:	push   r12
    797e:	push   rbp
    797f:	mov    rbp,rcx
    7982:	push   rbx
    7983:	mov    rbx,rsi
    7986:	sub    rsp,0x48
    798a:	mov    QWORD PTR [rsp+0x8],rdi
    798f:	mov    rax,QWORD PTR fs:0x28
    7998:	mov    QWORD PTR [rsp+0x38],rax
    799d:	xor    eax,eax
    799f:	test   r9d,r9d
    79a2:	jne    7a53 <AES_cbc_encrypt+0xe3>
    79a8:	mov    r12,rsi
    79ab:	cmp    rdx,0xf
    79af:	jbe    7a27 <AES_cbc_encrypt+0xb7>
    79b1:	lea    rax,[rdx-0x10]
    79b5:	mov    r13,QWORD PTR [rsp+0x8]
    79ba:	and    rax,0xfffffffffffffff0
    79be:	add    rax,0x10
    79c2:	mov    QWORD PTR [rsp+0x10],rax
    79c7:	lea    r12,[rsi+rax*1]
    79cb:	nop    DWORD PTR [rax+rax*1+0x0]
    79d0:	movdqu xmm2,XMMWORD PTR [r13+0x0]
    79d6:	mov    rdx,rbp
    79d9:	mov    rsi,rbx
    79dc:	mov    rdi,r13
    79df:	movaps XMMWORD PTR [rsp+0x20],xmm2
    79e4:	call   75b0 <AES_decrypt>
    79e9:	xor    eax,eax
    79eb:	nop    DWORD PTR [rax+rax*1+0x0]
    79f0:	movzx  edx,BYTE PTR [r14+rax*1]
    79f5:	xor    BYTE PTR [rbx+rax*1],dl
    79f8:	add    rax,0x1
    79fc:	cmp    rax,0x10
    7a00:	jne    79f0 <AES_cbc_encrypt+0x80>
    7a02:	movdqa xmm3,XMMWORD PTR [rsp+0x20]
    7a08:	add    rbx,0x10
    7a0c:	add    r13,0x10
    7a10:	movups XMMWORD PTR [r14],xmm3
    7a14:	cmp    rbx,r12
    7a17:	jne    79d0 <AES_cbc_encrypt+0x60>
    7a19:	mov    rcx,QWORD PTR [rsp+0x10]
    7a1e:	add    QWORD PTR [rsp+0x8],rcx
    7a23:	and    r15d,0xf
    7a27:	test   r15,r15
    7a2a:	jne    7b41 <AES_cbc_encrypt+0x1d1>
    7a30:	mov    rax,QWORD PTR [rsp+0x38]
    7a35:	xor    rax,QWORD PTR fs:0x28
    7a3e:	jne    7b98 <AES_cbc_encrypt+0x228>
    7a44:	add    rsp,0x48
    7a48:	pop    rbx
    7a49:	pop    rbp
    7a4a:	pop    r12
    7a4c:	pop    r13
    7a4e:	pop    r14
    7a50:	pop    r15
    7a52:	ret    
    7a53:	cmp    rdx,0xf
    7a57:	jbe    7b8e <AES_cbc_encrypt+0x21e>
    7a5d:	lea    rax,[rdx-0x10]
    7a61:	mov    r12,QWORD PTR [rsp+0x8]
    7a66:	lea    r13,[rsp+0x20]
    7a6b:	and    rax,0xfffffffffffffff0
    7a6f:	add    rax,0x10
    7a73:	mov    QWORD PTR [rsp+0x18],rax
    7a78:	add    rax,rsi
    7a7b:	mov    QWORD PTR [rsp+0x10],rax
    7a80:	xor    eax,eax
    7a82:	nop    WORD PTR [rax+rax*1+0x0]
    7a88:	movzx  edx,BYTE PTR [r12+rax*1]
    7a8d:	xor    dl,BYTE PTR [r14+rax*1]
    7a91:	mov    BYTE PTR [r13+rax*1+0x0],dl
    7a96:	add    rax,0x1
    7a9a:	cmp    rax,0x10
    7a9e:	jne    7a88 <AES_cbc_encrypt+0x118>
    7aa0:	mov    rsi,rbx
    7aa3:	mov    rdx,rbp
    7aa6:	mov    rdi,r13
    7aa9:	add    r12,0x10
    7aad:	call   71e0 <AES_encrypt>
    7ab2:	movdqu xmm1,XMMWORD PTR [rbx]
    7ab6:	add    rbx,0x10
    7aba:	movups XMMWORD PTR [r14],xmm1
    7abe:	cmp    rbx,QWORD PTR [rsp+0x10]
    7ac3:	jne    7a80 <AES_cbc_encrypt+0x110>
    7ac5:	mov    rcx,QWORD PTR [rsp+0x18]
    7aca:	add    QWORD PTR [rsp+0x8],rcx
    7acf:	and    r15d,0xf
    7ad3:	test   r15,r15
    7ad6:	je     7a30 <AES_cbc_encrypt+0xc0>
    7adc:	xor    eax,eax
    7ade:	lea    r13,[rsp+0x20]
    7ae3:	nop    DWORD PTR [rax+rax*1+0x0]
    7ae8:	mov    rcx,QWORD PTR [rsp+0x8]
    7aed:	movzx  edx,BYTE PTR [rcx+rax*1]
    7af1:	xor    dl,BYTE PTR [r14+rax*1]
    7af5:	mov    BYTE PTR [r13+rax*1+0x0],dl
    7afa:	add    rax,0x1
    7afe:	cmp    rax,r15
    7b01:	jne    7ae8 <AES_cbc_encrypt+0x178>
    7b03:	nop    DWORD PTR [rax+rax*1+0x0]
    7b08:	movzx  eax,BYTE PTR [r14+r15*1]
    7b0d:	mov    BYTE PTR [r13+r15*1+0x0],al
    7b12:	add    r15,0x1
    7b16:	cmp    r15,0x10
    7b1a:	jne    7b08 <AES_cbc_encrypt+0x198>
    7b1c:	mov    rdx,rbp
    7b1f:	mov    rsi,r13
    7b22:	mov    rdi,r13
    7b25:	call   71e0 <AES_encrypt>
    7b2a:	movdqa xmm0,XMMWORD PTR [rsp+0x20]
    7b30:	mov    rax,QWORD PTR [rsp+0x10]
    7b35:	movups XMMWORD PTR [rax],xmm0
    7b38:	movups XMMWORD PTR [r14],xmm0
    7b3c:	jmp    7a30 <AES_cbc_encrypt+0xc0>
    7b41:	mov    rax,QWORD PTR [rsp+0x8]
    7b46:	lea    r13,[rsp+0x20]
    7b4b:	mov    rdx,rbp
    7b4e:	mov    rsi,r13
    7b51:	mov    rdi,r13
    7b54:	movdqu xmm4,XMMWORD PTR [rax]
    7b58:	movaps XMMWORD PTR [rsp+0x20],xmm4
    7b5d:	call   75b0 <AES_decrypt>
    7b62:	xor    eax,eax
    7b64:	nop    DWORD PTR [rax+0x0]
    7b68:	movzx  edx,BYTE PTR [r13+rax*1+0x0]
    7b6e:	xor    dl,BYTE PTR [r14+rax*1]
    7b72:	mov    BYTE PTR [r12+rax*1],dl
    7b76:	add    rax,0x1
    7b7a:	cmp    rax,r15
    7b7d:	jne    7b68 <AES_cbc_encrypt+0x1f8>
    7b7f:	movdqa xmm5,XMMWORD PTR [rsp+0x20]
    7b85:	movups XMMWORD PTR [r14],xmm5
    7b89:	jmp    7a30 <AES_cbc_encrypt+0xc0>
    7b8e:	mov    QWORD PTR [rsp+0x10],rsi
    7b93:	jmp    7ad3 <AES_cbc_encrypt+0x163>
    7b98:	call   3190 <__stack_chk_fail@plt>
    7b9d:	nop    DWORD PTR [rax]

0000000000007ba0 <vmdk_flush>:
    7ba0:	mov    rax,QWORD PTR [rdi+0x40]
    7ba4:	mov    rdi,QWORD PTR [rax]
    7ba7:	jmp    18a40 <bdrv_flush>
    7bac:	nop    DWORD PTR [rax+0x0]

0000000000007bb0 <vmdk_snapshot_create>:
    7bb0:	push   r15
    7bb2:	mov    edx,0x1a4
    7bb7:	mov    r15,rsi
    7bba:	mov    esi,0x242
    7bbf:	push   r14
    7bc1:	push   r13
    7bc3:	push   r12
    7bc5:	push   rbp
    7bc6:	mov    rbp,rdi
    7bc9:	push   rbx
    7bca:	sub    rsp,0x5298
    7bd1:	mov    rax,QWORD PTR fs:0x28
    7bda:	mov    QWORD PTR [rsp+0x5288],rax
    7be2:	xor    eax,eax
    7be4:	call   3500 <open64@plt>
    7be9:	test   eax,eax
    7beb:	js     7fc0 <vmdk_snapshot_create+0x410>
    7bf1:	mov    r12d,eax
    7bf4:	xor    esi,esi
    7bf6:	mov    rdi,r15
    7bf9:	xor    eax,eax
    7bfb:	call   3500 <open64@plt>
    7c00:	mov    r13d,eax
    7c03:	test   eax,eax
    7c05:	js     7fa8 <vmdk_snapshot_create+0x3f8>
    7c0b:	xor    edx,edx
    7c0d:	xor    esi,esi
    7c0f:	mov    edi,eax
    7c11:	call   3620 <lseek64@plt>
    7c16:	cmp    rax,0xffffffffffffffff
    7c1a:	je     7fa0 <vmdk_snapshot_create+0x3f0>
    7c20:	lea    rbx,[rsp+0x80]
    7c28:	mov    edx,0x200
    7c2d:	mov    edi,r13d
    7c30:	mov    rsi,rbx
    7c33:	call   4600 <qemu_read_ok>
    7c38:	test   eax,eax
    7c3a:	js     7fa0 <vmdk_snapshot_create+0x3f0>
    7c40:	xor    edx,edx
    7c42:	xor    esi,esi
    7c44:	mov    edi,r12d
    7c47:	call   3620 <lseek64@plt>
    7c4c:	cmp    rax,0xffffffffffffffff
    7c50:	je     7fa0 <vmdk_snapshot_create+0x3f0>
    7c56:	mov    edx,0x200
    7c5b:	mov    rsi,rbx
    7c5e:	mov    edi,r12d
    7c61:	call   46d0 <qemu_write_ok>
    7c66:	cmp    eax,0xffffffff
    7c69:	je     7fa0 <vmdk_snapshot_create+0x3f0>
    7c6f:	mov    rax,QWORD PTR [rsp+0x94]
    7c77:	mov    edi,r12d
    7c7a:	movdqu xmm2,XMMWORD PTR [rsp+0xa4]
    7c83:	mov    rdx,QWORD PTR [rsp+0xc4]
    7c8b:	movdqu xmm3,XMMWORD PTR [rsp+0xb4]
    7c94:	movdqu xmm0,XMMWORD PTR [rsp+0x84]
    7c9d:	movaps XMMWORD PTR [rsp+0x50],xmm2
    7ca2:	movdqu xmm1,XMMWORD PTR [rsp+0x94]
    7cab:	mov    QWORD PTR [rsp+0x18],rax
    7cb0:	mov    eax,DWORD PTR [rsp+0x58]
    7cb4:	movaps XMMWORD PTR [rsp+0x60],xmm3
    7cb9:	mov    r14,QWORD PTR [rsp+0x64]
    7cbe:	mov    QWORD PTR [rsp+0x70],rdx
    7cc3:	mov    rsi,QWORD PTR [rsp+0x6c]
    7cc8:	movzx  edx,BYTE PTR [rsp+0xcc]
    7cd0:	mov    DWORD PTR [rsp+0xc],eax
    7cd4:	mov    rax,QWORD PTR [rsp+0x5c]
    7cd9:	shl    rsi,0x9
    7cdd:	movaps XMMWORD PTR [rsp+0x30],xmm0
    7ce2:	mov    rbx,QWORD PTR [rsp+0x38]
    7ce7:	mov    BYTE PTR [rsp+0x78],dl
    7ceb:	movaps XMMWORD PTR [rsp+0x40],xmm1
    7cf0:	mov    QWORD PTR [rsp+0x10],rax
    7cf5:	call   34c0 <ftruncate64@plt>
    7cfa:	xor    edx,edx
    7cfc:	mov    esi,0x200
    7d01:	mov    edi,r13d
    7d04:	call   3620 <lseek64@plt>
    7d09:	cmp    rax,0xffffffffffffffff
    7d0d:	je     7fa0 <vmdk_snapshot_create+0x3f0>
    7d13:	lea    rcx,[rsp+0x280]
    7d1b:	mov    edx,0x2800
    7d20:	mov    edi,r13d
    7d23:	mov    rsi,rcx
    7d26:	mov    QWORD PTR [rsp],rcx
    7d2a:	call   4600 <qemu_read_ok>
    7d2f:	test   eax,eax
    7d31:	js     7fa0 <vmdk_snapshot_create+0x3f0>
    7d37:	mov    rcx,QWORD PTR [rsp]
    7d3b:	lea    rsi,[rip+0x17447]        # 1f189 <Te0+0x409>
    7d42:	mov    rdi,rcx
    7d45:	call   36a0 <strstr@plt>
    7d4a:	test   rax,rax
    7d4d:	je     7d66 <vmdk_snapshot_create+0x1b6>
    7d4f:	lea    rdi,[rax+0x4]
    7d53:	lea    rdx,[rsp+0x2c]
    7d58:	xor    eax,eax
    7d5a:	lea    rsi,[rip+0x1741f]        # 1f180 <Te0+0x400>
    7d61:	call   3470 <sscanf@plt>
    7d66:	mov    rdi,rbp
    7d69:	mov    esi,0x5c
    7d6e:	call   3200 <strrchr@plt>
    7d73:	mov    esi,0x2f
    7d78:	lea    rdx,[rax+0x1]
    7d7c:	test   rax,rax
    7d7f:	cmovne rbp,rdx
    7d83:	mov    rdi,rbp
    7d86:	call   3200 <strrchr@plt>
    7d8b:	mov    esi,0x3a
    7d90:	lea    rdx,[rax+0x1]
    7d94:	test   rax,rax
    7d97:	cmovne rbp,rdx
    7d9b:	mov    rdi,rbp
    7d9e:	call   3200 <strrchr@plt>
    7da3:	mov    r9d,DWORD PTR [rsp+0x2c]
    7da8:	lea    r10,[rsp+0x2a80]
    7db0:	mov    esi,0x2800
    7db5:	test   rax,rax
    7db8:	lea    rdx,[rax+0x1]
    7dbc:	mov    rdi,r10
    7dbf:	mov    ecx,0x2800
    7dc4:	cmovne rbp,rdx
    7dc8:	lea    r8,[rip+0x17431]        # 1f200 <desc_template.13799>
    7dcf:	mov    edx,0x1
    7dd4:	xor    eax,eax
    7dd6:	push   rbp
    7dd7:	push   rbx
    7dd8:	push   r15
    7dda:	push   r9
    7ddc:	mov    QWORD PTR [rsp+0x20],r10
    7de1:	call   3060 <__snprintf_chk@plt>
    7de6:	add    rsp,0x20
    7dea:	xor    edx,edx
    7dec:	mov    esi,0x200
    7df1:	mov    edi,r12d
    7df4:	call   3620 <lseek64@plt>
    7df9:	cmp    rax,0xffffffffffffffff
    7dfd:	je     7fa0 <vmdk_snapshot_create+0x3f0>
    7e03:	mov    r10,QWORD PTR [rsp]
    7e07:	mov    rdx,r10
    7e0a:	mov    ecx,DWORD PTR [rdx]
    7e0c:	add    rdx,0x4
    7e10:	lea    eax,[rcx-0x1010101]
    7e16:	not    ecx
    7e18:	and    eax,ecx
    7e1a:	and    eax,0x80808080
    7e1f:	je     7e0a <vmdk_snapshot_create+0x25a>
    7e21:	mov    ecx,eax
    7e23:	mov    rsi,r10
    7e26:	mov    edi,r12d
    7e29:	shr    ecx,0x10
    7e2c:	test   eax,0x8080
    7e31:	cmove  eax,ecx
    7e34:	lea    rcx,[rdx+0x2]
    7e38:	cmove  rdx,rcx
    7e3c:	mov    ecx,eax
    7e3e:	add    cl,al
    7e40:	sbb    rdx,0x3
    7e44:	sub    rdx,r10
    7e47:	call   46d0 <qemu_write_ok>
    7e4c:	cmp    eax,0xffffffff
    7e4f:	je     7fa0 <vmdk_snapshot_create+0x3f0>
    7e55:	movsxd rcx,DWORD PTR [rsp+0xc]
    7e5a:	mov    rbp,QWORD PTR [rsp+0x10]
    7e5f:	mov    rax,rbx
    7e62:	shl    r14,0x9
    7e66:	imul   rcx,QWORD PTR [rsp+0x18]
    7e6c:	shl    rax,0x9
    7e70:	shl    rbp,0x9
    7e74:	shl    rcx,0x9
    7e78:	je     7fa0 <vmdk_snapshot_create+0x3f0>
    7e7e:	cqo    
    7e80:	idiv   rcx
    7e83:	lea    ebx,[rax*4+0x0]
    7e8a:	mov    rdi,rbx
    7e8d:	call   4cb0 <qemu_malloc>
    7e92:	xor    edx,edx
    7e94:	mov    rsi,rbp
    7e97:	mov    edi,r13d
    7e9a:	mov    r15,rax
    7e9d:	call   3620 <lseek64@plt>
    7ea2:	cmp    rax,0xffffffffffffffff
    7ea6:	je     7f98 <vmdk_snapshot_create+0x3e8>
    7eac:	mov    rdx,rbx
    7eaf:	mov    rsi,r15
    7eb2:	mov    edi,r13d
    7eb5:	call   4600 <qemu_read_ok>
    7eba:	test   eax,eax
    7ebc:	js     7f98 <vmdk_snapshot_create+0x3e8>
    7ec2:	xor    edx,edx
    7ec4:	mov    rsi,rbp
    7ec7:	mov    edi,r12d
    7eca:	call   3620 <lseek64@plt>
    7ecf:	cmp    rax,0xffffffffffffffff
    7ed3:	je     7f98 <vmdk_snapshot_create+0x3e8>
    7ed9:	mov    rdx,rbx
    7edc:	mov    rsi,r15
    7edf:	mov    edi,r12d
    7ee2:	call   46d0 <qemu_write_ok>
    7ee7:	cmp    eax,0xffffffff
    7eea:	je     7f98 <vmdk_snapshot_create+0x3e8>
    7ef0:	mov    rdi,r15
    7ef3:	call   4ca0 <qemu_free>
    7ef8:	mov    rdi,rbx
    7efb:	call   4cb0 <qemu_malloc>
    7f00:	xor    edx,edx
    7f02:	mov    rsi,r14
    7f05:	mov    edi,r13d
    7f08:	mov    rbp,rax
    7f0b:	call   3620 <lseek64@plt>
    7f10:	cmp    rax,0xffffffffffffffff
    7f14:	je     7f90 <vmdk_snapshot_create+0x3e0>
    7f16:	mov    rdx,rbx
    7f19:	mov    rsi,rbp
    7f1c:	mov    edi,r13d
    7f1f:	call   4600 <qemu_read_ok>
    7f24:	test   eax,eax
    7f26:	js     7f90 <vmdk_snapshot_create+0x3e0>
    7f28:	xor    edx,edx
    7f2a:	mov    rsi,r14
    7f2d:	mov    edi,r12d
    7f30:	call   3620 <lseek64@plt>
    7f35:	cmp    rax,0xffffffffffffffff
    7f39:	je     7f90 <vmdk_snapshot_create+0x3e0>
    7f3b:	mov    rdx,rbx
    7f3e:	mov    rsi,rbp
    7f41:	mov    edi,r12d
    7f44:	call   46d0 <qemu_write_ok>
    7f49:	cmp    eax,0xffffffff
    7f4c:	je     7f90 <vmdk_snapshot_create+0x3e0>
    7f4e:	mov    rdi,rbp
    7f51:	call   4ca0 <qemu_free>
    7f56:	mov    edi,r13d
    7f59:	call   3260 <close@plt>
    7f5e:	mov    edi,r12d
    7f61:	call   3260 <close@plt>
    7f66:	xor    eax,eax
    7f68:	mov    rbx,QWORD PTR [rsp+0x5288]
    7f70:	xor    rbx,QWORD PTR fs:0x28
    7f79:	jne    7fc7 <vmdk_snapshot_create+0x417>
    7f7b:	add    rsp,0x5298
    7f82:	pop    rbx
    7f83:	pop    rbp
    7f84:	pop    r12
    7f86:	pop    r13
    7f88:	pop    r14
    7f8a:	pop    r15
    7f8c:	ret    
    7f8d:	nop    DWORD PTR [rax]
    7f90:	mov    rdi,rbp
    7f93:	call   4ca0 <qemu_free>
    7f98:	mov    rdi,r15
    7f9b:	call   4ca0 <qemu_free>
    7fa0:	mov    edi,r13d
    7fa3:	call   3260 <close@plt>
    7fa8:	mov    edi,r12d
    7fab:	call   3260 <close@plt>
    7fb0:	mov    eax,0xffffffff
    7fb5:	jmp    7f68 <vmdk_snapshot_create+0x3b8>
    7fb7:	nop    WORD PTR [rax+rax*1+0x0]
    7fc0:	mov    eax,0xffffffff
    7fc5:	jmp    7f68 <vmdk_snapshot_create+0x3b8>
    7fc7:	call   3190 <__stack_chk_fail@plt>
    7fcc:	nop    DWORD PTR [rax+0x0]

0000000000007fd0 <vmdk_close>:
    7fd0:	push   rbx
    7fd1:	mov    rbx,QWORD PTR [rdi+0x40]
    7fd5:	mov    rdi,QWORD PTR [rbx+0x18]
    7fd9:	call   4ca0 <qemu_free>
    7fde:	mov    rdi,QWORD PTR [rbx+0x38]
    7fe2:	call   4ca0 <qemu_free>
    7fe7:	mov    rdi,QWORD PTR [rbx]
    7fea:	mov    rax,QWORD PTR [rdi+0x850]
    7ff1:	test   rax,rax
    7ff4:	je     8001 <vmdk_close+0x31>
    7ff6:	mov    rdi,rax
    7ff9:	call   174e0 <bdrv_close>
    7ffe:	mov    rdi,QWORD PTR [rbx]
    8001:	pop    rbx
    8002:	jmp    17470 <bdrv_delete>
    8007:	nop    WORD PTR [rax+rax*1+0x0]

0000000000008010 <vmdk_probe>:
    8010:	xor    eax,eax
    8012:	cmp    esi,0x3
    8015:	jg     8020 <vmdk_probe+0x10>
    8017:	ret    
    8018:	nop    DWORD PTR [rax+rax*1+0x0]
    8020:	mov    edx,DWORD PTR [rdi]
    8022:	bswap  edx
    8024:	cmp    edx,0x434f5744
    802a:	je     8034 <vmdk_probe+0x24>
    802c:	cmp    edx,0x4b444d56
    8032:	jne    8017 <vmdk_probe+0x7>
    8034:	mov    eax,0x64
    8039:	ret    
    803a:	nop    WORD PTR [rax+rax*1+0x0]

0000000000008040 <vmdk_read_cid.isra.2>:
    8040:	push   r12
    8042:	mov    ecx,0x2800
    8047:	mov    r12d,esi
    804a:	mov    esi,0x200
    804f:	push   rbp
    8050:	push   rbx
    8051:	sub    rsp,0x2820
    8058:	mov    rdi,QWORD PTR [rdi]
    805b:	mov    rax,QWORD PTR fs:0x28
    8064:	mov    QWORD PTR [rsp+0x2818],rax
    806c:	xor    eax,eax
    806e:	lea    rbp,[rsp+0x10]
    8073:	mov    rdx,rbp
    8076:	call   17e40 <bdrv_pread>
    807b:	xor    edx,edx
    807d:	cmp    eax,0x2800
    8082:	jne    80d0 <vmdk_read_cid.isra.2+0x90>
    8084:	cmp    r12d,0x1
    8088:	lea    rsi,[rip+0x170f4]        # 1f183 <Te0+0x403>
    808f:	lea    rax,[rip+0x170f3]        # 1f189 <Te0+0x409>
    8096:	mov    rdi,rbp
    8099:	sbb    rbx,rbx
    809c:	and    rbx,0xfffffffffffffffa
    80a0:	add    rbx,0xa
    80a4:	test   r12d,r12d
    80a7:	cmove  rsi,rax
    80ab:	call   36a0 <strstr@plt>
    80b0:	test   rax,rax
    80b3:	je     80cc <vmdk_read_cid.isra.2+0x8c>
    80b5:	lea    rdi,[rax+rbx*1]
    80b9:	lea    rdx,[rsp+0xc]
    80be:	xor    eax,eax
    80c0:	lea    rsi,[rip+0x170b9]        # 1f180 <Te0+0x400>
    80c7:	call   3470 <sscanf@plt>
    80cc:	mov    edx,DWORD PTR [rsp+0xc]
    80d0:	mov    rcx,QWORD PTR [rsp+0x2818]
    80d8:	xor    rcx,QWORD PTR fs:0x28
    80e1:	mov    eax,edx
    80e3:	jne    80f1 <vmdk_read_cid.isra.2+0xb1>
    80e5:	add    rsp,0x2820
    80ec:	pop    rbx
    80ed:	pop    rbp
    80ee:	pop    r12
    80f0:	ret    
    80f1:	call   3190 <__stack_chk_fail@plt>
    80f6:	nop    WORD PTR cs:[rax+rax*1+0x0]

0000000000008100 <vmdk_is_cid_valid.isra.3>:
    8100:	mov    rax,QWORD PTR [rdi]
    8103:	mov    rdx,QWORD PTR [rax+0x850]
    810a:	test   rdx,rdx
    810d:	je     8130 <vmdk_is_cid_valid.isra.3+0x30>
    810f:	push   rbx
    8110:	mov    rbx,rdi
    8113:	mov    rdi,QWORD PTR [rdx+0x40]
    8117:	xor    esi,esi
    8119:	call   8040 <vmdk_read_cid.isra.2>
    811e:	cmp    DWORD PTR [rbx+0xc4],eax
    8124:	pop    rbx
    8125:	sete   al
    8128:	movzx  eax,al
    812b:	ret    
    812c:	nop    DWORD PTR [rax+0x0]
    8130:	mov    eax,0x1
    8135:	ret    
    8136:	nop    WORD PTR cs:[rax+rax*1+0x0]

0000000000008140 <get_cluster_offset>:
    8140:	push   rbp
    8141:	mov    r8,rdi
    8144:	mov    r9,rdx
    8147:	mov    r10d,ecx
    814a:	mov    rbp,rsp
    814d:	push   r15
    814f:	push   r14
    8151:	mov    r14,rsi
    8154:	push   r13
    8156:	push   r12
    8158:	push   rbx
    8159:	sub    rsp,0x58
    815d:	mov    rbx,QWORD PTR [rdi+0x40]
    8161:	mov    rax,QWORD PTR fs:0x28
    816a:	mov    QWORD PTR [rbp-0x38],rax
    816e:	xor    eax,eax
    8170:	test   rsi,rsi
    8173:	je     817c <get_cluster_offset+0x3c>
    8175:	mov    DWORD PTR [rsi+0x10],0x0
    817c:	mov    r13,r9
    817f:	mov    ecx,DWORD PTR [rbx+0x2c]
    8182:	xor    edx,edx
    8184:	shr    r13,0x9
    8188:	mov    rax,r13
    818b:	div    rcx
    818e:	mov    r11,rax
    8191:	cmp    DWORD PTR [rbx+0x28],eax
    8194:	jbe    8240 <get_cluster_offset+0x100>
    819a:	mov    rdx,QWORD PTR [rbx+0x18]
    819e:	mov    eax,eax
    81a0:	mov    r12d,DWORD PTR [rdx+rax*4]
    81a4:	test   r12d,r12d
    81a7:	je     8240 <get_cluster_offset+0x100>
    81ad:	xor    eax,eax
    81af:	nop
    81b0:	movsxd rdx,eax
    81b3:	cmp    DWORD PTR [rbx+rax*4+0x40],r12d
    81b8:	je     8270 <get_cluster_offset+0x130>
    81be:	add    rax,0x1
    81c2:	cmp    rax,0x10
    81c6:	jne    81b0 <get_cluster_offset+0x70>
    81c8:	xor    eax,eax
    81ca:	mov    ecx,0xffffffff
    81cf:	xor    r15d,r15d
    81d2:	nop    WORD PTR [rax+rax*1+0x0]
    81d8:	mov    edx,DWORD PTR [rbx+rax*4+0x80]
    81df:	cmp    edx,ecx
    81e1:	jae    81e8 <get_cluster_offset+0xa8>
    81e3:	mov    ecx,edx
    81e5:	movsxd r15,eax
    81e8:	add    rax,0x1
    81ec:	cmp    rax,0x10
    81f0:	jne    81d8 <get_cluster_offset+0x98>
    81f2:	mov    ecx,DWORD PTR [rbx+0x30]
    81f5:	mov    edx,r15d
    81f8:	mov    rax,QWORD PTR [rbx+0x38]
    81fc:	mov    esi,r12d
    81ff:	mov    rdi,QWORD PTR [rbx]
    8202:	shl    rsi,0x9
    8206:	mov    QWORD PTR [rbp-0x68],r8
    820a:	imul   edx,ecx
    820d:	shl    ecx,0x2
    8210:	mov    QWORD PTR [rbp-0x60],r9
    8214:	mov    DWORD PTR [rbp-0x58],r10d
    8218:	mov    QWORD PTR [rbp-0x50],r11
    821c:	lea    rdx,[rax+rdx*4]
    8220:	mov    QWORD PTR [rbp-0x48],rdx
    8224:	call   17e40 <bdrv_pread>
    8229:	mov    ecx,DWORD PTR [rbx+0x30]
    822c:	cdqe   
    822e:	lea    rdx,[rcx*4+0x0]
    8236:	cmp    rax,rdx
    8239:	je     83a8 <get_cluster_offset+0x268>
    823f:	nop
    8240:	xor    r13d,r13d
    8243:	mov    rdi,QWORD PTR [rbp-0x38]
    8247:	xor    rdi,QWORD PTR fs:0x28
    8250:	mov    rax,r13
    8253:	jne    84da <get_cluster_offset+0x39a>
    8259:	lea    rsp,[rbp-0x28]
    825d:	pop    rbx
    825e:	pop    r12
    8260:	pop    r13
    8262:	pop    r14
    8264:	pop    r15
    8266:	pop    rbp
    8267:	ret    
    8268:	nop    DWORD PTR [rax+rax*1+0x0]
    8270:	lea    rcx,[rbx+rdx*4]
    8274:	mov    edi,DWORD PTR [rcx+0x80]
    827a:	lea    edx,[rdi+0x1]
    827d:	mov    DWORD PTR [rcx+0x80],edx
    8283:	cmp    edx,0xffffffff
    8286:	je     83d0 <get_cluster_offset+0x290>
    828c:	mov    ecx,DWORD PTR [rbx+0x30]
    828f:	mov    rdx,QWORD PTR [rbx+0x38]
    8293:	imul   eax,ecx
    8296:	lea    rax,[rdx+rax*4]
    829a:	mov    QWORD PTR [rbp-0x48],rax
    829e:	mov    esi,DWORD PTR [rbx+0xc0]
    82a4:	mov    rax,r13
    82a7:	xor    edx,edx
    82a9:	div    rsi
    82ac:	xor    edx,edx
    82ae:	div    rcx
    82b1:	mov    rax,QWORD PTR [rbp-0x48]
    82b5:	mov    r15,rdx
    82b8:	lea    rdx,[rax+rdx*4]
    82bc:	mov    r13d,DWORD PTR [rdx]
    82bf:	test   r13,r13
    82c2:	jne    8398 <get_cluster_offset+0x258>
    82c8:	test   r10d,r10d
    82cb:	je     8240 <get_cluster_offset+0x100>
    82d1:	mov    eax,DWORD PTR [rbx+0xc8]
    82d7:	xor    r10d,r10d
    82da:	mov    DWORD PTR [rbp-0x48],0x0
    82e1:	test   eax,eax
    82e3:	je     8478 <get_cluster_offset+0x338>
    82e9:	mov    rdx,QWORD PTR [r8+0x40]
    82ed:	mov    rdi,rsp
    82f0:	mov    QWORD PTR [rbp-0x50],rdi
    82f4:	mov    eax,DWORD PTR [rdx+0xc0]
    82fa:	shl    eax,0x9
    82fd:	mov    ebx,eax
    82ff:	mov    DWORD PTR [rbp-0x58],eax
    8302:	mov    rax,QWORD PTR [rdx]
    8305:	sub    rsp,rbx
    8308:	mov    rax,QWORD PTR [rax+0x850]
    830f:	test   rax,rax
    8312:	je     8470 <get_cluster_offset+0x330>
    8318:	mov    rax,QWORD PTR [rax+0x40]
    831c:	mov    rdi,rdx
    831f:	mov    QWORD PTR [rbp-0x78],r11
    8323:	mov    QWORD PTR [rbp-0x70],r9
    8327:	mov    QWORD PTR [rbp-0x68],r10
    832b:	mov    QWORD PTR [rbp-0x80],rax
    832f:	mov    QWORD PTR [rbp-0x60],rdx
    8333:	call   8100 <vmdk_is_cid_valid.isra.3>
    8338:	test   eax,eax
    833a:	je     8464 <get_cluster_offset+0x324>
    8340:	mov    rdx,QWORD PTR [rbp-0x60]
    8344:	mov    r9,QWORD PTR [rbp-0x70]
    8348:	xor    esi,esi
    834a:	mov    ecx,0x1
    834f:	mov    rax,QWORD PTR [rdx]
    8352:	mov    rdx,r9
    8355:	mov    rdi,QWORD PTR [rax+0x850]
    835c:	call   8140 <get_cluster_offset>
    8361:	mov    r10,QWORD PTR [rbp-0x68]
    8365:	mov    r11,QWORD PTR [rbp-0x78]
    8369:	test   rax,rax
    836c:	jne    83f0 <get_cluster_offset+0x2b0>
    8372:	mov    rsp,QWORD PTR [rbp-0x50]
    8376:	mov    r13,r10
    8379:	test   r14,r14
    837c:	je     8398 <get_cluster_offset+0x258>
    837e:	mov    eax,DWORD PTR [rbp-0x48]
    8381:	mov    DWORD PTR [r14+0x4],r11d
    8385:	mov    DWORD PTR [r14+0x8],r15d
    8389:	mov    DWORD PTR [r14],eax
    838c:	mov    DWORD PTR [r14+0xc],r12d
    8390:	mov    DWORD PTR [r14+0x10],0x1
    8398:	shl    r13,0x9
    839c:	jmp    8243 <get_cluster_offset+0x103>
    83a1:	nop    DWORD PTR [rax+0x0]
    83a8:	lea    rax,[rbx+r15*4]
    83ac:	mov    r8,QWORD PTR [rbp-0x68]
    83b0:	mov    r9,QWORD PTR [rbp-0x60]
    83b4:	mov    r10d,DWORD PTR [rbp-0x58]
    83b8:	mov    r11,QWORD PTR [rbp-0x50]
    83bc:	mov    DWORD PTR [rax+0x40],r12d
    83c0:	mov    DWORD PTR [rax+0x80],0x1
    83ca:	jmp    829e <get_cluster_offset+0x15e>
    83cf:	nop
    83d0:	lea    rdx,[rbx+0x80]
    83d7:	lea    rcx,[rbx+0xc0]
    83de:	xchg   ax,ax
    83e0:	shr    DWORD PTR [rdx],1
    83e2:	add    rdx,0x4
    83e6:	cmp    rcx,rdx
    83e9:	jne    83e0 <get_cluster_offset+0x2a0>
    83eb:	jmp    828c <get_cluster_offset+0x14c>
    83f0:	mov    rdi,QWORD PTR [rbp-0x80]
    83f4:	mov    rdx,QWORD PTR [rip+0x20125]        # 28520 <activeBDRV>
    83fb:	mov    QWORD PTR [rbp-0x70],r10
    83ff:	mov    esi,DWORD PTR [rdi+0xc0]
    8405:	mov    r8,QWORD PTR [rdx+0x40]
    8409:	mov    rdx,rsp
    840c:	mov    rdi,QWORD PTR [rdi]
    840f:	mov    ecx,esi
    8411:	mov    DWORD PTR [rbp-0x60],esi
    8414:	mov    rsi,rax
    8417:	shl    ecx,0x9
    841a:	mov    QWORD PTR [rbp-0x68],r8
    841e:	call   17e40 <bdrv_pread>
    8423:	mov    rdi,QWORD PTR [rbp-0x80]
    8427:	mov    edx,DWORD PTR [rdi+0xc0]
    842d:	shl    edx,0x9
    8430:	cmp    eax,edx
    8432:	jne    8464 <get_cluster_offset+0x324>
    8434:	mov    r8,QWORD PTR [rbp-0x68]
    8438:	mov    rsi,QWORD PTR [rip+0x200e9]        # 28528 <activeBDRV+0x8>
    843f:	mov    rdx,rsp
    8442:	mov    ecx,DWORD PTR [rbp-0x58]
    8445:	mov    rdi,QWORD PTR [r8]
    8448:	shl    rsi,0x9
    844c:	call   18450 <bdrv_pwrite>
    8451:	mov    r10,QWORD PTR [rbp-0x70]
    8455:	mov    r11,QWORD PTR [rbp-0x78]
    8459:	cdqe   
    845b:	cmp    rbx,rax
    845e:	je     8372 <get_cluster_offset+0x232>
    8464:	mov    rsp,QWORD PTR [rbp-0x50]
    8468:	jmp    8243 <get_cluster_offset+0x103>
    846d:	nop    DWORD PTR [rax]
    8470:	mov    rsp,rdi
    8473:	jmp    8376 <get_cluster_offset+0x236>
    8478:	mov    rdi,QWORD PTR [rbx]
    847b:	mov    QWORD PTR [rbp-0x68],r11
    847f:	mov    QWORD PTR [rbp-0x60],r9
    8483:	mov    QWORD PTR [rbp-0x58],r8
    8487:	mov    QWORD PTR [rbp-0x50],rdx
    848b:	call   18500 <bdrv_getlength>
    8490:	mov    esi,DWORD PTR [rbx+0xc0]
    8496:	mov    rdi,QWORD PTR [rbx]
    8499:	mov    QWORD PTR [rbp-0x48],rax
    849d:	shl    esi,0x9
    84a0:	add    rsi,rax
    84a3:	call   184d0 <bdrv_truncate>
    84a8:	mov    r10,QWORD PTR [rbp-0x48]
    84ac:	mov    rdx,QWORD PTR [rbp-0x50]
    84b0:	mov    r8,QWORD PTR [rbp-0x58]
    84b4:	mov    r11,QWORD PTR [rbp-0x68]
    84b8:	shr    r10,0x9
    84bc:	mov    r9,QWORD PTR [rbp-0x60]
    84c0:	mov    DWORD PTR [rbp-0x48],r10d
    84c4:	mov    DWORD PTR [rdx],r10d
    84c7:	mov    QWORD PTR [rip+0x2005a],r10        # 28528 <activeBDRV+0x8>
    84ce:	mov    QWORD PTR [rip+0x2004b],r8        # 28520 <activeBDRV>
    84d5:	jmp    82e9 <get_cluster_offset+0x1a9>
    84da:	call   3190 <__stack_chk_fail@plt>
    84df:	nop

00000000000084e0 <vmdk_is_allocated>:
    84e0:	push   r13
    84e2:	push   r12
    84e4:	mov    r12,rcx
    84e7:	xor    ecx,ecx
    84e9:	push   rbp
    84ea:	mov    ebp,edx
    84ec:	mov    rdx,rsi
    84ef:	push   rbx
    84f0:	shl    rdx,0x9
    84f4:	mov    rbx,rsi
    84f7:	xor    esi,esi
    84f9:	sub    rsp,0x8
    84fd:	mov    r13,QWORD PTR [rdi+0x40]
    8501:	call   8140 <get_cluster_offset>
    8506:	mov    rdi,rax
    8509:	mov    esi,DWORD PTR [r13+0xc0]
    8510:	mov    rax,rbx
    8513:	cqo    
    8515:	idiv   rsi
    8518:	mov    rcx,rsi
    851b:	sub    ecx,edx
    851d:	cmp    ecx,ebp
    851f:	cmovg  ecx,ebp
    8522:	xor    eax,eax
    8524:	test   rdi,rdi
    8527:	setne  al
    852a:	mov    DWORD PTR [r12],ecx
    852e:	add    rsp,0x8
    8532:	pop    rbx
    8533:	pop    rbp
    8534:	pop    r12
    8536:	pop    r13
    8538:	ret    
    8539:	nop    DWORD PTR [rax+0x0]

0000000000008540 <vmdk_read>:
    8540:	push   r15
    8542:	push   r14
    8544:	push   r13
    8546:	push   r12
    8548:	push   rbp
    8549:	push   rbx
    854a:	sub    rsp,0x18
    854e:	mov    r14,QWORD PTR [rdi+0x40]
    8552:	test   ecx,ecx
    8554:	jle    8680 <vmdk_read+0x140>
    855a:	mov    r15,rdi
    855d:	mov    rbp,rsi
    8560:	mov    r13,rdx
    8563:	mov    r12d,ecx
    8566:	jmp    85ce <vmdk_read+0x8e>
    8568:	nop    DWORD PTR [rax+rax*1+0x0]
    8570:	mov    rax,QWORD PTR [r14]
    8573:	cmp    QWORD PTR [rax+0x850],0x0
    857b:	je     8640 <vmdk_read+0x100>
    8581:	mov    rdi,QWORD PTR [r15+0x40]
    8585:	call   8100 <vmdk_is_cid_valid.isra.3>
    858a:	test   eax,eax
    858c:	je     8668 <vmdk_read+0x128>
    8592:	mov    rax,QWORD PTR [r14]
    8595:	mov    ecx,ebx
    8597:	mov    rdx,r13
    859a:	mov    rsi,rbp
    859d:	mov    rdi,QWORD PTR [rax+0x850]
    85a4:	call   17550 <bdrv_read>
    85a9:	test   eax,eax
    85ab:	js     8668 <vmdk_read+0x128>
    85b1:	mov    ecx,ebx
    85b3:	shl    ecx,0x9
    85b6:	movsxd rcx,ecx
    85b9:	sub    r12d,ebx
    85bc:	movsxd rbx,ebx
    85bf:	add    r13,rcx
    85c2:	add    rbp,rbx
    85c5:	test   r12d,r12d
    85c8:	jle    8680 <vmdk_read+0x140>
    85ce:	mov    rdx,rbp
    85d1:	xor    ecx,ecx
    85d3:	xor    esi,esi
    85d5:	mov    rdi,r15
    85d8:	shl    rdx,0x9
    85dc:	call   8140 <get_cluster_offset>
    85e1:	mov    esi,DWORD PTR [r14+0xc0]
    85e8:	mov    rcx,rax
    85eb:	mov    rax,rbp
    85ee:	cqo    
    85f0:	mov    rbx,rsi
    85f3:	idiv   rsi
    85f6:	sub    ebx,edx
    85f8:	cmp    ebx,r12d
    85fb:	cmovg  ebx,r12d
    85ff:	test   rcx,rcx
    8602:	je     8570 <vmdk_read+0x30>
    8608:	shl    edx,0x9
    860b:	mov    r8d,ebx
    860e:	mov    rdi,QWORD PTR [r14]
    8611:	shl    r8d,0x9
    8615:	movsxd rsi,edx
    8618:	mov    rdx,r13
    861b:	add    rsi,rcx
    861e:	mov    ecx,r8d
    8621:	mov    DWORD PTR [rsp+0x8],r8d
    8626:	call   17e40 <bdrv_pread>
    862b:	mov    r8d,DWORD PTR [rsp+0x8]
    8630:	cmp    r8d,eax
    8633:	jne    8668 <vmdk_read+0x128>
    8635:	movsxd rcx,r8d
    8638:	jmp    85b9 <vmdk_read+0x79>
    863d:	nop    DWORD PTR [rax]
    8640:	mov    ecx,ebx
    8642:	xor    esi,esi
    8644:	mov    rdi,r13
    8647:	shl    ecx,0x9
    864a:	movsxd rcx,ecx
    864d:	mov    rdx,rcx
    8650:	mov    QWORD PTR [rsp+0x8],rcx
    8655:	call   3240 <memset@plt>
    865a:	mov    rcx,QWORD PTR [rsp+0x8]
    865f:	jmp    85b9 <vmdk_read+0x79>
    8664:	nop    DWORD PTR [rax+0x0]
    8668:	add    rsp,0x18
    866c:	mov    eax,0xffffffff
    8671:	pop    rbx
    8672:	pop    rbp
    8673:	pop    r12
    8675:	pop    r13
    8677:	pop    r14
    8679:	pop    r15
    867b:	ret    
    867c:	nop    DWORD PTR [rax+0x0]
    8680:	add    rsp,0x18
    8684:	xor    eax,eax
    8686:	pop    rbx
    8687:	pop    rbp
    8688:	pop    r12
    868a:	pop    r13
    868c:	pop    r14
    868e:	pop    r15
    8690:	ret    
    8691:	data16 nop WORD PTR cs:[rax+rax*1+0x0]
    869c:	nop    DWORD PTR [rax+0x0]

00000000000086a0 <vmdk_write_cid.isra.7>:
    86a0:	push   r13
    86a2:	mov    ecx,0x2800
    86a7:	mov    r13d,esi
    86aa:	mov    esi,0x200
    86af:	push   r12
    86b1:	push   rbp
    86b2:	mov    rbp,rdi
    86b5:	push   rbx
    86b6:	sub    rsp,0x5018
    86bd:	mov    rdi,QWORD PTR [rdi]
    86c0:	mov    rax,QWORD PTR fs:0x28
    86c9:	mov    QWORD PTR [rsp+0x5008],rax
    86d1:	xor    eax,eax
    86d3:	mov    rbx,rsp
    86d6:	mov    rdx,rbx
    86d9:	call   17e40 <bdrv_pread>
    86de:	cmp    eax,0x2800
    86e3:	jne    87b0 <vmdk_write_cid.isra.7+0x110>
    86e9:	lea    rsi,[rip+0x16a93]        # 1f183 <Te0+0x403>
    86f0:	mov    rdi,rbx
    86f3:	lea    r12,[rsp+0x2800]
    86fb:	call   36a0 <strstr@plt>
    8700:	mov    esi,0x2800
    8705:	mov    rdi,r12
    8708:	mov    rdx,rax
    870b:	call   48a0 <pstrcpy>
    8710:	lea    rsi,[rip+0x16a72]        # 1f189 <Te0+0x409>
    8717:	mov    rdi,rbx
    871a:	call   36a0 <strstr@plt>
    871f:	test   rax,rax
    8722:	je     8762 <vmdk_write_cid.isra.7+0xc2>
    8724:	lea    rdi,[rax+0x4]
    8728:	mov    rax,rbx
    872b:	mov    edx,0x1
    8730:	mov    r9d,r13d
    8733:	sub    rax,rdi
    8736:	lea    r8,[rip+0x16a50]        # 1f18d <Te0+0x40d>
    873d:	mov    rcx,0xffffffffffffffff
    8744:	lea    rsi,[rax+0x2800]
    874b:	xor    eax,eax
    874d:	call   3060 <__snprintf_chk@plt>
    8752:	mov    rdx,r12
    8755:	mov    esi,0x2800
    875a:	mov    rdi,rbx
    875d:	call   48e0 <pstrcat>
    8762:	mov    rdi,QWORD PTR [rbp+0x0]
    8766:	mov    ecx,0x2800
    876b:	mov    rdx,rbx
    876e:	mov    esi,0x200
    8773:	call   18450 <bdrv_pwrite>
    8778:	cmp    eax,0x2800
    877d:	setne  al
    8780:	movzx  eax,al
    8783:	neg    eax
    8785:	mov    rcx,QWORD PTR [rsp+0x5008]
    878d:	xor    rcx,QWORD PTR fs:0x28
    8796:	jne    87b7 <vmdk_write_cid.isra.7+0x117>
    8798:	add    rsp,0x5018
    879f:	pop    rbx
    87a0:	pop    rbp
    87a1:	pop    r12
    87a3:	pop    r13
    87a5:	ret    
    87a6:	nop    WORD PTR cs:[rax+rax*1+0x0]
    87b0:	mov    eax,0xffffffff
    87b5:	jmp    8785 <vmdk_write_cid.isra.7+0xe5>
    87b7:	call   3190 <__stack_chk_fail@plt>
    87bc:	nop    DWORD PTR [rax+0x0]

00000000000087c0 <vmdk_write>:
    87c0:	push   r15
    87c2:	push   r14
    87c4:	push   r13
    87c6:	push   r12
    87c8:	mov    r12,rsi
    87cb:	push   rbp
    87cc:	mov    ebp,ecx
    87ce:	push   rbx
    87cf:	sub    rsp,0x48
    87d3:	mov    r8,QWORD PTR [rdi]
    87d6:	mov    r14,QWORD PTR [rdi+0x40]
    87da:	mov    QWORD PTR [rsp+0x10],rdi
    87df:	mov    rcx,QWORD PTR fs:0x28
    87e8:	mov    QWORD PTR [rsp+0x38],rcx
    87ed:	xor    ecx,ecx
    87ef:	cmp    r8,rsi
    87f2:	jl     8982 <vmdk_write+0x1c2>
    87f8:	lea    rax,[rsp+0x20]
    87fd:	mov    r13,rdx
    8800:	mov    QWORD PTR [rsp+0x18],rax
    8805:	test   ebp,ebp
    8807:	jg     8834 <vmdk_write+0x74>
    8809:	jmp    897e <vmdk_write+0x1be>
    880e:	xchg   ax,ax
    8810:	mov    eax,DWORD PTR [rip+0x1fcfa]        # 28510 <cid_update.13920>
    8816:	sub    ebp,ebx
    8818:	movsxd r9,r15d
    881b:	movsxd rbx,ebx
    881e:	add    r12,rbx
    8821:	add    r13,r9
    8824:	test   eax,eax
    8826:	je     8958 <vmdk_write+0x198>
    882c:	test   ebp,ebp
    882e:	jle    897e <vmdk_write+0x1be>
    8834:	mov    ebx,DWORD PTR [r14+0xc0]
    883b:	mov    rdx,r12
    883e:	mov    rsi,QWORD PTR [rsp+0x18]
    8843:	mov    ecx,0x1
    8848:	mov    rdi,QWORD PTR [rsp+0x10]
    884d:	lea    r8d,[rbx-0x1]
    8851:	and    r8d,r12d
    8854:	sub    ebx,r8d
    8857:	mov    DWORD PTR [rsp+0x8],r8d
    885c:	cmp    ebx,ebp
    885e:	cmovg  ebx,ebp
    8861:	shl    rdx,0x9
    8865:	call   8140 <get_cluster_offset>
    886a:	mov    r8d,DWORD PTR [rsp+0x8]
    886f:	test   rax,rax
    8872:	je     8930 <vmdk_write+0x170>
    8878:	shl    r8d,0x9
    887c:	mov    r15d,ebx
    887f:	mov    rdi,QWORD PTR [r14]
    8882:	mov    rdx,r13
    8885:	shl    r15d,0x9
    8889:	movsxd rsi,r8d
    888c:	add    rsi,rax
    888f:	mov    ecx,r15d
    8892:	call   18450 <bdrv_pwrite>
    8897:	cmp    r15d,eax
    889a:	jne    8930 <vmdk_write+0x170>
    88a0:	mov    edx,DWORD PTR [rsp+0x30]
    88a4:	test   edx,edx
    88a6:	je     8810 <vmdk_write+0x50>
    88ac:	mov    rax,QWORD PTR [rsp+0x10]
    88b1:	mov    edx,DWORD PTR [rsp+0x28]
    88b5:	mov    ecx,0x4
    88ba:	mov    r8,QWORD PTR [rax+0x40]
    88be:	mov    eax,DWORD PTR [rsp+0x2c]
    88c2:	shl    rax,0x9
    88c6:	mov    rdi,QWORD PTR [r8]
    88c9:	mov    QWORD PTR [rsp+0x8],r8
    88ce:	lea    rsi,[rax+rdx*4]
    88d2:	mov    rdx,QWORD PTR [rsp+0x18]
    88d7:	call   18450 <bdrv_pwrite>
    88dc:	cmp    eax,0x4
    88df:	jne    8930 <vmdk_write+0x170>
    88e1:	mov    r8,QWORD PTR [rsp+0x8]
    88e6:	cmp    QWORD PTR [r8+0x10],0x0
    88eb:	je     8810 <vmdk_write+0x50>
    88f1:	mov    edx,DWORD PTR [rsp+0x24]
    88f5:	mov    rax,QWORD PTR [r8+0x20]
    88f9:	mov    ecx,0x4
    88fe:	mov    eax,DWORD PTR [rax+rdx*4]
    8901:	mov    edx,DWORD PTR [rsp+0x28]
    8905:	mov    DWORD PTR [rsp+0x2c],eax
    8909:	shl    rax,0x9
    890d:	mov    rdi,QWORD PTR [r8]
    8910:	lea    rsi,[rax+rdx*4]
    8914:	mov    rdx,QWORD PTR [rsp+0x18]
    8919:	call   18450 <bdrv_pwrite>
    891e:	cmp    eax,0x4
    8921:	je     8810 <vmdk_write+0x50>
    8927:	nop    WORD PTR [rax+rax*1+0x0]
    8930:	mov    eax,0xffffffff
    8935:	mov    rcx,QWORD PTR [rsp+0x38]
    893a:	xor    rcx,QWORD PTR fs:0x28
    8943:	jne    89a6 <vmdk_write+0x1e6>
    8945:	add    rsp,0x48
    8949:	pop    rbx
    894a:	pop    rbp
    894b:	pop    r12
    894d:	pop    r13
    894f:	pop    r14
    8951:	pop    r15
    8953:	ret    
    8954:	nop    DWORD PTR [rax+0x0]
    8958:	xor    edi,edi
    895a:	call   33e0 <time@plt>
    895f:	mov    rcx,QWORD PTR [rsp+0x10]
    8964:	mov    esi,eax
    8966:	mov    rdi,QWORD PTR [rcx+0x40]
    896a:	call   86a0 <vmdk_write_cid.isra.7>
    896f:	add    DWORD PTR [rip+0x1fb9a],0x1        # 28510 <cid_update.13920>
    8976:	test   ebp,ebp
    8978:	jg     8834 <vmdk_write+0x74>
    897e:	xor    eax,eax
    8980:	jmp    8935 <vmdk_write+0x175>
    8982:	mov    rdi,QWORD PTR [rip+0x1fb77]        # 28500 <stderr@@GLIBC_2.2.5>
    8989:	mov    rcx,rsi
    898c:	lea    rdx,[rip+0x1681d]        # 1f1b0 <Te0+0x430>
    8993:	xor    eax,eax
    8995:	mov    esi,0x1
    899a:	call   3630 <__fprintf_chk@plt>
    899f:	mov    eax,0xffffffff
    89a4:	jmp    8935 <vmdk_write+0x175>
    89a6:	call   3190 <__stack_chk_fail@plt>
    89ab:	nop    DWORD PTR [rax+rax*1+0x0]

00000000000089b0 <vmdk_parent_open.isra.8>:
    89b0:	push   r12
    89b2:	mov    ecx,0x2800
    89b7:	mov    r12,rsi
    89ba:	mov    esi,0x200
    89bf:	push   rbp
    89c0:	mov    rbp,rdi
    89c3:	push   rbx
    89c4:	sub    rsp,0x2ca0
    89cb:	mov    rdi,QWORD PTR [rdi]
    89ce:	mov    rax,QWORD PTR fs:0x28
    89d7:	mov    QWORD PTR [rsp+0x2c98],rax
    89df:	xor    eax,eax
    89e1:	lea    rbx,[rsp+0x490]
    89e9:	mov    rdx,rbx
    89ec:	call   17e40 <bdrv_pread>
    89f1:	cmp    eax,0x2800
    89f6:	jne    8b40 <vmdk_parent_open.isra.8+0x190>
    89fc:	mov    rdi,rbx
    89ff:	lea    rsi,[rip+0x1678b]        # 1f191 <Te0+0x411>
    8a06:	call   36a0 <strstr@plt>
    8a0b:	mov    rbx,rax
    8a0e:	xor    eax,eax
    8a10:	test   rbx,rbx
    8a13:	je     8ae5 <vmdk_parent_open.isra.8+0x135>
    8a19:	add    rbx,0x14
    8a1d:	mov    esi,0x22
    8a22:	mov    rdi,rbx
    8a25:	call   31d0 <strchr@plt>
    8a2a:	test   rax,rax
    8a2d:	je     8b40 <vmdk_parent_open.isra.8+0x190>
    8a33:	sub    rax,rbx
    8a36:	cmp    rax,0x3ff
    8a3c:	ja     8b40 <vmdk_parent_open.isra.8+0x190>
    8a42:	lea    rsi,[rax+0x1]
    8a46:	mov    rax,QWORD PTR [rbp+0x0]
    8a4a:	mov    rdx,rbx
    8a4d:	lea    rdi,[rax+0x448]
    8a54:	call   48a0 <pstrcpy>
    8a59:	mov    rax,QWORD PTR [rbp+0x0]
    8a5d:	mov    rdx,rsp
    8a60:	mov    edi,0x1
    8a65:	lea    rsi,[rax+0x448]
    8a6c:	call   3150 <__xstat64@plt>
    8a71:	test   eax,eax
    8a73:	mov    rax,QWORD PTR [rbp+0x0]
    8a77:	jne    8b08 <vmdk_parent_open.isra.8+0x158>
    8a7d:	lea    rbx,[rsp+0x90]
    8a85:	lea    rdx,[rax+0x448]
    8a8c:	mov    esi,0x400
    8a91:	mov    rdi,rbx
    8a94:	call   48a0 <pstrcpy>
    8a99:	mov    r12,QWORD PTR [rbp+0x0]
    8a9d:	lea    rdi,[rip+0x16b9e]        # 1f642 <desc_template.13939+0x382>
    8aa4:	call   17330 <bdrv_new>
    8aa9:	mov    QWORD PTR [r12+0x850],rax
    8ab1:	mov    rax,QWORD PTR [rbp+0x0]
    8ab5:	mov    rdi,QWORD PTR [rax+0x850]
    8abc:	test   rdi,rdi
    8abf:	je     8b30 <vmdk_parent_open.isra.8+0x180>
    8ac1:	mov    DWORD PTR [rip+0x1fa49],0x1        # 28514 <parent_open>
    8acb:	xor    edx,edx
    8acd:	mov    rsi,rbx
    8ad0:	call   18440 <bdrv_open>
    8ad5:	test   eax,eax
    8ad7:	js     8b2c <vmdk_parent_open.isra.8+0x17c>
    8ad9:	mov    DWORD PTR [rip+0x1fa31],0x0        # 28514 <parent_open>
    8ae3:	xor    eax,eax
    8ae5:	mov    rcx,QWORD PTR [rsp+0x2c98]
    8aed:	xor    rcx,QWORD PTR fs:0x28
    8af6:	jne    8b47 <vmdk_parent_open.isra.8+0x197>
    8af8:	add    rsp,0x2ca0
    8aff:	pop    rbx
    8b00:	pop    rbp
    8b01:	pop    r12
    8b03:	ret    
    8b04:	nop    DWORD PTR [rax+0x0]
    8b08:	lea    rbx,[rsp+0x90]
    8b10:	lea    rcx,[rax+0x448]
    8b17:	mov    rdx,r12
    8b1a:	mov    esi,0x400
    8b1f:	mov    rdi,rbx
    8b22:	call   17220 <path_combine>
    8b27:	jmp    8a99 <vmdk_parent_open.isra.8+0xe9>
    8b2c:	mov    rax,QWORD PTR [rbp+0x0]
    8b30:	mov    rdi,rax
    8b33:	call   174e0 <bdrv_close>
    8b38:	nop    DWORD PTR [rax+rax*1+0x0]
    8b40:	mov    eax,0xffffffff
    8b45:	jmp    8ae5 <vmdk_parent_open.isra.8+0x135>
    8b47:	call   3190 <__stack_chk_fail@plt>
    8b4c:	nop    DWORD PTR [rax+0x0]

0000000000008b50 <vmdk_open>:
    8b50:	push   r13
    8b52:	push   r12
    8b54:	mov    r12,rsi
    8b57:	push   rbp
    8b58:	mov    rbp,rdi
    8b5b:	push   rbx
    8b5c:	sub    rsp,0xa8
    8b63:	mov    ecx,DWORD PTR [rip+0x1f9ab]        # 28514 <parent_open>
    8b69:	mov    rbx,QWORD PTR [rdi+0x40]
    8b6d:	mov    rax,QWORD PTR fs:0x28
    8b76:	mov    QWORD PTR [rsp+0x98],rax
    8b7e:	xor    eax,eax
    8b80:	test   ecx,ecx
    8b82:	mov    rdi,rbx
    8b85:	cmovne edx,eax
    8b88:	call   183c0 <bdrv_file_open>
    8b8d:	test   eax,eax
    8b8f:	js     8cfd <vmdk_open+0x1ad>
    8b95:	mov    rdi,QWORD PTR [rbx]
    8b98:	xor    esi,esi
    8b9a:	lea    rdx,[rsp+0xc]
    8b9f:	mov    ecx,0x4
    8ba4:	call   17e40 <bdrv_pread>
    8ba9:	cmp    eax,0x4
    8bac:	jne    8d90 <vmdk_open+0x240>
    8bb2:	mov    eax,DWORD PTR [rsp+0xc]
    8bb6:	bswap  eax
    8bb8:	mov    DWORD PTR [rsp+0xc],eax
    8bbc:	cmp    eax,0x434f5744
    8bc1:	je     8d28 <vmdk_open+0x1d8>
    8bc7:	cmp    eax,0x4b444d56
    8bcc:	jne    8d90 <vmdk_open+0x240>
    8bd2:	mov    rdi,QWORD PTR [rbx]
    8bd5:	lea    rdx,[rsp+0x40]
    8bda:	mov    ecx,0x49
    8bdf:	mov    esi,0x4
    8be4:	call   17e40 <bdrv_pread>
    8be9:	cmp    eax,0x49
    8bec:	jne    8d90 <vmdk_open+0x240>
    8bf2:	mov    rax,QWORD PTR [rsp+0x48]
    8bf7:	mov    rdx,QWORD PTR [rsp+0x50]
    8bfc:	mov    QWORD PTR [rbp+0x0],rax
    8c00:	mov    eax,DWORD PTR [rsp+0x68]
    8c04:	mov    DWORD PTR [rbx+0xc0],edx
    8c0a:	mov    DWORD PTR [rbx+0x30],eax
    8c0d:	imul   eax,edx
    8c10:	mov    DWORD PTR [rbx+0x2c],eax
    8c13:	test   eax,eax
    8c15:	je     8d90 <vmdk_open+0x240>
    8c1b:	mov    ecx,eax
    8c1d:	mov    rax,QWORD PTR [rbp+0x0]
    8c21:	mov    rsi,r12
    8c24:	add    rax,rcx
    8c27:	sub    rax,0x1
    8c2b:	cqo    
    8c2d:	idiv   rcx
    8c30:	mov    edx,DWORD PTR [rip+0x1f8de]        # 28514 <parent_open>
    8c36:	mov    DWORD PTR [rbx+0x28],eax
    8c39:	mov    rax,QWORD PTR [rsp+0x6c]
    8c3e:	shl    rax,0x9
    8c42:	mov    QWORD PTR [rbx+0x8],rax
    8c46:	mov    rax,QWORD PTR [rsp+0x74]
    8c4b:	shl    rax,0x9
    8c4f:	mov    QWORD PTR [rbx+0x10],rax
    8c53:	xor    eax,eax
    8c55:	test   edx,edx
    8c57:	setne  al
    8c5a:	mov    DWORD PTR [rbx+0xc8],eax
    8c60:	mov    rdi,QWORD PTR [rbp+0x40]
    8c64:	call   89b0 <vmdk_parent_open.isra.8>
    8c69:	test   eax,eax
    8c6b:	jne    8d90 <vmdk_open+0x240>
    8c71:	mov    rdi,QWORD PTR [rbp+0x40]
    8c75:	mov    esi,0x1
    8c7a:	call   8040 <vmdk_read_cid.isra.2>
    8c7f:	mov    DWORD PTR [rbx+0xc4],eax
    8c85:	mov    eax,DWORD PTR [rbx+0x28]
    8c88:	lea    ebp,[rax*4+0x0]
    8c8f:	movsxd r13,ebp
    8c92:	mov    rdi,r13
    8c95:	call   4cb0 <qemu_malloc>
    8c9a:	mov    rsi,QWORD PTR [rbx+0x8]
    8c9e:	mov    rdi,QWORD PTR [rbx]
    8ca1:	mov    ecx,ebp
    8ca3:	mov    QWORD PTR [rbx+0x18],rax
    8ca7:	mov    rdx,rax
    8caa:	call   17e40 <bdrv_pread>
    8caf:	mov    r12d,eax
    8cb2:	cmp    eax,ebp
    8cb4:	jne    8d90 <vmdk_open+0x240>
    8cba:	cmp    QWORD PTR [rbx+0x10],0x0
    8cbf:	je     8ce8 <vmdk_open+0x198>
    8cc1:	mov    rdi,r13
    8cc4:	call   4cb0 <qemu_malloc>
    8cc9:	mov    rsi,QWORD PTR [rbx+0x10]
    8ccd:	mov    rdi,QWORD PTR [rbx]
    8cd0:	mov    ecx,r12d
    8cd3:	mov    QWORD PTR [rbx+0x20],rax
    8cd7:	mov    rdx,rax
    8cda:	call   17e40 <bdrv_pread>
    8cdf:	cmp    eax,r12d
    8ce2:	jne    8d90 <vmdk_open+0x240>
    8ce8:	mov    edi,DWORD PTR [rbx+0x30]
    8ceb:	shl    edi,0x4
    8cee:	shl    rdi,0x2
    8cf2:	call   4cb0 <qemu_malloc>
    8cf7:	mov    QWORD PTR [rbx+0x38],rax
    8cfb:	xor    eax,eax
    8cfd:	mov    rcx,QWORD PTR [rsp+0x98]
    8d05:	xor    rcx,QWORD PTR fs:0x28
    8d0e:	jne    8dbd <vmdk_open+0x26d>
    8d14:	add    rsp,0xa8
    8d1b:	pop    rbx
    8d1c:	pop    rbp
    8d1d:	pop    r12
    8d1f:	pop    r13
    8d21:	ret    
    8d22:	nop    WORD PTR [rax+rax*1+0x0]
    8d28:	mov    rdi,QWORD PTR [rbx]
    8d2b:	lea    rdx,[rsp+0x10]
    8d30:	mov    ecx,0x28
    8d35:	mov    esi,0x4
    8d3a:	call   17e40 <bdrv_pread>
    8d3f:	cmp    eax,0x28
    8d42:	jne    8d90 <vmdk_open+0x240>
    8d44:	mov    eax,DWORD PTR [rsp+0x1c]
    8d48:	mov    DWORD PTR [rbx+0x30],0x200
    8d4f:	mov    DWORD PTR [rbx+0x28],0x40
    8d56:	mov    DWORD PTR [rbx+0xc0],eax
    8d5c:	mov    eax,DWORD PTR [rsp+0x18]
    8d60:	mov    QWORD PTR [rbp+0x0],rax
    8d64:	mov    eax,DWORD PTR [rsp+0x20]
    8d68:	mov    QWORD PTR [rbx+0x10],0x0
    8d70:	shl    eax,0x9
    8d73:	mov    QWORD PTR [rbx+0x8],rax
    8d77:	mov    eax,DWORD PTR [rbx+0x30]
    8d7a:	imul   eax,DWORD PTR [rbx+0xc0]
    8d81:	mov    DWORD PTR [rbx+0x2c],eax
    8d84:	jmp    8c85 <vmdk_open+0x135>
    8d89:	nop    DWORD PTR [rax+0x0]
    8d90:	mov    rdi,QWORD PTR [rbx+0x20]
    8d94:	call   4ca0 <qemu_free>
    8d99:	mov    rdi,QWORD PTR [rbx+0x18]
    8d9d:	call   4ca0 <qemu_free>
    8da2:	mov    rdi,QWORD PTR [rbx+0x38]
    8da6:	call   4ca0 <qemu_free>
    8dab:	mov    rdi,QWORD PTR [rbx]
    8dae:	call   17470 <bdrv_delete>
    8db3:	mov    eax,0xffffffff
    8db8:	jmp    8cfd <vmdk_open+0x1ad>
    8dbd:	call   3190 <__stack_chk_fail@plt>
    8dc2:	data16 nop WORD PTR cs:[rax+rax*1+0x0]
    8dcd:	nop    DWORD PTR [rax]

0000000000008dd0 <vmdk_create.part.5>:
    8dd0:	push   r15
    8dd2:	mov    r15,rsi
    8dd5:	mov    esi,0x241
    8dda:	push   r14
    8ddc:	mov    r14,rdi
    8ddf:	push   r13
    8de1:	push   r12
    8de3:	push   rbp
    8de4:	push   rbx
    8de5:	sub    rsp,0x488
    8dec:	mov    DWORD PTR [rsp+0x4],edx
    8df0:	mov    edx,0x1a4
    8df5:	mov    rax,QWORD PTR fs:0x28
    8dfe:	mov    QWORD PTR [rsp+0x478],rax
    8e06:	xor    eax,eax
    8e08:	call   3500 <open64@plt>
    8e0d:	test   eax,eax
    8e0f:	js     9103 <vmdk_create.part.5+0x333>
    8e15:	mov    ebx,eax
    8e17:	lea    rsi,[rsp+0x1c]
    8e1c:	movabs rax,0x300000001
    8e26:	mov    DWORD PTR [rsp+0x1c],0x564d444b
    8e2e:	mov    QWORD PTR [rsp+0x20],rax
    8e33:	mov    rax,r15
    8e36:	mov    edi,ebx
    8e38:	lea    rbp,[rsp+0x20]
    8e3d:	add    rax,0x7f
    8e41:	lea    r12,[r15+0xfe]
    8e48:	mov    BYTE PTR [rsp+0x64],0x0
    8e4d:	cmovns r12,rax
    8e51:	mov    QWORD PTR [rsp+0x28],r15
    8e56:	mov    QWORD PTR [rsp+0x30],0x80
    8e5f:	sar    r12,0x7
    8e63:	mov    DWORD PTR [rsp+0x48],0x200
    8e6b:	add    r12d,0x1ff
    8e72:	mov    QWORD PTR [rsp+0x38],0x1
    8e7b:	shr    r12d,0x9
    8e7f:	mov    DWORD PTR [rsp+0x65],0xa0d200a
    8e87:	mov    eax,r12d
    8e8a:	lea    edx,[r12*4+0x0]
    8e92:	mov    QWORD PTR [rsp+0x40],0x14
    8e9b:	lea    rax,[rax*4+0x1ff]
    8ea3:	mov    QWORD PTR [rsp+0x4c],0x15
    8eac:	mov    r13,rax
    8eaf:	shr    r13,0x9
    8eb3:	lea    rax,[r13+rdx*1+0x15]
    8eb8:	mov    QWORD PTR [rsp+0x8],r13
    8ebd:	mov    QWORD PTR [rsp+0x54],rax
    8ec2:	add    rax,r13
    8ec5:	lea    rax,[rdx+rax*1+0x7f]
    8eca:	mov    edx,0x4
    8ecf:	and    eax,0x3fffff80
    8ed4:	mov    QWORD PTR [rsp+0x5c],rax
    8ed9:	call   3130 <write@plt>
    8ede:	mov    edx,0x49
    8ee3:	mov    rsi,rbp
    8ee6:	mov    edi,ebx
    8ee8:	call   3130 <write@plt>
    8eed:	mov    rsi,QWORD PTR [rsp+0x5c]
    8ef2:	mov    edi,ebx
    8ef4:	shl    rsi,0x9
    8ef8:	call   34c0 <ftruncate64@plt>
    8efd:	mov    rsi,QWORD PTR [rsp+0x4c]
    8f02:	xor    edx,edx
    8f04:	mov    edi,ebx
    8f06:	shl    rsi,0x9
    8f0a:	call   3620 <lseek64@plt>
    8f0f:	mov    eax,DWORD PTR [rsp+0x4c]
    8f13:	add    eax,r13d
    8f16:	mov    DWORD PTR [rsp+0x18],eax
    8f1a:	test   r12d,r12d
    8f1d:	je     90e0 <vmdk_create.part.5+0x310>
    8f23:	xor    ebp,ebp
    8f25:	lea    r13,[rsp+0x18]
    8f2a:	jmp    8f32 <vmdk_create.part.5+0x162>
    8f2c:	nop    DWORD PTR [rax+0x0]
    8f30:	mov    ebp,eax
    8f32:	mov    edx,0x4
    8f37:	mov    rsi,r13
    8f3a:	mov    edi,ebx
    8f3c:	call   3130 <write@plt>
    8f41:	lea    eax,[rbp+0x1]
    8f44:	add    DWORD PTR [rsp+0x18],0x4
    8f49:	cmp    eax,r12d
    8f4c:	jne    8f30 <vmdk_create.part.5+0x160>
    8f4e:	mov    rsi,QWORD PTR [rsp+0x54]
    8f53:	xor    edx,edx
    8f55:	mov    edi,ebx
    8f57:	xor    r12d,r12d
    8f5a:	shl    rsi,0x9
    8f5e:	call   3620 <lseek64@plt>
    8f63:	mov    eax,DWORD PTR [rsp+0x8]
    8f67:	add    eax,DWORD PTR [rsp+0x54]
    8f6b:	mov    DWORD PTR [rsp+0x18],eax
    8f6f:	jmp    8f7b <vmdk_create.part.5+0x1ab>
    8f71:	nop    DWORD PTR [rax+0x0]
    8f78:	mov    r12d,eax
    8f7b:	mov    edx,0x4
    8f80:	mov    rsi,r13
    8f83:	mov    edi,ebx
    8f85:	call   3130 <write@plt>
    8f8a:	lea    eax,[r12+0x1]
    8f8f:	add    DWORD PTR [rsp+0x18],0x4
    8f94:	cmp    r12d,ebp
    8f97:	jne    8f78 <vmdk_create.part.5+0x1a8>
    8f99:	mov    rdi,r14
    8f9c:	mov    esi,0x5c
    8fa1:	lea    r12,[rsp+0x70]
    8fa6:	call   3200 <strrchr@plt>
    8fab:	mov    esi,0x2f
    8fb0:	lea    rdx,[rax+0x1]
    8fb4:	test   rax,rax
    8fb7:	cmovne r14,rdx
    8fbb:	mov    rdi,r14
    8fbe:	call   3200 <strrchr@plt>
    8fc3:	mov    esi,0x3a
    8fc8:	lea    rdx,[rax+0x1]
    8fcc:	test   rax,rax
    8fcf:	cmovne r14,rdx
    8fd3:	mov    rdi,r14
    8fd6:	call   3200 <strrchr@plt>
    8fdb:	test   rax,rax
    8fde:	lea    rdx,[rax+0x1]
    8fe2:	mov    rax,r15
    8fe5:	cmovne r14,rdx
    8fe9:	movabs rdx,0x8208208208208209
    8ff3:	imul   rdx
    8ff6:	mov    rax,r15
    8ff9:	sar    rax,0x3f
    8ffd:	lea    rbp,[rdx+r15*1]
    9001:	sar    rbp,0x9
    9005:	sub    rbp,rax
    9008:	mov    eax,DWORD PTR [rsp+0x4]
    900c:	and    eax,0x4
    900f:	cmp    eax,0x1
    9012:	sbb    r13d,r13d
    9015:	xor    edi,edi
    9017:	call   33e0 <time@plt>
    901c:	and    r13d,0xfffffffe
    9020:	push   rbp
    9021:	mov    ecx,0x400
    9026:	add    r13d,0x6
    902a:	mov    r9d,eax
    902d:	lea    r8,[rip+0x1628c]        # 1f2c0 <desc_template.13939>
    9034:	xor    eax,eax
    9036:	push   r13
    9038:	mov    edx,0x1
    903d:	mov    esi,0x400
    9042:	mov    rdi,r12
    9045:	push   r14
    9047:	push   r15
    9049:	call   3060 <__snprintf_chk@plt>
    904e:	add    rsp,0x20
    9052:	mov    rsi,QWORD PTR [rsp+0x38]
    9057:	xor    edx,edx
    9059:	mov    edi,ebx
    905b:	shl    rsi,0x9
    905f:	call   3620 <lseek64@plt>
    9064:	mov    rdx,r12
    9067:	mov    ecx,DWORD PTR [rdx]
    9069:	add    rdx,0x4
    906d:	lea    eax,[rcx-0x1010101]
    9073:	not    ecx
    9075:	and    eax,ecx
    9077:	and    eax,0x80808080
    907c:	je     9067 <vmdk_create.part.5+0x297>
    907e:	mov    ecx,eax
    9080:	mov    rsi,r12
    9083:	mov    edi,ebx
    9085:	shr    ecx,0x10
    9088:	test   eax,0x8080
    908d:	cmove  eax,ecx
    9090:	lea    rcx,[rdx+0x2]
    9094:	cmove  rdx,rcx
    9098:	mov    ecx,eax
    909a:	add    cl,al
    909c:	sbb    rdx,0x3
    90a0:	sub    rdx,r12
    90a3:	call   3130 <write@plt>
    90a8:	mov    edi,ebx
    90aa:	call   3260 <close@plt>
    90af:	xor    eax,eax
    90b1:	mov    rcx,QWORD PTR [rsp+0x478]
    90b9:	xor    rcx,QWORD PTR fs:0x28
    90c2:	jne    910a <vmdk_create.part.5+0x33a>
    90c4:	add    rsp,0x488
    90cb:	pop    rbx
    90cc:	pop    rbp
    90cd:	pop    r12
    90cf:	pop    r13
    90d1:	pop    r14
    90d3:	pop    r15
    90d5:	ret    
    90d6:	nop    WORD PTR cs:[rax+rax*1+0x0]
    90e0:	mov    rsi,QWORD PTR [rsp+0x54]
    90e5:	xor    edx,edx
    90e7:	mov    edi,ebx
    90e9:	shl    rsi,0x9
    90ed:	call   3620 <lseek64@plt>
    90f2:	mov    eax,DWORD PTR [rsp+0x8]
    90f6:	add    eax,DWORD PTR [rsp+0x54]
    90fa:	mov    DWORD PTR [rsp+0x18],eax
    90fe:	jmp    8f99 <vmdk_create.part.5+0x1c9>
    9103:	mov    eax,0xffffffff
    9108:	jmp    90b1 <vmdk_create.part.5+0x2e1>
    910a:	call   3190 <__stack_chk_fail@plt>
    910f:	nop

0000000000009110 <vmdk_create>:
    9110:	test   rdx,rdx
    9113:	je     9120 <vmdk_create+0x10>
    9115:	mov    rsi,rdx
    9118:	jmp    7bb0 <vmdk_snapshot_create>
    911d:	nop    DWORD PTR [rax]
    9120:	mov    edx,ecx
    9122:	jmp    8dd0 <vmdk_create.part.5>
    9127:	nop    WORD PTR [rax+rax*1+0x0]

0000000000009130 <cloop_close>:
    9130:	push   rbx
    9131:	mov    rbx,QWORD PTR [rdi+0x40]
    9135:	mov    edi,DWORD PTR [rbx]
    9137:	call   3260 <close@plt>
    913c:	mov    eax,DWORD PTR [rbx+0x8]
    913f:	test   eax,eax
    9141:	jne    9160 <cloop_close+0x30>
    9143:	mov    rdi,QWORD PTR [rbx+0x20]
    9147:	call   3070 <free@plt>
    914c:	mov    rdi,QWORD PTR [rbx+0x28]
    9150:	call   3070 <free@plt>
    9155:	lea    rdi,[rbx+0x30]
    9159:	pop    rbx
    915a:	jmp    33c0 <inflateEnd@plt>
    915f:	nop
    9160:	mov    rdi,QWORD PTR [rbx+0x10]
    9164:	call   3070 <free@plt>
    9169:	jmp    9143 <cloop_close+0x13>
    916b:	nop    DWORD PTR [rax+rax*1+0x0]

0000000000009170 <cloop_read>:
    9170:	push   r15
    9172:	push   r14
    9174:	push   r13
    9176:	push   r12
    9178:	push   rbp
    9179:	push   rbx
    917a:	sub    rsp,0x18
    917e:	mov    rbp,QWORD PTR [rdi+0x40]
    9182:	test   ecx,ecx
    9184:	jle    929a <cloop_read+0x12a>
    918a:	lea    eax,[rcx-0x1]
    918d:	mov    r13,rsi
    9190:	mov    r12,rdx
    9193:	lea    rax,[rsi+rax*1+0x1]
    9198:	mov    QWORD PTR [rsp],rax
    919c:	lea    rax,[rbp+0x30]
    91a0:	mov    QWORD PTR [rsp+0x8],rax
    91a5:	nop    DWORD PTR [rax]
    91a8:	mov    ebx,DWORD PTR [rbp+0x18]
    91ab:	mov    rax,r13
    91ae:	cqo    
    91b0:	idiv   rbx
    91b3:	mov    rbx,rdx
    91b6:	mov    r14,rax
    91b9:	cmp    eax,DWORD PTR [rbp+0x1c]
    91bc:	je     9247 <cloop_read+0xd7>
    91c2:	mov    rdx,QWORD PTR [rbp+0x10]
    91c6:	cdqe   
    91c8:	mov    edi,DWORD PTR [rbp+0x0]
    91cb:	add    rax,0x1
    91cf:	mov    rsi,QWORD PTR [rdx+rax*8-0x8]
    91d4:	mov    r15,QWORD PTR [rdx+rax*8]
    91d8:	xor    edx,edx
    91da:	sub    r15d,esi
    91dd:	call   3620 <lseek64@plt>
    91e2:	mov    rsi,QWORD PTR [rbp+0x20]
    91e6:	mov    edi,DWORD PTR [rbp+0x0]
    91e9:	mov    edx,r15d
    91ec:	call   4600 <qemu_read_ok>
    91f1:	test   eax,eax
    91f3:	js     92b0 <cloop_read+0x140>
    91f9:	mov    rax,QWORD PTR [rbp+0x20]
    91fd:	mov    DWORD PTR [rbp+0x38],r15d
    9201:	mov    r15,QWORD PTR [rsp+0x8]
    9206:	mov    QWORD PTR [rbp+0x30],rax
    920a:	mov    rax,QWORD PTR [rbp+0x28]
    920e:	mov    rdi,r15
    9211:	mov    QWORD PTR [rbp+0x48],rax
    9215:	mov    eax,DWORD PTR [rbp+0x4]
    9218:	mov    DWORD PTR [rbp+0x50],eax
    921b:	call   35d0 <inflateReset@plt>
    9220:	test   eax,eax
    9222:	jne    92b0 <cloop_read+0x140>
    9228:	mov    esi,0x4
    922d:	mov    rdi,r15
    9230:	call   30f0 <inflate@plt>
    9235:	cmp    eax,0x1
    9238:	jne    92b0 <cloop_read+0x140>
    923a:	mov    eax,DWORD PTR [rbp+0x4]
    923d:	cmp    QWORD PTR [rbp+0x58],rax
    9241:	jne    92b0 <cloop_read+0x140>
    9243:	mov    DWORD PTR [rbp+0x1c],r14d
    9247:	shl    ebx,0x9
    924a:	lea    rdi,[r12+0x8]
    924f:	mov    rcx,r12
    9252:	add    r13,0x1
    9256:	mov    esi,ebx
    9258:	add    rsi,QWORD PTR [rbp+0x28]
    925c:	and    rdi,0xfffffffffffffff8
    9260:	add    r12,0x200
    9267:	mov    rax,QWORD PTR [rsi]
    926a:	sub    rcx,rdi
    926d:	mov    QWORD PTR [r12-0x200],rax
    9275:	mov    rax,QWORD PTR [rsi+0x1f8]
    927c:	sub    rsi,rcx
    927f:	add    ecx,0x200
    9285:	shr    ecx,0x3
    9288:	mov    QWORD PTR [r12-0x8],rax
    928d:	rep movs QWORD PTR es:[rdi],QWORD PTR ds:[rsi]
    9290:	cmp    QWORD PTR [rsp],r13
    9294:	jne    91a8 <cloop_read+0x38>
    929a:	add    rsp,0x18
    929e:	xor    eax,eax
    92a0:	pop    rbx
    92a1:	pop    rbp
    92a2:	pop    r12
    92a4:	pop    r13
    92a6:	pop    r14
    92a8:	pop    r15
    92aa:	ret    
    92ab:	nop    DWORD PTR [rax+rax*1+0x0]
    92b0:	add    rsp,0x18
    92b4:	mov    eax,0xffffffff
    92b9:	pop    rbx
    92ba:	pop    rbp
    92bb:	pop    r12
    92bd:	pop    r13
    92bf:	pop    r14
    92c1:	pop    r15
    92c3:	ret    
    92c4:	data16 nop WORD PTR cs:[rax+rax*1+0x0]
    92cf:	nop

00000000000092d0 <cloop_probe>:
    92d0:	sub    rsp,0x8
    92d4:	mov    eax,0x53
    92d9:	cmp    esi,0x53
    92dc:	cmovge esi,eax
    92df:	movsxd rdx,esi
    92e2:	mov    rsi,rdi
    92e5:	lea    rdi,[rip+0x160fc]        # 1f3e8 <desc_template.13939+0x128>
    92ec:	call   32d0 <memcmp@plt>
    92f1:	test   eax,eax
    92f3:	sete   al
    92f6:	add    rsp,0x8
    92fa:	movzx  eax,al
    92fd:	add    eax,eax
    92ff:	ret    

0000000000009300 <cloop_open>:
    9300:	push   r12
    9302:	xor    eax,eax
    9304:	push   rbp
    9305:	mov    rbp,rdi
    9308:	mov    rdi,rsi
    930b:	xor    esi,esi
    930d:	push   rbx
    930e:	mov    rbx,QWORD PTR [rbp+0x40]
    9312:	call   3500 <open64@plt>
    9317:	mov    DWORD PTR [rbx],eax
    9319:	test   eax,eax
    931b:	js     9468 <cloop_open+0x168>
    9321:	mov    DWORD PTR [rbp+0x8],0x1
    9328:	mov    edi,DWORD PTR [rbx]
    932a:	xor    edx,edx
    932c:	mov    esi,0x80
    9331:	call   3620 <lseek64@plt>
    9336:	test   rax,rax
    9339:	js     9476 <cloop_open+0x176>
    933f:	mov    edi,DWORD PTR [rbx]
    9341:	lea    rsi,[rbx+0x4]
    9345:	mov    edx,0x4
    934a:	call   4600 <qemu_read_ok>
    934f:	test   eax,eax
    9351:	js     9476 <cloop_open+0x176>
    9357:	mov    eax,DWORD PTR [rbx+0x4]
    935a:	mov    edi,DWORD PTR [rbx]
    935c:	lea    rsi,[rbx+0x8]
    9360:	mov    edx,0x4
    9365:	bswap  eax
    9367:	mov    DWORD PTR [rbx+0x4],eax
    936a:	call   4600 <qemu_read_ok>
    936f:	test   eax,eax
    9371:	js     9476 <cloop_open+0x176>
    9377:	mov    r12d,DWORD PTR [rbx+0x8]
    937b:	bswap  r12d
    937e:	mov    DWORD PTR [rbx+0x8],r12d
    9382:	shl    r12d,0x3
    9386:	mov    rdi,r12
    9389:	call   3450 <malloc@plt>
    938e:	mov    edi,DWORD PTR [rbx]
    9390:	mov    QWORD PTR [rbx+0x10],rax
    9394:	test   rax,rax
    9397:	je     9478 <cloop_open+0x178>
    939d:	mov    rdx,r12
    93a0:	mov    rsi,rax
    93a3:	call   32c0 <read@plt>
    93a8:	cmp    r12,rax
    93ab:	jg     9476 <cloop_open+0x176>
    93b1:	mov    eax,DWORD PTR [rbx+0x8]
    93b4:	mov    edi,0x2
    93b9:	test   eax,eax
    93bb:	je     9417 <cloop_open+0x117>
    93bd:	mov    rdx,QWORD PTR [rbx+0x10]
    93c1:	xor    ecx,ecx
    93c3:	mov    r8d,0x1
    93c9:	mov    rax,QWORD PTR [rdx]
    93cc:	bswap  rax
    93cf:	mov    QWORD PTR [rdx],rax
    93d2:	lea    eax,[rcx+0x1]
    93d5:	cmp    DWORD PTR [rbx+0x8],eax
    93d8:	jbe    9413 <cloop_open+0x113>
    93da:	nop    WORD PTR [rax+rax*1+0x0]
    93e0:	mov    rdx,QWORD PTR [rbx+0x10]
    93e4:	mov    edi,eax
    93e6:	lea    rsi,[rdx+rdi*8]
    93ea:	mov    rdx,QWORD PTR [rsi]
    93ed:	bswap  rdx
    93f0:	mov    QWORD PTR [rsi],rdx
    93f3:	test   eax,eax
    93f5:	je     9409 <cloop_open+0x109>
    93f7:	mov    rsi,QWORD PTR [rbx+0x10]
    93fb:	mov    rdx,QWORD PTR [rsi+rdi*8]
    93ff:	sub    edx,DWORD PTR [rsi+rcx*8]
    9402:	cmp    r8d,edx
    9405:	cmovb  r8d,edx
    9409:	mov    ecx,eax
    940b:	lea    eax,[rcx+0x1]
    940e:	cmp    DWORD PTR [rbx+0x8],eax
    9411:	ja     93e0 <cloop_open+0xe0>
    9413:	lea    edi,[r8+0x1]
    9417:	call   4cb0 <qemu_malloc>
    941c:	mov    edi,DWORD PTR [rbx+0x4]
    941f:	mov    QWORD PTR [rbx+0x20],rax
    9423:	call   4cb0 <qemu_malloc>
    9428:	lea    rdi,[rbx+0x30]
    942c:	mov    edx,0x70
    9431:	lea    rsi,[rip+0x134ef]        # 1c927 <__PRETTY_FUNCTION__.13430+0x8f>
    9438:	mov    QWORD PTR [rbx+0x28],rax
    943c:	call   34e0 <inflateInit_@plt>
    9441:	test   eax,eax
    9443:	jne    9476 <cloop_open+0x176>
    9445:	mov    ecx,DWORD PTR [rbx+0x4]
    9448:	mov    edx,DWORD PTR [rbx+0x8]
    944b:	shr    ecx,0x9
    944e:	mov    DWORD PTR [rbx+0x1c],edx
    9451:	imul   edx,ecx
    9454:	mov    DWORD PTR [rbx+0x18],ecx
    9457:	mov    ecx,edx
    9459:	mov    QWORD PTR [rbp+0x0],rcx
    945d:	pop    rbx
    945e:	pop    rbp
    945f:	pop    r12
    9461:	ret    
    9462:	nop    WORD PTR [rax+rax*1+0x0]
    9468:	call   30b0 <__errno_location@plt>
    946d:	pop    rbx
    946e:	pop    rbp
    946f:	mov    eax,DWORD PTR [rax]
    9471:	pop    r12
    9473:	neg    eax
    9475:	ret    
    9476:	mov    edi,DWORD PTR [rbx]
    9478:	call   3260 <close@plt>
    947d:	mov    eax,0xffffffff
    9482:	jmp    945d <cloop_open+0x15d>
    9484:	nop    WORD PTR cs:[rax+rax*1+0x0]
    948e:	xchg   ax,ax

0000000000009490 <dmg_close>:
    9490:	push   rbx
    9491:	mov    rbx,QWORD PTR [rdi+0x40]
    9495:	mov    edi,DWORD PTR [rbx]
    9497:	call   3260 <close@plt>
    949c:	mov    eax,DWORD PTR [rbx+0x4]
    949f:	test   eax,eax
    94a1:	jne    94c0 <dmg_close+0x30>
    94a3:	mov    rdi,QWORD PTR [rbx+0x38]
    94a7:	call   3070 <free@plt>
    94ac:	mov    rdi,QWORD PTR [rbx+0x40]
    94b0:	call   3070 <free@plt>
    94b5:	lea    rdi,[rbx+0x48]
    94b9:	pop    rbx
    94ba:	jmp    33c0 <inflateEnd@plt>
    94bf:	nop
    94c0:	mov    rdi,QWORD PTR [rbx+0x8]
    94c4:	call   3070 <free@plt>
    94c9:	mov    rdi,QWORD PTR [rbx+0x10]
    94cd:	call   3070 <free@plt>
    94d2:	mov    rdi,QWORD PTR [rbx+0x18]
    94d6:	call   3070 <free@plt>
    94db:	mov    rdi,QWORD PTR [rbx+0x20]
    94df:	call   3070 <free@plt>
    94e4:	mov    rdi,QWORD PTR [rbx+0x28]
    94e8:	call   3070 <free@plt>
    94ed:	jmp    94a3 <dmg_close+0x13>
    94ef:	nop

00000000000094f0 <dmg_read>:
    94f0:	push   r15
    94f2:	push   r14
    94f4:	push   r13
    94f6:	push   r12
    94f8:	push   rbp
    94f9:	push   rbx
    94fa:	sub    rsp,0x18
    94fe:	mov    r13,QWORD PTR [rdi+0x40]
    9502:	test   ecx,ecx
    9504:	jle    9655 <dmg_read+0x165>
    950a:	lea    rax,[r13+0x48]
    950e:	mov    r15d,esi
    9511:	lea    ebp,[rcx+rsi*1]
    9514:	mov    r14,rdx
    9517:	mov    QWORD PTR [rsp+0x8],rax
    951c:	nop    DWORD PTR [rax+0x0]
    9520:	mov    eax,DWORD PTR [r13+0x30]
    9524:	mov    r8d,DWORD PTR [r13+0x4]
    9528:	cmp    eax,r8d
    952b:	jae    9551 <dmg_read+0x61>
    952d:	mov    rdx,QWORD PTR [r13+0x20]
    9531:	movsxd rcx,r15d
    9534:	mov    rdx,QWORD PTR [rdx+rax*8]
    9538:	cmp    rdx,rcx
    953b:	ja     9551 <dmg_read+0x61>
    953d:	mov    rsi,QWORD PTR [r13+0x28]
    9541:	mov    rdi,QWORD PTR [rsi+rax*8]
    9545:	add    rdi,rdx
    9548:	cmp    rcx,rdi
    954b:	jb     9600 <dmg_read+0x110>
    9551:	mov    r10d,r8d
    9554:	xor    ecx,ecx
    9556:	movsxd rdi,r15d
    9559:	cmp    ecx,r10d
    955c:	je     959e <dmg_read+0xae>
    955e:	lea    eax,[rcx+r10*1]
    9562:	mov    rsi,QWORD PTR [r13+0x20]
    9566:	shr    eax,1
    9568:	mov    edx,eax
    956a:	mov    ebx,eax
    956c:	lea    r9,[rdx*8+0x0]
    9574:	mov    rdx,QWORD PTR [rsi+rdx*8]
    9578:	cmp    rdi,rdx
    957b:	jb     959a <dmg_read+0xaa>
    957d:	jmp    95bb <dmg_read+0xcb>
    957f:	nop
    9580:	lea    ebx,[rcx+rax*1]
    9583:	shr    ebx,1
    9585:	mov    edx,ebx
    9587:	lea    r9,[rdx*8+0x0]
    958f:	mov    rdx,QWORD PTR [rsi+rdx*8]
    9593:	cmp    rdx,rdi
    9596:	jbe    95b8 <dmg_read+0xc8>
    9598:	mov    eax,ebx
    959a:	cmp    ecx,eax
    959c:	jne    9580 <dmg_read+0x90>
    959e:	add    rsp,0x18
    95a2:	mov    eax,0xffffffff
    95a7:	pop    rbx
    95a8:	pop    rbp
    95a9:	pop    r12
    95ab:	pop    r13
    95ad:	pop    r14
    95af:	pop    r15
    95b1:	ret    
    95b2:	nop    WORD PTR [rax+rax*1+0x0]
    95b8:	mov    r10d,eax
    95bb:	mov    rax,QWORD PTR [r13+0x28]
    95bf:	mov    ecx,ebx
    95c1:	add    rdx,QWORD PTR [rax+r9*1]
    95c5:	cmp    rdx,rdi
    95c8:	jbe    9559 <dmg_read+0x69>
    95ca:	cmp    r8d,ebx
    95cd:	jbe    959e <dmg_read+0xae>
    95cf:	mov    rdx,QWORD PTR [r13+0x8]
    95d3:	mov    r12d,ebx
    95d6:	mov    DWORD PTR [r13+0x30],r8d
    95da:	mov    edx,DWORD PTR [rdx+r12*4]
    95de:	cmp    edx,0x2
    95e1:	je     9750 <dmg_read+0x260>
    95e7:	cmp    edx,0x80000005
    95ed:	je     96a0 <dmg_read+0x1b0>
    95f3:	cmp    edx,0x1
    95f6:	je     9670 <dmg_read+0x180>
    95f8:	mov    DWORD PTR [r13+0x30],ebx
    95fc:	mov    rdx,QWORD PTR [rsi+r12*8]
    9600:	mov    esi,r15d
    9603:	lea    rdi,[r14+0x8]
    9607:	add    r15d,0x1
    960b:	sub    esi,edx
    960d:	and    rdi,0xfffffffffffffff8
    9611:	shl    esi,0x9
    9614:	add    rsi,QWORD PTR [r13+0x40]
    9618:	mov    rax,QWORD PTR [rsi]
    961b:	mov    QWORD PTR [r14],rax
    961e:	mov    rax,QWORD PTR [rsi+0x1f8]
    9625:	mov    QWORD PTR [r14+0x1f8],rax
    962c:	mov    rax,r14
    962f:	add    r14,0x200
    9636:	sub    rax,rdi
    9639:	lea    ecx,[rax+0x200]
    963f:	sub    rsi,rax
    9642:	mov    eax,ecx
    9644:	shr    eax,0x3
    9647:	mov    ecx,eax
    9649:	rep movs QWORD PTR es:[rdi],QWORD PTR ds:[rsi]
    964c:	cmp    ebp,r15d
    964f:	jne    9520 <dmg_read+0x30>
    9655:	add    rsp,0x18
    9659:	xor    eax,eax
    965b:	pop    rbx
    965c:	pop    rbp
    965d:	pop    r12
    965f:	pop    r13
    9661:	pop    r14
    9663:	pop    r15
    9665:	ret    
    9666:	nop    WORD PTR cs:[rax+rax*1+0x0]
    9670:	mov    rax,QWORD PTR [r13+0x18]
    9674:	mov    rsi,QWORD PTR [r13+0x40]
    9678:	mov    edi,DWORD PTR [r13+0x0]
    967c:	mov    rdx,QWORD PTR [rax+r12*8]
    9680:	call   4600 <qemu_read_ok>
    9685:	test   eax,eax
    9687:	js     959e <dmg_read+0xae>
    968d:	mov    rsi,QWORD PTR [r13+0x20]
    9691:	jmp    95f8 <dmg_read+0x108>
    9696:	nop    WORD PTR cs:[rax+rax*1+0x0]
    96a0:	mov    rax,QWORD PTR [r13+0x10]
    96a4:	mov    edi,DWORD PTR [r13+0x0]
    96a8:	xor    edx,edx
    96aa:	mov    rsi,QWORD PTR [rax+r12*8]
    96ae:	call   3620 <lseek64@plt>
    96b3:	test   eax,eax
    96b5:	js     959e <dmg_read+0xae>
    96bb:	mov    rax,QWORD PTR [r13+0x18]
    96bf:	mov    rsi,QWORD PTR [r13+0x38]
    96c3:	mov    edi,DWORD PTR [r13+0x0]
    96c7:	mov    rdx,QWORD PTR [rax+r12*8]
    96cb:	call   4600 <qemu_read_ok>
    96d0:	test   eax,eax
    96d2:	js     959e <dmg_read+0xae>
    96d8:	mov    rax,QWORD PTR [r13+0x38]
    96dc:	mov    rdi,QWORD PTR [rsp+0x8]
    96e1:	mov    QWORD PTR [r13+0x48],rax
    96e5:	mov    rax,QWORD PTR [r13+0x18]
    96e9:	mov    rax,QWORD PTR [rax+r12*8]
    96ed:	mov    DWORD PTR [r13+0x50],eax
    96f1:	mov    rax,QWORD PTR [r13+0x40]
    96f5:	mov    QWORD PTR [r13+0x60],rax
    96f9:	mov    rax,QWORD PTR [r13+0x28]
    96fd:	mov    rax,QWORD PTR [rax+r12*8]
    9701:	shl    eax,0x9
    9704:	mov    DWORD PTR [r13+0x68],eax
    9708:	call   35d0 <inflateReset@plt>
    970d:	test   eax,eax
    970f:	jne    959e <dmg_read+0xae>
    9715:	mov    rdi,QWORD PTR [rsp+0x8]
    971a:	mov    esi,0x4
    971f:	call   30f0 <inflate@plt>
    9724:	cmp    eax,0x1
    9727:	jne    959e <dmg_read+0xae>
    972d:	mov    rax,QWORD PTR [r13+0x28]
    9731:	mov    rax,QWORD PTR [rax+r12*8]
    9735:	shl    rax,0x9
    9739:	cmp    QWORD PTR [r13+0x70],rax
    973d:	je     968d <dmg_read+0x19d>
    9743:	jmp    959e <dmg_read+0xae>
    9748:	nop    DWORD PTR [rax+rax*1+0x0]
    9750:	mov    rdx,QWORD PTR [rax+r12*8]
    9754:	mov    rdi,QWORD PTR [r13+0x40]
    9758:	xor    esi,esi
    975a:	shl    rdx,0x9
    975e:	call   3240 <memset@plt>
    9763:	jmp    968d <dmg_read+0x19d>
    9768:	nop    DWORD PTR [rax+rax*1+0x0]

0000000000009770 <read_uint32>:
    9770:	sub    rsp,0x18
    9774:	mov    edx,0x4
    9779:	mov    rax,QWORD PTR fs:0x28
    9782:	mov    QWORD PTR [rsp+0x8],rax
    9787:	xor    eax,eax
    9789:	lea    rsi,[rsp+0x4]
    978e:	call   4600 <qemu_read_ok>
    9793:	xor    edx,edx
    9795:	test   eax,eax
    9797:	js     97a1 <read_uint32+0x31>
    9799:	mov    edx,DWORD PTR [rsp+0x4]
    979d:	bswap  edx
    979f:	mov    edx,edx
    97a1:	mov    rcx,QWORD PTR [rsp+0x8]
    97a6:	xor    rcx,QWORD PTR fs:0x28
    97af:	mov    rax,rdx
    97b2:	jne    97b9 <read_uint32+0x49>
    97b4:	add    rsp,0x18
    97b8:	ret    
    97b9:	call   3190 <__stack_chk_fail@plt>
    97be:	xchg   ax,ax

00000000000097c0 <read_off>:
    97c0:	sub    rsp,0x18
    97c4:	mov    edx,0x8
    97c9:	mov    rax,QWORD PTR fs:0x28
    97d2:	mov    QWORD PTR [rsp+0x8],rax
    97d7:	xor    eax,eax
    97d9:	mov    rsi,rsp
    97dc:	call   4600 <qemu_read_ok>
    97e1:	xor    edx,edx
    97e3:	test   eax,eax
    97e5:	js     97ee <read_off+0x2e>
    97e7:	mov    rdx,QWORD PTR [rsp]
    97eb:	bswap  rdx
    97ee:	mov    rcx,QWORD PTR [rsp+0x8]
    97f3:	xor    rcx,QWORD PTR fs:0x28
    97fc:	mov    rax,rdx
    97ff:	jne    9806 <read_off+0x46>
    9801:	add    rsp,0x18
    9805:	ret    
    9806:	call   3190 <__stack_chk_fail@plt>
    980b:	nop    DWORD PTR [rax+rax*1+0x0]

0000000000009810 <dmg_open>:
    9810:	push   r15
    9812:	xor    eax,eax
    9814:	push   r14
    9816:	push   r13
    9818:	mov    r13d,edx
    981b:	push   r12
    981d:	push   rbp
    981e:	mov    rbp,rsi
    9821:	xor    esi,esi
    9823:	push   rbx
    9824:	mov    rbx,rdi
    9827:	sub    rsp,0x38
    982b:	mov    r15,QWORD PTR [rdi+0x40]
    982f:	mov    rdi,rbp
    9832:	call   3500 <open64@plt>
    9837:	mov    DWORD PTR [r15],eax
    983a:	test   eax,eax
    983c:	js     98f0 <dmg_open+0xe0>
    9842:	mov    DWORD PTR [rbx+0x8],0x1
    9849:	mov    edi,DWORD PTR [r15]
    984c:	mov    edx,0x2
    9851:	mov    rsi,0xfffffffffffffe28
    9858:	mov    DWORD PTR [r15+0x4],0x0
    9860:	mov    QWORD PTR [r15+0x28],0x0
    9868:	mov    QWORD PTR [r15+0x20],0x0
    9870:	mov    QWORD PTR [r15+0x18],0x0
    9878:	mov    QWORD PTR [r15+0x10],0x0
    9880:	call   3620 <lseek64@plt>
    9885:	test   rax,rax
    9888:	js     98bc <dmg_open+0xac>
    988a:	mov    edi,DWORD PTR [r15]
    988d:	call   97c0 <read_off>
    9892:	mov    r12,rax
    9895:	test   rax,rax
    9898:	je     98bc <dmg_open+0xac>
    989a:	mov    edi,DWORD PTR [r15]
    989d:	xor    edx,edx
    989f:	mov    rsi,rax
    98a2:	call   3620 <lseek64@plt>
    98a7:	test   rax,rax
    98aa:	js     98bc <dmg_open+0xac>
    98ac:	mov    edi,DWORD PTR [r15]
    98af:	call   9770 <read_uint32>
    98b4:	cmp    rax,0x100
    98ba:	je     9910 <dmg_open+0x100>
    98bc:	mov    edi,DWORD PTR [r15]
    98bf:	call   3260 <close@plt>
    98c4:	mov    edx,r13d
    98c7:	mov    rsi,rbp
    98ca:	mov    rdi,rbx
    98cd:	lea    rax,[rip+0x1eacc]        # 283a0 <bdrv_raw>
    98d4:	mov    QWORD PTR [rbx+0x38],rax
    98d8:	add    rsp,0x38
    98dc:	pop    rbx
    98dd:	pop    rbp
    98de:	pop    r12
    98e0:	pop    r13
    98e2:	pop    r14
    98e4:	pop    r15
    98e6:	jmp    QWORD PTR [rip+0x1eacc]        # 283b8 <bdrv_raw+0x18>
    98ec:	nop    DWORD PTR [rax+0x0]
    98f0:	call   30b0 <__errno_location@plt>
    98f5:	mov    eax,DWORD PTR [rax]
    98f7:	neg    eax
    98f9:	add    rsp,0x38
    98fd:	pop    rbx
    98fe:	pop    rbp
    98ff:	pop    r12
    9901:	pop    r13
    9903:	pop    r14
    9905:	pop    r15
    9907:	ret    
    9908:	nop    DWORD PTR [rax+rax*1+0x0]
    9910:	mov    edi,DWORD PTR [r15]
    9913:	call   9770 <read_uint32>
    9918:	test   eax,eax
    991a:	je     98bc <dmg_open+0xac>
    991c:	mov    eax,eax
    991e:	mov    edi,DWORD PTR [r15]
    9921:	mov    edx,0x1
    9926:	mov    esi,0xf8
    992b:	add    rax,r12
    992e:	mov    QWORD PTR [rsp+0x18],rax
    9933:	call   3620 <lseek64@plt>
    9938:	test   rax,rax
    993b:	js     98bc <dmg_open+0xac>
    9941:	mov    DWORD PTR [rsp+0x10],0x1
    9949:	mov    DWORD PTR [rsp+0x14],0x1
    9951:	mov    QWORD PTR [rsp+0x28],0x0
    995a:	mov    QWORD PTR [rsp+0x20],0x0
    9963:	mov    edi,DWORD PTR [r15]
    9966:	xor    esi,esi
    9968:	mov    edx,0x1
    996d:	call   3620 <lseek64@plt>
    9972:	cmp    rax,QWORD PTR [rsp+0x18]
    9977:	jge    9b97 <dmg_open+0x387>
    997d:	mov    edi,DWORD PTR [r15]
    9980:	call   9770 <read_uint32>
    9985:	mov    r12,rax
    9988:	test   eax,eax
    998a:	je     98bc <dmg_open+0xac>
    9990:	mov    edi,DWORD PTR [r15]
    9993:	call   9770 <read_uint32>
    9998:	cmp    eax,0x6d697368
    999d:	jne    99a8 <dmg_open+0x198>
    999f:	cmp    r12d,0xf3
    99a6:	ja     99c0 <dmg_open+0x1b0>
    99a8:	mov    edi,DWORD PTR [r15]
    99ab:	lea    esi,[r12-0x4]
    99b0:	mov    edx,0x1
    99b5:	call   3620 <lseek64@plt>
    99ba:	jmp    9963 <dmg_open+0x153>
    99bc:	nop    DWORD PTR [rax+0x0]
    99c0:	mov    edi,DWORD PTR [r15]
    99c3:	mov    edx,0x1
    99c8:	mov    esi,0xc8
    99cd:	call   3620 <lseek64@plt>
    99d2:	test   rax,rax
    99d5:	js     98bc <dmg_open+0xac>
    99db:	sub    r12d,0xcc
    99e2:	mov    eax,0xcccccccd
    99e7:	mov    r14d,DWORD PTR [r15+0x4]
    99eb:	mov    rdi,QWORD PTR [r15+0x8]
    99ef:	mul    r12d
    99f2:	mov    r12d,edx
    99f5:	shr    r12d,0x5
    99f9:	add    r14d,r12d
    99fc:	mov    DWORD PTR [rsp+0xc],r12d
    9a01:	shl    r14d,0x3
    9a05:	mov    esi,r14d
    9a08:	movsxd r14,r14d
    9a0b:	sar    esi,1
    9a0d:	movsxd rsi,esi
    9a10:	call   4cd0 <qemu_realloc>
    9a15:	mov    rdi,QWORD PTR [r15+0x10]
    9a19:	mov    rsi,r14
    9a1c:	mov    QWORD PTR [r15+0x8],rax
    9a20:	call   4cd0 <qemu_realloc>
    9a25:	mov    rdi,QWORD PTR [r15+0x18]
    9a29:	mov    rsi,r14
    9a2c:	mov    QWORD PTR [r15+0x10],rax
    9a30:	call   4cd0 <qemu_realloc>
    9a35:	mov    rdi,QWORD PTR [r15+0x20]
    9a39:	mov    rsi,r14
    9a3c:	mov    QWORD PTR [r15+0x18],rax
    9a40:	call   4cd0 <qemu_realloc>
    9a45:	mov    rdi,QWORD PTR [r15+0x28]
    9a49:	mov    rsi,r14
    9a4c:	mov    QWORD PTR [r15+0x20],rax
    9a50:	call   4cd0 <qemu_realloc>
    9a55:	mov    r14d,DWORD PTR [r15+0x4]
    9a59:	mov    QWORD PTR [r15+0x28],rax
    9a5d:	lea    eax,[r12+r14*1]
    9a61:	cmp    r14d,eax
    9a64:	jae    9b00 <dmg_open+0x2f0>
    9a6a:	nop    WORD PTR [rax+rax*1+0x0]
    9a70:	mov    edi,DWORD PTR [r15]
    9a73:	mov    r12d,r14d
    9a76:	call   9770 <read_uint32>
    9a7b:	mov    rsi,QWORD PTR [r15+0x8]
    9a7f:	mov    DWORD PTR [rsi+r12*4],eax
    9a83:	mov    rax,QWORD PTR [r15+0x8]
    9a87:	mov    eax,DWORD PTR [rax+r12*4]
    9a8b:	lea    esi,[rax-0x1]
    9a8e:	cmp    esi,0x1
    9a91:	jbe    9b10 <dmg_open+0x300>
    9a93:	cmp    eax,0x80000005
    9a98:	je     9b10 <dmg_open+0x300>
    9a9a:	lea    edx,[r14-0x1]
    9a9e:	cmp    eax,0xffffffff
    9aa1:	jne    9acf <dmg_open+0x2bf>
    9aa3:	mov    eax,edx
    9aa5:	mov    rsi,QWORD PTR [r15+0x10]
    9aa9:	mov    rdx,QWORD PTR [r15+0x18]
    9aad:	mov    rdx,QWORD PTR [rdx+rax*8]
    9ab1:	add    rdx,QWORD PTR [rsi+rax*8]
    9ab5:	mov    QWORD PTR [rsp+0x20],rdx
    9aba:	mov    rsi,QWORD PTR [r15+0x20]
    9abe:	mov    rdx,QWORD PTR [r15+0x28]
    9ac2:	mov    rdx,QWORD PTR [rdx+rax*8]
    9ac6:	add    rdx,QWORD PTR [rsi+rax*8]
    9aca:	mov    QWORD PTR [rsp+0x28],rdx
    9acf:	mov    edi,DWORD PTR [r15]
    9ad2:	mov    edx,0x1
    9ad7:	mov    esi,0x24
    9adc:	call   3620 <lseek64@plt>
    9ae1:	test   rax,rax
    9ae4:	js     98bc <dmg_open+0xac>
    9aea:	sub    DWORD PTR [rsp+0xc],0x1
    9aef:	mov    eax,DWORD PTR [rsp+0xc]
    9af3:	add    eax,DWORD PTR [r15+0x4]
    9af7:	cmp    eax,r14d
    9afa:	ja     9a70 <dmg_open+0x260>
    9b00:	mov    DWORD PTR [r15+0x4],eax
    9b04:	jmp    9963 <dmg_open+0x153>
    9b09:	nop    DWORD PTR [rax+0x0]
    9b10:	mov    edi,DWORD PTR [r15]
    9b13:	call   9770 <read_uint32>
    9b18:	mov    edi,DWORD PTR [r15]
    9b1b:	call   97c0 <read_off>
    9b20:	mov    rsi,QWORD PTR [r15+0x20]
    9b24:	add    rax,QWORD PTR [rsp+0x28]
    9b29:	mov    QWORD PTR [rsi+r12*8],rax
    9b2d:	mov    edi,DWORD PTR [r15]
    9b30:	call   97c0 <read_off>
    9b35:	mov    rsi,QWORD PTR [r15+0x28]
    9b39:	mov    QWORD PTR [rsi+r12*8],rax
    9b3d:	mov    edi,DWORD PTR [r15]
    9b40:	call   97c0 <read_off>
    9b45:	mov    rsi,QWORD PTR [r15+0x10]
    9b49:	add    rax,QWORD PTR [rsp+0x20]
    9b4e:	mov    QWORD PTR [rsi+r12*8],rax
    9b52:	mov    edi,DWORD PTR [r15]
    9b55:	call   97c0 <read_off>
    9b5a:	mov    rsi,QWORD PTR [r15+0x18]
    9b5e:	mov    edx,DWORD PTR [rsp+0x10]
    9b62:	mov    QWORD PTR [rsi+r12*8],rax
    9b66:	mov    rax,QWORD PTR [r15+0x18]
    9b6a:	mov    esi,DWORD PTR [rsp+0x14]
    9b6e:	mov    rax,QWORD PTR [rax+r12*8]
    9b72:	cmp    rax,rsi
    9b75:	cmovbe eax,esi
    9b78:	add    r14d,0x1
    9b7c:	mov    DWORD PTR [rsp+0x14],eax
    9b80:	mov    rax,QWORD PTR [r15+0x28]
    9b84:	mov    rax,QWORD PTR [rax+r12*8]
    9b88:	cmp    rax,rdx
    9b8b:	cmovbe eax,edx
    9b8e:	mov    DWORD PTR [rsp+0x10],eax
    9b92:	jmp    9aef <dmg_open+0x2df>
    9b97:	mov    eax,DWORD PTR [rsp+0x14]
    9b9b:	lea    edi,[rax+0x1]
    9b9e:	call   4cb0 <qemu_malloc>
    9ba3:	mov    edi,DWORD PTR [rsp+0x10]
    9ba7:	mov    QWORD PTR [r15+0x38],rax
    9bab:	shl    edi,0x9
    9bae:	call   4cb0 <qemu_malloc>
    9bb3:	lea    rdi,[r15+0x48]
    9bb7:	mov    edx,0x70
    9bbc:	lea    rsi,[rip+0x12d64]        # 1c927 <__PRETTY_FUNCTION__.13430+0x8f>
    9bc3:	mov    QWORD PTR [r15+0x40],rax
    9bc7:	call   34e0 <inflateInit_@plt>
    9bcc:	test   eax,eax
    9bce:	jne    98bc <dmg_open+0xac>
    9bd4:	mov    edx,DWORD PTR [r15+0x4]
    9bd8:	mov    DWORD PTR [r15+0x30],edx
    9bdc:	jmp    98f9 <dmg_open+0xe9>
    9be1:	data16 nop WORD PTR cs:[rax+rax*1+0x0]
    9bec:	nop    DWORD PTR [rax+0x0]

0000000000009bf0 <dmg_probe>:
    9bf0:	push   rbx
    9bf1:	mov    rdi,rdx
    9bf4:	mov    rbx,rdx
    9bf7:	call   3180 <strlen@plt>
    9bfc:	xor    ecx,ecx
    9bfe:	cmp    eax,0x4
    9c01:	jle    9c26 <dmg_probe+0x36>
    9c03:	cdqe   
    9c05:	mov    ecx,0x5
    9c0a:	lea    rdi,[rip+0x15831]        # 1f442 <desc_template.13939+0x182>
    9c11:	lea    rsi,[rbx+rax*1-0x4]
    9c16:	repz cmps BYTE PTR ds:[rsi],BYTE PTR es:[rdi]
    9c18:	seta   al
    9c1b:	sbb    al,0x0
    9c1d:	xor    ecx,ecx
    9c1f:	test   al,al
    9c21:	sete   cl
    9c24:	add    ecx,ecx
    9c26:	mov    eax,ecx
    9c28:	pop    rbx
    9c29:	ret    
    9c2a:	nop    WORD PTR [rax+rax*1+0x0]

0000000000009c30 <bochs_close>:
    9c30:	push   rbx
    9c31:	mov    rbx,QWORD PTR [rdi+0x40]
    9c35:	mov    rdi,QWORD PTR [rbx+0x8]
    9c39:	call   4ca0 <qemu_free>
    9c3e:	mov    edi,DWORD PTR [rbx]
    9c40:	pop    rbx
    9c41:	jmp    3260 <close@plt>
    9c46:	nop    WORD PTR cs:[rax+rax*1+0x0]

0000000000009c50 <bochs_read>:
    9c50:	push   r15
    9c52:	mov    rax,rdi
    9c55:	push   r14
    9c57:	push   r13
    9c59:	push   r12
    9c5b:	push   rbp
    9c5c:	push   rbx
    9c5d:	sub    rsp,0x38
    9c61:	mov    r13,QWORD PTR [rax+0x40]
    9c65:	mov    QWORD PTR [rsp+0x18],rdi
    9c6a:	mov    rdi,QWORD PTR fs:0x28
    9c73:	mov    QWORD PTR [rsp+0x28],rdi
    9c78:	xor    edi,edi
    9c7a:	test   ecx,ecx
    9c7c:	jle    9db0 <bochs_read+0x160>
    9c82:	lea    eax,[rcx-0x1]
    9c85:	shl    rsi,0x9
    9c89:	mov    rbp,rdx
    9c8c:	mov    r15,r13
    9c8f:	add    rax,0x1
    9c93:	sub    rsi,rdx
    9c96:	shl    rax,0x9
    9c9a:	mov    QWORD PTR [rsp],rsi
    9c9e:	add    rax,rdx
    9ca1:	mov    QWORD PTR [rsp+0x10],rax
    9ca6:	lea    rax,[rsp+0x27]
    9cab:	mov    QWORD PTR [rsp+0x8],rax
    9cb0:	jmp    9cd3 <bochs_read+0x83>
    9cb2:	nop    WORD PTR [rax+rax*1+0x0]
    9cb8:	add    rbp,0x200
    9cbf:	cmp    rbp,QWORD PTR [rsp+0x10]
    9cc4:	je     9db0 <bochs_read+0x160>
    9cca:	mov    rax,QWORD PTR [rsp+0x18]
    9ccf:	mov    r15,QWORD PTR [rax+0x40]
    9cd3:	mov    rax,QWORD PTR [rsp]
    9cd7:	movsxd rcx,DWORD PTR [r15+0x20]
    9cdb:	mov    rsi,QWORD PTR [r15+0x8]
    9cdf:	add    rax,rbp
    9ce2:	cqo    
    9ce4:	idiv   rcx
    9ce7:	test   rdx,rdx
    9cea:	lea    rcx,[rdx+0x1ff]
    9cf1:	mov    eax,DWORD PTR [rsi+rax*4]
    9cf4:	cmovns rcx,rdx
    9cf8:	mov    r12,rcx
    9cfb:	mov    r14,rcx
    9cfe:	sar    r12,0x9
    9d02:	cmp    eax,0xffffffff
    9d05:	je     9ddc <bochs_read+0x18c>
    9d0b:	movsxd rbx,DWORD PTR [r15+0x18]
    9d0f:	mov    esi,DWORD PTR [r15+0x1c]
    9d13:	mov    edi,DWORD PTR [r15]
    9d16:	add    esi,ebx
    9d18:	add    rbx,r12
    9d1b:	imul   esi,eax
    9d1e:	shl    rbx,0x9
    9d22:	lea    rax,[rdx+0xfff]
    9d29:	shl    esi,0x9
    9d2c:	add    esi,DWORD PTR [r15+0x14]
    9d30:	add    rbx,rsi
    9d33:	test   rdx,rdx
    9d36:	cmovs  rdx,rax
    9d3a:	sar    rdx,0xc
    9d3e:	add    rsi,rdx
    9d41:	xor    edx,edx
    9d43:	call   3620 <lseek64@plt>
    9d48:	mov    rsi,QWORD PTR [rsp+0x8]
    9d4d:	mov    edi,DWORD PTR [r15]
    9d50:	mov    edx,0x1
    9d55:	call   32c0 <read@plt>
    9d5a:	test   eax,eax
    9d5c:	js     9ddc <bochs_read+0x18c>
    9d5e:	je     9dd1 <bochs_read+0x181>
    9d60:	mov    rcx,r14
    9d63:	movsx  eax,BYTE PTR [rsp+0x27]
    9d68:	sar    rcx,0x3f
    9d6c:	shr    rcx,0x3d
    9d70:	lea    r9,[r12+rcx*1]
    9d74:	and    r9d,0x7
    9d78:	sub    r9,rcx
    9d7b:	bt     eax,r9d
    9d7f:	jae    9ddc <bochs_read+0x18c>
    9d81:	mov    edi,DWORD PTR [r15]
    9d84:	xor    edx,edx
    9d86:	mov    rsi,rbx
    9d89:	call   3620 <lseek64@plt>
    9d8e:	mov    edi,DWORD PTR [r13+0x0]
    9d92:	mov    edx,0x200
    9d97:	mov    rsi,rbp
    9d9a:	call   4600 <qemu_read_ok>
    9d9f:	test   eax,eax
    9da1:	jns    9cb8 <bochs_read+0x68>
    9da7:	mov    eax,0xffffffff
    9dac:	jmp    9db2 <bochs_read+0x162>
    9dae:	xchg   ax,ax
    9db0:	xor    eax,eax
    9db2:	mov    rdi,QWORD PTR [rsp+0x28]
    9db7:	xor    rdi,QWORD PTR fs:0x28
    9dc0:	jne    9e10 <bochs_read+0x1c0>
    9dc2:	add    rsp,0x38
    9dc6:	pop    rbx
    9dc7:	pop    rbp
