
xenalyze:     file format elf64-x86-64


Disassembly of section .init:

0000000000005000 <_init>:
    5000:	sub    rsp,0x8
    5004:	mov    rax,QWORD PTR [rip+0x25fd5]        # 2afe0 <__gmon_start__>
    500b:	test   rax,rax
    500e:	je     5012 <_init+0x12>
    5010:	call   rax
    5012:	add    rsp,0x8
    5016:	ret    

Disassembly of section .plt:

0000000000005020 <.plt>:
    5020:	push   QWORD PTR [rip+0x25e52]        # 2ae78 <_GLOBAL_OFFSET_TABLE_+0x8>
    5026:	jmp    QWORD PTR [rip+0x25e54]        # 2ae80 <_GLOBAL_OFFSET_TABLE_+0x10>
    502c:	nop    DWORD PTR [rax+0x0]

0000000000005030 <__snprintf_chk@plt>:
    5030:	jmp    QWORD PTR [rip+0x25e52]        # 2ae88 <__snprintf_chk@GLIBC_2.3.4>
    5036:	push   0x0
    503b:	jmp    5020 <.plt>

0000000000005040 <free@plt>:
    5040:	jmp    QWORD PTR [rip+0x25e4a]        # 2ae90 <free@GLIBC_2.2.5>
    5046:	push   0x1
    504b:	jmp    5020 <.plt>

0000000000005050 <putchar@plt>:
    5050:	jmp    QWORD PTR [rip+0x25e42]        # 2ae98 <putchar@GLIBC_2.2.5>
    5056:	push   0x2
    505b:	jmp    5020 <.plt>

0000000000005060 <__errno_location@plt>:
    5060:	jmp    QWORD PTR [rip+0x25e3a]        # 2aea0 <__errno_location@GLIBC_2.2.5>
    5066:	push   0x3
    506b:	jmp    5020 <.plt>

0000000000005070 <strncpy@plt>:
    5070:	jmp    QWORD PTR [rip+0x25e32]        # 2aea8 <strncpy@GLIBC_2.2.5>
    5076:	push   0x4
    507b:	jmp    5020 <.plt>

0000000000005080 <__isoc99_fscanf@plt>:
    5080:	jmp    QWORD PTR [rip+0x25e2a]        # 2aeb0 <__isoc99_fscanf@GLIBC_2.7>
    5086:	push   0x5
    508b:	jmp    5020 <.plt>

0000000000005090 <puts@plt>:
    5090:	jmp    QWORD PTR [rip+0x25e22]        # 2aeb8 <puts@GLIBC_2.2.5>
    5096:	push   0x6
    509b:	jmp    5020 <.plt>

00000000000050a0 <qsort@plt>:
    50a0:	jmp    QWORD PTR [rip+0x25e1a]        # 2aec0 <qsort@GLIBC_2.2.5>
    50a6:	push   0x7
    50ab:	jmp    5020 <.plt>

00000000000050b0 <argp_state_help@plt>:
    50b0:	jmp    QWORD PTR [rip+0x25e12]        # 2aec8 <argp_state_help@GLIBC_2.2.5>
    50b6:	push   0x8
    50bb:	jmp    5020 <.plt>

00000000000050c0 <fclose@plt>:
    50c0:	jmp    QWORD PTR [rip+0x25e0a]        # 2aed0 <fclose@GLIBC_2.2.5>
    50c6:	push   0x9
    50cb:	jmp    5020 <.plt>

00000000000050d0 <__stack_chk_fail@plt>:
    50d0:	jmp    QWORD PTR [rip+0x25e02]        # 2aed8 <__stack_chk_fail@GLIBC_2.4>
    50d6:	push   0xa
    50db:	jmp    5020 <.plt>

00000000000050e0 <mmap@plt>:
    50e0:	jmp    QWORD PTR [rip+0x25dfa]        # 2aee0 <mmap@GLIBC_2.2.5>
    50e6:	push   0xb
    50eb:	jmp    5020 <.plt>

00000000000050f0 <dup2@plt>:
    50f0:	jmp    QWORD PTR [rip+0x25df2]        # 2aee8 <dup2@GLIBC_2.2.5>
    50f6:	push   0xc
    50fb:	jmp    5020 <.plt>

0000000000005100 <snprintf@plt>:
    5100:	jmp    QWORD PTR [rip+0x25dea]        # 2aef0 <snprintf@GLIBC_2.2.5>
    5106:	push   0xd
    510b:	jmp    5020 <.plt>

0000000000005110 <__assert_fail@plt>:
    5110:	jmp    QWORD PTR [rip+0x25de2]        # 2aef8 <__assert_fail@GLIBC_2.2.5>
    5116:	push   0xe
    511b:	jmp    5020 <.plt>

0000000000005120 <strtof@plt>:
    5120:	jmp    QWORD PTR [rip+0x25dda]        # 2af00 <strtof@GLIBC_2.2.5>
    5126:	push   0xf
    512b:	jmp    5020 <.plt>

0000000000005130 <memset@plt>:
    5130:	jmp    QWORD PTR [rip+0x25dd2]        # 2af08 <memset@GLIBC_2.2.5>
    5136:	push   0x10
    513b:	jmp    5020 <.plt>

0000000000005140 <pipe@plt>:
    5140:	jmp    QWORD PTR [rip+0x25dca]        # 2af10 <pipe@GLIBC_2.2.5>
    5146:	push   0x11
    514b:	jmp    5020 <.plt>

0000000000005150 <argp_parse@plt>:
    5150:	jmp    QWORD PTR [rip+0x25dc2]        # 2af18 <argp_parse@GLIBC_2.2.5>
    5156:	push   0x12
    515b:	jmp    5020 <.plt>

0000000000005160 <strtoull@plt>:
    5160:	jmp    QWORD PTR [rip+0x25dba]        # 2af20 <strtoull@GLIBC_2.2.5>
    5166:	push   0x13
    516b:	jmp    5020 <.plt>

0000000000005170 <calloc@plt>:
    5170:	jmp    QWORD PTR [rip+0x25db2]        # 2af28 <calloc@GLIBC_2.2.5>
    5176:	push   0x14
    517b:	jmp    5020 <.plt>

0000000000005180 <feof@plt>:
    5180:	jmp    QWORD PTR [rip+0x25daa]        # 2af30 <feof@GLIBC_2.2.5>
    5186:	push   0x15
    518b:	jmp    5020 <.plt>

0000000000005190 <strtol@plt>:
    5190:	jmp    QWORD PTR [rip+0x25da2]        # 2af38 <strtol@GLIBC_2.2.5>
    5196:	push   0x16
    519b:	jmp    5020 <.plt>

00000000000051a0 <malloc@plt>:
    51a0:	jmp    QWORD PTR [rip+0x25d9a]        # 2af40 <malloc@GLIBC_2.2.5>
    51a6:	push   0x17
    51ab:	jmp    5020 <.plt>

00000000000051b0 <fflush@plt>:
    51b0:	jmp    QWORD PTR [rip+0x25d92]        # 2af48 <fflush@GLIBC_2.2.5>
    51b6:	push   0x18
    51bb:	jmp    5020 <.plt>

00000000000051c0 <__fxstat@plt>:
    51c0:	jmp    QWORD PTR [rip+0x25d8a]        # 2af50 <__fxstat@GLIBC_2.2.5>
    51c6:	push   0x19
    51cb:	jmp    5020 <.plt>

00000000000051d0 <realloc@plt>:
    51d0:	jmp    QWORD PTR [rip+0x25d82]        # 2af58 <realloc@GLIBC_2.2.5>
    51d6:	push   0x1a
    51db:	jmp    5020 <.plt>

00000000000051e0 <fdopen@plt>:
    51e0:	jmp    QWORD PTR [rip+0x25d7a]        # 2af60 <fdopen@GLIBC_2.2.5>
    51e6:	push   0x1b
    51eb:	jmp    5020 <.plt>

00000000000051f0 <munmap@plt>:
    51f0:	jmp    QWORD PTR [rip+0x25d72]        # 2af68 <munmap@GLIBC_2.2.5>
    51f6:	push   0x1c
    51fb:	jmp    5020 <.plt>

0000000000005200 <__printf_chk@plt>:
    5200:	jmp    QWORD PTR [rip+0x25d6a]        # 2af70 <__printf_chk@GLIBC_2.3.4>
    5206:	push   0x1d
    520b:	jmp    5020 <.plt>

0000000000005210 <memmove@plt>:
    5210:	jmp    QWORD PTR [rip+0x25d62]        # 2af78 <memmove@GLIBC_2.2.5>
    5216:	push   0x1e
    521b:	jmp    5020 <.plt>

0000000000005220 <open@plt>:
    5220:	jmp    QWORD PTR [rip+0x25d5a]        # 2af80 <open@GLIBC_2.2.5>
    5226:	push   0x1f
    522b:	jmp    5020 <.plt>

0000000000005230 <fopen@plt>:
    5230:	jmp    QWORD PTR [rip+0x25d52]        # 2af88 <fopen@GLIBC_2.2.5>
    5236:	push   0x20
    523b:	jmp    5020 <.plt>

0000000000005240 <perror@plt>:
    5240:	jmp    QWORD PTR [rip+0x25d4a]        # 2af90 <perror@GLIBC_2.2.5>
    5246:	push   0x21
    524b:	jmp    5020 <.plt>

0000000000005250 <exit@plt>:
    5250:	jmp    QWORD PTR [rip+0x25d42]        # 2af98 <exit@GLIBC_2.2.5>
    5256:	push   0x22
    525b:	jmp    5020 <.plt>

0000000000005260 <fwrite@plt>:
    5260:	jmp    QWORD PTR [rip+0x25d3a]        # 2afa0 <fwrite@GLIBC_2.2.5>
    5266:	push   0x23
    526b:	jmp    5020 <.plt>

0000000000005270 <__fprintf_chk@plt>:
    5270:	jmp    QWORD PTR [rip+0x25d32]        # 2afa8 <__fprintf_chk@GLIBC_2.3.4>
    5276:	push   0x24
    527b:	jmp    5020 <.plt>

0000000000005280 <execlp@plt>:
    5280:	jmp    QWORD PTR [rip+0x25d2a]        # 2afb0 <execlp@GLIBC_2.2.5>
    5286:	push   0x25
    528b:	jmp    5020 <.plt>

0000000000005290 <strerror@plt>:
    5290:	jmp    QWORD PTR [rip+0x25d22]        # 2afb8 <strerror@GLIBC_2.2.5>
    5296:	push   0x26
    529b:	jmp    5020 <.plt>

00000000000052a0 <wait@plt>:
    52a0:	jmp    QWORD PTR [rip+0x25d1a]        # 2afc0 <wait@GLIBC_2.2.5>
    52a6:	push   0x27
    52ab:	jmp    5020 <.plt>

00000000000052b0 <fork@plt>:
    52b0:	jmp    QWORD PTR [rip+0x25d12]        # 2afc8 <fork@GLIBC_2.2.5>
    52b6:	push   0x28
    52bb:	jmp    5020 <.plt>

Disassembly of section .plt.got:

00000000000052c0 <__cxa_finalize@plt>:
    52c0:	jmp    QWORD PTR [rip+0x25d2a]        # 2aff0 <__cxa_finalize@GLIBC_2.2.5>
    52c6:	xchg   ax,ax

Disassembly of section .text:

00000000000052d0 <main>:
    52d0:	sub    rsp,0xa8
    52d7:	mov    rdx,rsi
    52da:	xor    r9d,r9d
    52dd:	mov    esi,edi
    52df:	mov    rax,QWORD PTR fs:0x28
    52e8:	mov    QWORD PTR [rsp+0x98],rax
    52f0:	xor    eax,eax
    52f2:	mov    rax,QWORD PTR [rip+0x29147]        # 2e440 <stderr@@GLIBC_2.2.5>
    52f9:	xor    r8d,r8d
    52fc:	xor    ecx,ecx
    52fe:	lea    rdi,[rip+0x2503b]        # 2a340 <parser_def>
    5305:	mov    QWORD PTR [rip+0x61f4c],rax        # 67258 <warn>
    530c:	call   5150 <argp_parse@plt>
    5311:	mov    rdi,QWORD PTR [rip+0x25e28]        # 2b140 <G+0x20>
    5318:	test   rdi,rdi
    531b:	je     5409 <main+0x139>
    5321:	xor    esi,esi
    5323:	xor    eax,eax
    5325:	call   5220 <open@plt>
    532a:	mov    DWORD PTR [rip+0x25df0],eax        # 2b120 <G>
    5330:	test   eax,eax
    5332:	js     53f0 <main+0x120>
    5338:	mov    rdx,rsp
    533b:	mov    esi,eax
    533d:	mov    edi,0x1
    5342:	call   51c0 <__fxstat@plt>
    5347:	mov    rax,QWORD PTR [rsp+0x30]
    534c:	mov    QWORD PTR [rip+0x25dfd],rax        # 2b150 <G+0x30>
    5353:	mov    edi,DWORD PTR [rip+0x25dc7]        # 2b120 <G>
    5359:	call   1db00 <mread_init>
    535e:	mov    QWORD PTR [rip+0x25dc3],rax        # 2b128 <G+0x8>
    5365:	test   rax,rax
    5368:	je     544a <main+0x17a>
    536e:	mov    rdi,QWORD PTR [rip+0x25dc3]        # 2b138 <G+0x18>
    5375:	test   rdi,rdi
    5378:	je     537f <main+0xaf>
    537a:	call   7cf0 <parse_symbol_file>
    537f:	test   BYTE PTR [rip+0x25d1b],0x40        # 2b0a1 <opt+0x1>
    5386:	jne    53e0 <main+0x110>
    5388:	call   1c9e0 <init_pcpus>
    538d:	test   BYTE PTR [rip+0x25d0f],0x8        # 2b0a3 <opt+0x3>
    5394:	jne    5440 <main+0x170>
    539a:	call   1c2c0 <process_records>
    539f:	test   BYTE PTR [rip+0x25cfb],0x20        # 2b0a1 <opt+0x1>
    53a6:	jne    5436 <main+0x166>
    53ac:	movzx  eax,BYTE PTR [rip+0x25cf0]        # 2b0a3 <opt+0x3>
    53b3:	test   al,0x20
    53b5:	jne    5428 <main+0x158>
    53b7:	test   al,0x40
    53b9:	jne    541a <main+0x14a>
    53bb:	test   al,0x8
    53bd:	jne    5413 <main+0x143>
    53bf:	xor    eax,eax
    53c1:	mov    rcx,QWORD PTR [rsp+0x98]
    53c9:	xor    rcx,QWORD PTR fs:0x28
    53d2:	jne    545b <main+0x18b>
    53d8:	add    rsp,0xa8
    53df:	ret    
    53e0:	mov    rax,QWORD PTR [rip+0x29039]        # 2e420 <stdout@@GLIBC_2.2.5>
    53e7:	mov    QWORD PTR [rip+0x61e6a],rax        # 67258 <warn>
    53ee:	jmp    5388 <main+0xb8>
    53f0:	lea    rdi,[rip+0x18d31]        # 1e128 <_IO_stdin_used+0x128>
    53f7:	call   5240 <perror@plt>
    53fc:	cmp    DWORD PTR [rip+0x25cdd],0x7        # 2b0e0 <opt+0x40>
    5403:	ja     5353 <main+0x83>
    5409:	mov    edi,0x1
    540e:	call   5250 <exit@plt>
    5413:	call   16e70 <progress_finish>
    5418:	jmp    53bf <main+0xef>
    541a:	call   1c500 <report_pcpu>
    541f:	movzx  eax,BYTE PTR [rip+0x25c7d]        # 2b0a3 <opt+0x3>
    5426:	jmp    53bb <main+0xeb>
    5428:	call   1cc90 <summary>
    542d:	movzx  eax,BYTE PTR [rip+0x25c6f]        # 2b0a3 <opt+0x3>
    5434:	jmp    53b7 <main+0xe7>
    5436:	call   9c80 <interval_tail>
    543b:	jmp    53ac <main+0xdc>
    5440:	call   16cc0 <progress_init>
    5445:	jmp    539a <main+0xca>
    544a:	lea    rdi,[rip+0x19c31]        # 1f082 <_IO_stdin_used+0x1082>
    5451:	call   5240 <perror@plt>
    5456:	jmp    536e <main+0x9e>
    545b:	call   50d0 <__stack_chk_fail@plt>

0000000000005460 <_start>:
    5460:	xor    ebp,ebp
    5462:	mov    r9,rdx
    5465:	pop    rsi
    5466:	mov    rdx,rsp
    5469:	and    rsp,0xfffffffffffffff0
    546d:	push   rax
    546e:	push   rsp
    546f:	lea    r8,[rip+0x189aa]        # 1de20 <__libc_csu_fini>
    5476:	lea    rcx,[rip+0x18943]        # 1ddc0 <__libc_csu_init>
    547d:	lea    rdi,[rip+0xfffffffffffffe4c]        # 52d0 <main>
    5484:	call   QWORD PTR [rip+0x25b4e]        # 2afd8 <__libc_start_main@GLIBC_2.2.5>
    548a:	hlt    
    548b:	nop    DWORD PTR [rax+rax*1+0x0]

0000000000005490 <deregister_tm_clones>:
    5490:	lea    rdi,[rip+0x28f89]        # 2e420 <stdout@@GLIBC_2.2.5>
    5497:	lea    rax,[rip+0x28f82]        # 2e420 <stdout@@GLIBC_2.2.5>
    549e:	cmp    rax,rdi
    54a1:	je     54b8 <deregister_tm_clones+0x28>
    54a3:	mov    rax,QWORD PTR [rip+0x25b26]        # 2afd0 <_ITM_deregisterTMCloneTable>
    54aa:	test   rax,rax
    54ad:	je     54b8 <deregister_tm_clones+0x28>
    54af:	jmp    rax
    54b1:	nop    DWORD PTR [rax+0x0]
    54b8:	ret    
    54b9:	nop    DWORD PTR [rax+0x0]

00000000000054c0 <register_tm_clones>:
    54c0:	lea    rdi,[rip+0x28f59]        # 2e420 <stdout@@GLIBC_2.2.5>
    54c7:	lea    rsi,[rip+0x28f52]        # 2e420 <stdout@@GLIBC_2.2.5>
    54ce:	sub    rsi,rdi
    54d1:	sar    rsi,0x3
    54d5:	mov    rax,rsi
    54d8:	shr    rax,0x3f
    54dc:	add    rsi,rax
    54df:	sar    rsi,1
    54e2:	je     54f8 <register_tm_clones+0x38>
    54e4:	mov    rax,QWORD PTR [rip+0x25afd]        # 2afe8 <_ITM_registerTMCloneTable>
    54eb:	test   rax,rax
    54ee:	je     54f8 <register_tm_clones+0x38>
    54f0:	jmp    rax
    54f2:	nop    WORD PTR [rax+rax*1+0x0]
    54f8:	ret    
    54f9:	nop    DWORD PTR [rax+0x0]

0000000000005500 <__do_global_dtors_aux>:
    5500:	cmp    BYTE PTR [rip+0x28f41],0x0        # 2e448 <completed.7930>
    5507:	jne    5538 <__do_global_dtors_aux+0x38>
    5509:	push   rbp
    550a:	cmp    QWORD PTR [rip+0x25ade],0x0        # 2aff0 <__cxa_finalize@GLIBC_2.2.5>
    5512:	mov    rbp,rsp
    5515:	je     5523 <__do_global_dtors_aux+0x23>
    5517:	mov    rdi,QWORD PTR [rip+0x25aea]        # 2b008 <__dso_handle>
    551e:	call   52c0 <__cxa_finalize@plt>
    5523:	call   5490 <deregister_tm_clones>
    5528:	mov    BYTE PTR [rip+0x28f19],0x1        # 2e448 <completed.7930>
    552f:	pop    rbp
    5530:	ret    
    5531:	nop    DWORD PTR [rax+0x0]
    5538:	ret    
    5539:	nop    DWORD PTR [rax+0x0]

0000000000005540 <frame_dummy>:
    5540:	jmp    54c0 <register_tm_clones>
    5545:	nop    WORD PTR cs:[rax+rax*1+0x0]
    554f:	nop

0000000000005550 <cr3_time_compare>:
    5550:	mov    rdx,QWORD PTR [rsi]
    5553:	mov    rcx,QWORD PTR [rdi]
    5556:	mov    eax,0x1
    555b:	mov    rsi,QWORD PTR [rdx+0x60]
    555f:	cmp    QWORD PTR [rcx+0x60],rsi
    5563:	jl     5581 <cr3_time_compare+0x31>
    5565:	mov    eax,0xffffffff
    556a:	jne    5581 <cr3_time_compare+0x31>
    556c:	mov    eax,0x1
    5571:	mov    edx,DWORD PTR [rdx+0x58]
    5574:	cmp    DWORD PTR [rcx+0x58],edx
    5577:	jl     5581 <cr3_time_compare+0x31>
    5579:	setne  al
    557c:	movzx  eax,al
    557f:	neg    eax
    5581:	ret    
    5582:	data16 nop WORD PTR cs:[rax+rax*1+0x0]
    558d:	nop    DWORD PTR [rax]

0000000000005590 <eip_compare>:
    5590:	mov    rdx,QWORD PTR [rsi]
    5593:	mov    rcx,QWORD PTR [rdi]
    5596:	mov    eax,0x1
    559b:	mov    rsi,QWORD PTR [rdx+0x20]
    559f:	cmp    QWORD PTR [rcx+0x20],rsi
    55a3:	jb     55c1 <eip_compare+0x31>
    55a5:	mov    eax,0xffffffff
    55aa:	jne    55c1 <eip_compare+0x31>
    55ac:	mov    eax,0x1
    55b1:	mov    edx,DWORD PTR [rdx+0x14]
    55b4:	cmp    DWORD PTR [rcx+0x14],edx
    55b7:	jl     55c1 <eip_compare+0x31>
    55b9:	setne  al
    55bc:	movzx  eax,al
    55bf:	neg    eax
    55c1:	ret    
    55c2:	data16 nop WORD PTR cs:[rax+rax*1+0x0]
    55cd:	nop    DWORD PTR [rax]

00000000000055d0 <cr3_compare_start>:
    55d0:	mov    rdx,QWORD PTR [rsi]
    55d3:	mov    rcx,QWORD PTR [rdi]
    55d6:	mov    eax,0x1
    55db:	mov    rdx,QWORD PTR [rdx+0x20]
    55df:	cmp    QWORD PTR [rcx+0x20],rdx
    55e3:	ja     55ed <cr3_compare_start+0x1d>
    55e5:	setne  al
    55e8:	movzx  eax,al
    55eb:	neg    eax
    55ed:	ret    
    55ee:	xchg   ax,ax

00000000000055f0 <hvm_msr_write_summary>:
    55f0:	ret    
    55f1:	data16 nop WORD PTR cs:[rax+rax*1+0x0]
    55fc:	nop    DWORD PTR [rax+0x0]

0000000000005600 <hvm_intr_summary>:
    5600:	push   r12
    5602:	lea    r12,[rip+0x26437]        # 2ba40 <hvm_extint_vector_name>
    5609:	push   rbp
    560a:	mov    rbp,rdi
    560d:	push   rbx
    560e:	xor    ebx,ebx
    5610:	jmp    563a <hvm_intr_summary+0x3a>
    5612:	nop    WORD PTR [rax+rax*1+0x0]
    5618:	mov    ecx,ebx
    561a:	lea    rsi,[rip+0x189e3]        # 1e004 <_IO_stdin_used+0x4>
    5621:	mov    edi,0x1
    5626:	xor    eax,eax
    5628:	call   5200 <__printf_chk@plt>
    562d:	add    rbx,0x1
    5631:	cmp    rbx,0x100
    5638:	je     5675 <hvm_intr_summary+0x75>
    563a:	mov    r8d,DWORD PTR [rbp+rbx*4+0x10068]
    5642:	test   r8d,r8d
    5645:	je     562d <hvm_intr_summary+0x2d>
    5647:	mov    rdx,QWORD PTR [r12+rbx*8]
    564b:	test   rdx,rdx
    564e:	jne    5618 <hvm_intr_summary+0x18>
    5650:	mov    edx,ebx
    5652:	mov    ecx,r8d
    5655:	lea    rsi,[rip+0x189b9]        # 1e015 <_IO_stdin_used+0x15>
    565c:	xor    eax,eax
    565e:	mov    edi,0x1
    5663:	add    rbx,0x1
    5667:	call   5200 <__printf_chk@plt>
    566c:	cmp    rbx,0x100
    5673:	jne    563a <hvm_intr_summary+0x3a>
    5675:	mov    edx,DWORD PTR [rbp+0x10468]
    567b:	test   edx,edx
    567d:	jne    5684 <hvm_intr_summary+0x84>
    567f:	pop    rbx
    5680:	pop    rbp
    5681:	pop    r12
    5683:	ret    
    5684:	pop    rbx
    5685:	lea    rsi,[rip+0x189a0]        # 1e02c <_IO_stdin_used+0x2c>
    568c:	pop    rbp
    568d:	mov    edi,0x1
    5692:	xor    eax,eax
    5694:	pop    r12
    5696:	jmp    5200 <__printf_chk@plt>
    569b:	nop    DWORD PTR [rax+rax*1+0x0]

00000000000056a0 <cmd_to_str.part.4>:
    56a0:	sub    rsp,0x8
    56a4:	mov    r9d,edi
    56a7:	lea    r8,[rip+0x18995]        # 1e043 <_IO_stdin_used+0x43>
    56ae:	xor    eax,eax
    56b0:	mov    ecx,0x20
    56b5:	mov    edx,0x1
    56ba:	mov    esi,0x20
    56bf:	lea    rdi,[rip+0x61bba]        # 67280 <buf.7409>
    56c6:	call   5030 <__snprintf_chk@plt>
    56cb:	lea    rax,[rip+0x61bae]        # 67280 <buf.7409>
    56d2:	add    rsp,0x8
    56d6:	ret    
    56d7:	nop    WORD PTR [rax+rax*1+0x0]

00000000000056e0 <update_cycles.part.5>:
    56e0:	push   r12
    56e2:	mov    edx,DWORD PTR [rip+0x259f0]        # 2b0d8 <opt+0x38>
    56e8:	push   rbp
    56e9:	mov    rbp,rsi
    56ec:	push   rbx
    56ed:	movsxd rcx,DWORD PTR [rdi+0x4]
    56f1:	mov    rbx,rdi
    56f4:	mov    eax,ecx
    56f6:	test   edx,edx
    56f8:	je     5795 <update_cycles.part.5+0xb5>
    56fe:	mov    eax,DWORD PTR [rdi+0x8]
    5701:	cmp    eax,ecx
    5703:	jg     57b0 <update_cycles.part.5+0xd0>
    5709:	mov    r12d,DWORD PTR [rip+0x259cc]        # 2b0dc <opt+0x3c>
    5710:	test   ecx,ecx
    5712:	je     5722 <update_cycles.part.5+0x42>
    5714:	test   r12d,r12d
    5717:	je     5722 <update_cycles.part.5+0x42>
    5719:	cmp    eax,r12d
    571c:	jge    57e0 <update_cycles.part.5+0x100>
    5722:	add    eax,eax
    5724:	cmove  eax,edx
    5727:	test   r12d,r12d
    572a:	je     57c0 <update_cycles.part.5+0xe0>
    5730:	cmp    eax,r12d
    5733:	jle    57c0 <update_cycles.part.5+0xe0>
    5739:	movsxd rsi,r12d
    573c:	mov    rdi,QWORD PTR [rbx+0x18]
    5740:	shl    rsi,0x3
    5744:	call   51d0 <realloc@plt>
    5749:	test   rax,rax
    574c:	je     57d0 <update_cycles.part.5+0xf0>
    5752:	mov    QWORD PTR [rbx+0x18],rax
    5756:	mov    DWORD PTR [rbx+0x8],r12d
    575a:	movsxd rcx,DWORD PTR [rbx+0x4]
    575e:	cmp    ecx,r12d
    5761:	jl     57b0 <update_cycles.part.5+0xd0>
    5763:	mov    eax,ecx
    5765:	cdq    
    5766:	idiv   r12d
    5769:	lea    esi,[rax+0x1]
    576c:	movsxd rdi,edx
    576f:	mov    edx,0x55555556
    5774:	mov    eax,esi
    5776:	imul   edx
    5778:	mov    eax,esi
    577a:	sar    eax,0x1f
    577d:	sub    eax,edx
    577f:	add    eax,edi
    5781:	cdq    
    5782:	idiv   esi
    5784:	mov    eax,ecx
    5786:	test   edx,edx
    5788:	jne    5795 <update_cycles.part.5+0xb5>
    578a:	mov    rax,QWORD PTR [rbx+0x18]
    578e:	mov    QWORD PTR [rax+rdi*8],rbp
    5792:	mov    eax,DWORD PTR [rbx+0x4]
    5795:	add    eax,0x1
    5798:	add    QWORD PTR [rbx+0x10],rbp
    579c:	add    QWORD PTR [rbx+0x28],rbp
    57a0:	mov    DWORD PTR [rbx+0x4],eax
    57a3:	add    DWORD PTR [rbx+0x20],0x1
    57a7:	pop    rbx
    57a8:	pop    rbp
    57a9:	pop    r12
    57ab:	ret    
    57ac:	nop    DWORD PTR [rax+0x0]
    57b0:	mov    rax,QWORD PTR [rbx+0x18]
    57b4:	mov    QWORD PTR [rax+rcx*8],rbp
    57b8:	mov    eax,DWORD PTR [rbx+0x4]
    57bb:	jmp    5795 <update_cycles.part.5+0xb5>
    57bd:	nop    DWORD PTR [rax]
    57c0:	mov    r12d,eax
    57c3:	jmp    5739 <update_cycles.part.5+0x59>
    57c8:	nop    DWORD PTR [rax+rax*1+0x0]
    57d0:	mov    r12d,DWORD PTR [rbx+0x8]
    57d4:	jmp    575a <update_cycles.part.5+0x7a>
    57d6:	nop    WORD PTR cs:[rax+rax*1+0x0]
    57e0:	mov    r12d,eax
    57e3:	jmp    5763 <update_cycles.part.5+0x83>
    57e8:	nop    DWORD PTR [rax+rax*1+0x0]

00000000000057f0 <percentile.part.6>:
    57f0:	imul   edx,esi
    57f3:	push   r14
    57f5:	push   r13
    57f7:	push   r12
    57f9:	mov    ecx,edx
    57fb:	mov    edx,0x51eb851f
    5800:	push   rbp
    5801:	lea    ebp,[rsi-0x1]
    5804:	mov    eax,ecx
    5806:	sar    ecx,0x1f
    5809:	push   rbx
    580a:	imul   edx
    580c:	sar    edx,0x5
    580f:	sub    edx,ecx
    5811:	movsxd rax,edx
    5814:	lea    r14,[rdi+rax*8]
    5818:	test   ebp,ebp
    581a:	jle    5889 <percentile.part.6+0x99>
    581c:	mov    rbx,rdi
    581f:	mov    r13,rax
    5822:	xor    r12d,r12d
    5825:	nop    DWORD PTR [rax]
    5828:	movsxd rdx,r12d
    582b:	movsxd rax,ebp
    582e:	mov    r10,QWORD PTR [r14]
    5831:	mov    esi,r12d
    5834:	lea    r11,[rbx+rdx*8]
    5838:	mov    rcx,QWORD PTR [rbx+rax*8]
    583c:	mov    edx,ebp
    583e:	jmp    5847 <percentile.part.6+0x57>
    5840:	add    esi,0x1
    5843:	add    r11,0x8
    5847:	mov    r9,QWORD PTR [r11]
    584a:	mov    edi,esi
    584c:	cmp    r10,r9
    584f:	jg     5840 <percentile.part.6+0x50>
    5851:	cmp    r10,rcx
    5854:	jge    58b8 <percentile.part.6+0xc8>
    5856:	lea    rax,[rbx+rax*8-0x8]
    585b:	nop    DWORD PTR [rax+rax*1+0x0]
    5860:	mov    r8,rax
    5863:	sub    rax,0x8
    5867:	mov    rcx,QWORD PTR [rax+0x8]
    586b:	sub    edx,0x1
    586e:	cmp    r10,rcx
    5871:	jl     5860 <percentile.part.6+0x70>
    5873:	cmp    esi,edx
    5875:	jle    5898 <percentile.part.6+0xa8>
    5877:	cmp    r13d,edx
    587a:	cmovg  r12d,edi
    587e:	cmp    r13d,edi
    5881:	cmovl  ebp,edx
    5884:	cmp    ebp,r12d
    5887:	jg     5828 <percentile.part.6+0x38>
    5889:	pop    rbx
    588a:	mov    rax,QWORD PTR [r14]
    588d:	pop    rbp
    588e:	pop    r12
    5890:	pop    r13
    5892:	pop    r14
    5894:	ret    
    5895:	nop    DWORD PTR [rax]
    5898:	add    esi,0x1
    589b:	sub    edx,0x1
    589e:	mov    QWORD PTR [r11],rcx
    58a1:	mov    edi,esi
    58a3:	mov    QWORD PTR [r8],r9
    58a6:	cmp    edx,esi
    58a8:	jl     5877 <percentile.part.6+0x87>
    58aa:	movsxd rax,edx
    58ad:	mov    rcx,QWORD PTR [rbx+rax*8]
    58b1:	jmp    5843 <percentile.part.6+0x53>
    58b3:	nop    DWORD PTR [rax+rax*1+0x0]
    58b8:	lea    r8,[rbx+rax*8]
    58bc:	jmp    5873 <percentile.part.6+0x83>
    58be:	xchg   ax,ax

00000000000058c0 <hvm_pf_xen_summary>:
    58c0:	push   r15
    58c2:	push   r14
    58c4:	push   r13
    58c6:	push   r12
    58c8:	push   rbp
    58c9:	push   rbx
    58ca:	mov    rbx,rdi
    58cd:	lea    r12,[rbx+0x108d8]
    58d4:	sub    rsp,0x38
    58d8:	mov    QWORD PTR [rsp+0x10],rdi
    58dd:	lea    rdi,[rip+0x1876c]        # 1e050 <_IO_stdin_used+0x50>
    58e4:	call   5090 <puts@plt>
    58e9:	mov    QWORD PTR [rsp+0x8],0x0
    58f2:	jmp    591a <hvm_pf_xen_summary+0x5a>
    58f4:	nop    DWORD PTR [rax+0x0]
    58f8:	cmp    r14d,0x6
    58fc:	je     6070 <hvm_pf_xen_summary+0x7b0>
    5902:	cmp    ebx,0xd
    5905:	je     6810 <hvm_pf_xen_summary+0xf50>
    590b:	nop    DWORD PTR [rax+rax*1+0x0]
    5910:	add    QWORD PTR [rsp+0x8],0x1
    5916:	add    r12,0x38
    591a:	mov    rax,QWORD PTR [rsp+0x8]
    591f:	lea    rcx,[rip+0x25c3a]        # 2b560 <pf_xen_name>
    5926:	mov    rdx,QWORD PTR [rcx+rax*8]
    592a:	mov    ebx,eax
    592c:	mov    r14d,eax
    592f:	mov    eax,DWORD PTR [r12]
    5933:	test   rdx,rdx
    5936:	je     5bc0 <hvm_pf_xen_summary+0x300>
    593c:	test   eax,eax
    593e:	je     5a61 <hvm_pf_xen_summary+0x1a1>
    5944:	mov    r15d,DWORD PTR [rip+0x2578d]        # 2b0d8 <opt+0x38>
    594b:	test   r15d,r15d
    594e:	je     6660 <hvm_pf_xen_summary+0xda0>
    5954:	mov    r15d,DWORD PTR [r12+0x4]
    5959:	cmp    DWORD PTR [r12+0x8],r15d
    595e:	cmovle r15d,DWORD PTR [r12+0x8]
    5964:	test   r15d,r15d
    5967:	je     6760 <hvm_pf_xen_summary+0xea0>
    596d:	mov    rdi,QWORD PTR [r12+0x18]
    5972:	mov    esi,r15d
    5975:	mov    edx,0x32
    597a:	call   57f0 <percentile.part.6>
    597f:	mov    rdi,QWORD PTR [r12+0x18]
    5984:	mov    esi,r15d
    5987:	mov    edx,0x5
    598c:	mov    r13,rax
    598f:	call   57f0 <percentile.part.6>
    5994:	mov    rdi,QWORD PTR [r12+0x18]
    5999:	mov    esi,r15d
    599c:	mov    edx,0x5f
    59a1:	mov    rbp,rax
    59a4:	call   57f0 <percentile.part.6>
    59a9:	mov    r15,rax
    59ac:	mov    rcx,QWORD PTR [rsp+0x8]
    59b1:	lea    rax,[rip+0x25ba8]        # 2b560 <pf_xen_name>
    59b8:	mov    edi,0x1
    59bd:	lea    rsi,[rip+0x1869a]        # 1e05e <_IO_stdin_used+0x5e>
    59c4:	mov    rdx,QWORD PTR [rax+rcx*8]
    59c8:	xor    eax,eax
    59ca:	call   5200 <__printf_chk@plt>
    59cf:	mov    eax,DWORD PTR [r12+0x4]
    59d4:	mov    rsi,QWORD PTR [r12+0x10]
    59d9:	test   eax,eax
    59db:	je     5c58 <hvm_pf_xen_summary+0x398>
    59e1:	movsxd rcx,eax
    59e4:	xor    edx,edx
    59e6:	mov    rax,rsi
    59e9:	div    rcx
    59ec:	mov    rcx,rax
    59ef:	lea    rax,[rsi+rsi*4]
    59f3:	pxor   xmm1,xmm1
    59f7:	pxor   xmm0,xmm0
    59fb:	cvtsi2sd xmm0,QWORD PTR [rip+0x297cc]        # 2f1d0 <P+0x30>
    5a04:	lea    rdx,[rax+rax*4]
    5a08:	shl    rdx,0x2
    5a0c:	cvtsi2sd xmm1,rdx
    5a11:	divsd  xmm1,xmm0
    5a15:	test   rsi,rsi
    5a18:	js     6640 <hvm_pf_xen_summary+0xd80>
    5a1e:	pxor   xmm0,xmm0
    5a22:	cvtsi2sd xmm0,rsi
    5a27:	pxor   xmm2,xmm2
    5a2b:	sub    rsp,0x8
    5a2f:	mov    r8,rbp
    5a32:	mov    r9,r13
    5a35:	cvtsi2sd xmm2,QWORD PTR [rip+0x25672]        # 2b0b0 <opt+0x10>
    5a3e:	push   r15
    5a40:	mov    edx,DWORD PTR [r12]
    5a44:	lea    rsi,[rip+0x1adcd]        # 20818 <_IO_stdin_used+0x2818>
    5a4b:	mov    edi,0x1
    5a50:	mov    eax,0x2
    5a55:	divsd  xmm0,xmm2
    5a59:	call   5200 <__printf_chk@plt>
    5a5e:	pop    r11
    5a60:	pop    rbp
    5a61:	cmp    r14d,0x8
    5a65:	je     5c60 <hvm_pf_xen_summary+0x3a0>
    5a6b:	cmp    r14d,0xc
    5a6f:	jne    58f8 <hvm_pf_xen_summary+0x38>
    5a75:	mov    rax,QWORD PTR [rsp+0x10]
    5a7a:	mov    QWORD PTR [rsp+0x18],r12
    5a7f:	lea    r15,[rip+0x25bba]        # 2b640 <pf_xen_non_emul_name>
    5a86:	lea    rbx,[r15+0x20]
    5a8a:	lea    r14,[rax+0x11010]
    5a91:	mov    r10d,DWORD PTR [r14]
    5a94:	test   r10d,r10d
    5a97:	je     5ba3 <hvm_pf_xen_summary+0x2e3>
    5a9d:	mov    r9d,DWORD PTR [rip+0x25634]        # 2b0d8 <opt+0x38>
    5aa4:	test   r9d,r9d
    5aa7:	je     6560 <hvm_pf_xen_summary+0xca0>
    5aad:	mov    ecx,DWORD PTR [r14+0x4]
    5ab1:	cmp    DWORD PTR [r14+0x8],ecx
    5ab5:	cmovle ecx,DWORD PTR [r14+0x8]
    5aba:	mov    r12d,ecx
    5abd:	test   ecx,ecx
    5abf:	je     6720 <hvm_pf_xen_summary+0xe60>
    5ac5:	mov    rdi,QWORD PTR [r14+0x18]
    5ac9:	mov    esi,ecx
    5acb:	mov    edx,0x32
    5ad0:	call   57f0 <percentile.part.6>
    5ad5:	mov    rdi,QWORD PTR [r14+0x18]
    5ad9:	mov    esi,r12d
    5adc:	mov    edx,0x5
    5ae1:	mov    r13,rax
    5ae4:	call   57f0 <percentile.part.6>
    5ae9:	mov    rdi,QWORD PTR [r14+0x18]
    5aed:	mov    esi,r12d
    5af0:	mov    edx,0x5f
    5af5:	mov    rbp,rax
    5af8:	call   57f0 <percentile.part.6>
    5afd:	mov    r12,rax
    5b00:	mov    rdx,QWORD PTR [r15]
    5b03:	lea    rsi,[rip+0x1856d]        # 1e077 <_IO_stdin_used+0x77>
    5b0a:	mov    edi,0x1
    5b0f:	xor    eax,eax
    5b11:	call   5200 <__printf_chk@plt>
    5b16:	mov    eax,DWORD PTR [r14+0x4]
    5b1a:	mov    rsi,QWORD PTR [r14+0x10]
    5b1e:	xor    ecx,ecx
    5b20:	test   eax,eax
    5b22:	je     5b32 <hvm_pf_xen_summary+0x272>
    5b24:	movsxd rcx,eax
    5b27:	xor    edx,edx
    5b29:	mov    rax,rsi
    5b2c:	div    rcx
    5b2f:	mov    rcx,rax
    5b32:	lea    rdx,[rsi+rsi*4]
    5b36:	pxor   xmm1,xmm1
    5b3a:	pxor   xmm0,xmm0
    5b3e:	cvtsi2sd xmm0,QWORD PTR [rip+0x29689]        # 2f1d0 <P+0x30>
    5b47:	lea    rdx,[rdx+rdx*4]
    5b4b:	shl    rdx,0x2
    5b4f:	cvtsi2sd xmm1,rdx
    5b54:	divsd  xmm1,xmm0
    5b58:	test   rsi,rsi
    5b5b:	js     6620 <hvm_pf_xen_summary+0xd60>
    5b61:	pxor   xmm0,xmm0
    5b65:	cvtsi2sd xmm0,rsi
    5b6a:	pxor   xmm2,xmm2
    5b6e:	sub    rsp,0x8
    5b72:	mov    r8,rbp
    5b75:	mov    edi,0x1
    5b7a:	cvtsi2sd xmm2,QWORD PTR [rip+0x2552d]        # 2b0b0 <opt+0x10>
    5b83:	push   r12
    5b85:	mov    edx,DWORD PTR [r14]
    5b88:	mov    r9,r13
    5b8b:	lea    rsi,[rip+0x1ac86]        # 20818 <_IO_stdin_used+0x2818>
    5b92:	mov    eax,0x2
    5b97:	divsd  xmm0,xmm2
    5b9b:	call   5200 <__printf_chk@plt>
    5ba0:	pop    rdi
    5ba1:	pop    r8
    5ba3:	add    r15,0x8
    5ba7:	add    r14,0x38
    5bab:	cmp    rbx,r15
    5bae:	jne    5a91 <hvm_pf_xen_summary+0x1d1>
    5bb4:	mov    r12,QWORD PTR [rsp+0x18]
    5bb9:	jmp    5910 <hvm_pf_xen_summary+0x50>
    5bbe:	xchg   ax,ax
    5bc0:	test   eax,eax
    5bc2:	je     5a61 <hvm_pf_xen_summary+0x1a1>
    5bc8:	mov    r13d,DWORD PTR [rip+0x25509]        # 2b0d8 <opt+0x38>
    5bcf:	test   r13d,r13d
    5bd2:	je     6730 <hvm_pf_xen_summary+0xe70>
    5bd8:	mov    r15d,DWORD PTR [r12+0x4]
    5bdd:	cmp    DWORD PTR [r12+0x8],r15d
    5be2:	cmovle r15d,DWORD PTR [r12+0x8]
    5be8:	test   r15d,r15d
    5beb:	je     6953 <hvm_pf_xen_summary+0x1093>
    5bf1:	mov    rdi,QWORD PTR [r12+0x18]
    5bf6:	mov    esi,r15d
    5bf9:	mov    edx,0x32
    5bfe:	call   57f0 <percentile.part.6>
    5c03:	mov    rdi,QWORD PTR [r12+0x18]
    5c08:	mov    esi,r15d
    5c0b:	mov    edx,0x5
    5c10:	mov    r13,rax
    5c13:	call   57f0 <percentile.part.6>
    5c18:	mov    rdi,QWORD PTR [r12+0x18]
    5c1d:	mov    esi,r15d
    5c20:	mov    edx,0x5f
    5c25:	mov    rbp,rax
    5c28:	call   57f0 <percentile.part.6>
    5c2d:	mov    r15,rax
    5c30:	lea    rsi,[rip+0x18433]        # 1e06a <_IO_stdin_used+0x6a>
    5c37:	mov    edx,r14d
    5c3a:	mov    edi,0x1
    5c3f:	xor    eax,eax
    5c41:	call   5200 <__printf_chk@plt>
    5c46:	mov    eax,DWORD PTR [r12+0x4]
    5c4b:	mov    rsi,QWORD PTR [r12+0x10]
    5c50:	test   eax,eax
    5c52:	jne    59e1 <hvm_pf_xen_summary+0x121>
    5c58:	xor    ecx,ecx
    5c5a:	jmp    59ef <hvm_pf_xen_summary+0x12f>
    5c5f:	nop
    5c60:	mov    rax,QWORD PTR [rsp+0x10]
    5c65:	xor    ebp,ebp
    5c67:	mov    QWORD PTR [rsp+0x20],r12
    5c6c:	lea    rbx,[rax+0x10be8]
    5c73:	jmp    5d95 <hvm_pf_xen_summary+0x4d5>
    5c78:	nop    DWORD PTR [rax+rax*1+0x0]
    5c80:	mov    r15d,DWORD PTR [rbx+0x4]
    5c84:	cmp    DWORD PTR [rbx+0x8],r15d
    5c88:	cmovle r15d,DWORD PTR [rbx+0x8]
    5c8d:	test   r15d,r15d
    5c90:	je     5fb0 <hvm_pf_xen_summary+0x6f0>
    5c96:	mov    rdi,QWORD PTR [rbx+0x18]
    5c9a:	mov    esi,r15d
    5c9d:	mov    edx,0x32
    5ca2:	call   57f0 <percentile.part.6>
    5ca7:	mov    rdi,QWORD PTR [rbx+0x18]
    5cab:	mov    esi,r15d
    5cae:	mov    edx,0x5
    5cb3:	mov    r14,rax
    5cb6:	call   57f0 <percentile.part.6>
    5cbb:	mov    rdi,QWORD PTR [rbx+0x18]
    5cbf:	mov    esi,r15d
    5cc2:	mov    edx,0x5f
    5cc7:	mov    r13,rax
    5cca:	call   57f0 <percentile.part.6>
    5ccf:	mov    r15,rax
    5cd2:	lea    rax,[rip+0x25987]        # 2b660 <pf_xen_emul_name>
    5cd9:	lea    rsi,[rip+0x18397]        # 1e077 <_IO_stdin_used+0x77>
    5ce0:	mov    edi,0x1
    5ce5:	mov    rdx,QWORD PTR [rax+rbp*8]
    5ce9:	xor    eax,eax
    5ceb:	call   5200 <__printf_chk@plt>
    5cf0:	mov    eax,DWORD PTR [rbx+0x4]
    5cf3:	mov    rsi,QWORD PTR [rbx+0x10]
    5cf7:	xor    ecx,ecx
    5cf9:	test   eax,eax
    5cfb:	je     5d0b <hvm_pf_xen_summary+0x44b>
    5cfd:	movsxd rcx,eax
    5d00:	xor    edx,edx
    5d02:	mov    rax,rsi
    5d05:	div    rcx
    5d08:	mov    rcx,rax
    5d0b:	lea    rdx,[rsi+rsi*4]
    5d0f:	pxor   xmm1,xmm1
    5d13:	pxor   xmm0,xmm0
    5d17:	cvtsi2sd xmm0,QWORD PTR [rip+0x294b0]        # 2f1d0 <P+0x30>
    5d20:	lea    rdx,[rdx+rdx*4]
    5d24:	shl    rdx,0x2
    5d28:	cvtsi2sd xmm1,rdx
    5d2d:	divsd  xmm1,xmm0
    5d31:	test   rsi,rsi
    5d34:	js     5f90 <hvm_pf_xen_summary+0x6d0>
    5d3a:	pxor   xmm0,xmm0
    5d3e:	cvtsi2sd xmm0,rsi
    5d43:	pxor   xmm2,xmm2
    5d47:	sub    rsp,0x8
    5d4b:	mov    r9,r14
    5d4e:	mov    r8,r13
    5d51:	cvtsi2sd xmm2,QWORD PTR [rip+0x25356]        # 2b0b0 <opt+0x10>
    5d5a:	push   r15
    5d5c:	mov    edx,DWORD PTR [rbx]
    5d5e:	lea    rsi,[rip+0x1aab3]        # 20818 <_IO_stdin_used+0x2818>
    5d65:	mov    edi,0x1
    5d6a:	mov    eax,0x2
    5d6f:	divsd  xmm0,xmm2
    5d73:	call   5200 <__printf_chk@plt>
    5d78:	pop    rax
    5d79:	pop    rdx
    5d7a:	cmp    rbp,0x5
    5d7e:	je     5e50 <hvm_pf_xen_summary+0x590>
    5d84:	cmp    ebp,0xd
    5d87:	je     6060 <hvm_pf_xen_summary+0x7a0>
    5d8d:	add    rbp,0x1
    5d91:	add    rbx,0x38
    5d95:	mov    esi,DWORD PTR [rbx]
    5d97:	test   esi,esi
    5d99:	je     5d7a <hvm_pf_xen_summary+0x4ba>
    5d9b:	mov    ecx,DWORD PTR [rip+0x25337]        # 2b0d8 <opt+0x38>
    5da1:	test   ecx,ecx
    5da3:	jne    5c80 <hvm_pf_xen_summary+0x3c0>
    5da9:	lea    rax,[rip+0x258b0]        # 2b660 <pf_xen_emul_name>
    5db0:	lea    rsi,[rip+0x182c0]        # 1e077 <_IO_stdin_used+0x77>
    5db7:	mov    edi,0x1
    5dbc:	mov    rdx,QWORD PTR [rax+rbp*8]
    5dc0:	xor    eax,eax
    5dc2:	call   5200 <__printf_chk@plt>
    5dc7:	mov    eax,DWORD PTR [rbx+0x4]
    5dca:	mov    rsi,QWORD PTR [rbx+0x10]
    5dce:	xor    ecx,ecx
    5dd0:	test   eax,eax
    5dd2:	je     5de2 <hvm_pf_xen_summary+0x522>
    5dd4:	movsxd rcx,eax
    5dd7:	xor    edx,edx
    5dd9:	mov    rax,rsi
    5ddc:	div    rcx
    5ddf:	mov    rcx,rax
    5de2:	lea    rdx,[rsi+rsi*4]
    5de6:	pxor   xmm1,xmm1
    5dea:	pxor   xmm0,xmm0
    5dee:	cvtsi2sd xmm0,QWORD PTR [rip+0x293d9]        # 2f1d0 <P+0x30>
    5df7:	lea    rdx,[rdx+rdx*4]
    5dfb:	shl    rdx,0x2
    5dff:	cvtsi2sd xmm1,rdx
    5e04:	divsd  xmm1,xmm0
    5e08:	test   rsi,rsi
    5e0b:	js     6500 <hvm_pf_xen_summary+0xc40>
    5e11:	pxor   xmm0,xmm0
    5e15:	cvtsi2sd xmm0,rsi
    5e1a:	pxor   xmm2,xmm2
    5e1e:	mov    edx,DWORD PTR [rbx]
    5e20:	mov    edi,0x1
    5e25:	mov    eax,0x2
    5e2a:	cvtsi2sd xmm2,QWORD PTR [rip+0x2527d]        # 2b0b0 <opt+0x10>
    5e33:	lea    rsi,[rip+0x1aa16]        # 20850 <_IO_stdin_used+0x2850>
    5e3a:	divsd  xmm0,xmm2
    5e3e:	call   5200 <__printf_chk@plt>
    5e43:	cmp    rbp,0x5
    5e47:	jne    5d84 <hvm_pf_xen_summary+0x4c4>
    5e4d:	nop    DWORD PTR [rax]
    5e50:	mov    rax,QWORD PTR [rsp+0x10]
    5e55:	xor    r12d,r12d
    5e58:	mov    QWORD PTR [rsp+0x18],rbx
    5e5d:	mov    ebx,r12d
    5e60:	lea    r13,[rax+0x10ef8]
    5e67:	mov    eax,DWORD PTR [r13+0x0]
    5e6b:	test   eax,eax
    5e6d:	je     5f76 <hvm_pf_xen_summary+0x6b6>
    5e73:	mov    eax,DWORD PTR [rip+0x2525f]        # 2b0d8 <opt+0x38>
    5e79:	test   eax,eax
    5e7b:	je     5fc0 <hvm_pf_xen_summary+0x700>
    5e81:	mov    r12d,DWORD PTR [r13+0x4]
    5e85:	cmp    DWORD PTR [r13+0x8],r12d
    5e89:	cmovle r12d,DWORD PTR [r13+0x8]
    5e8e:	test   r12d,r12d
    5e91:	je     6550 <hvm_pf_xen_summary+0xc90>
    5e97:	mov    rdi,QWORD PTR [r13+0x18]
    5e9b:	mov    esi,r12d
    5e9e:	mov    edx,0x32
    5ea3:	call   57f0 <percentile.part.6>
    5ea8:	mov    rdi,QWORD PTR [r13+0x18]
    5eac:	mov    esi,r12d
    5eaf:	mov    edx,0x5
    5eb4:	mov    r15,rax
    5eb7:	call   57f0 <percentile.part.6>
    5ebc:	mov    rdi,QWORD PTR [r13+0x18]
    5ec0:	mov    esi,r12d
    5ec3:	mov    edx,0x5f
    5ec8:	mov    r14,rax
    5ecb:	call   57f0 <percentile.part.6>
    5ed0:	mov    r12,rax
    5ed3:	lea    rsi,[rip+0x181ab]        # 1e085 <_IO_stdin_used+0x85>
    5eda:	mov    edx,ebx
    5edc:	mov    edi,0x1
    5ee1:	xor    eax,eax
    5ee3:	call   5200 <__printf_chk@plt>
    5ee8:	mov    eax,DWORD PTR [r13+0x4]
    5eec:	mov    rsi,QWORD PTR [r13+0x10]
    5ef0:	xor    ecx,ecx
    5ef2:	test   eax,eax
    5ef4:	je     5f04 <hvm_pf_xen_summary+0x644>
    5ef6:	movsxd rcx,eax
    5ef9:	xor    edx,edx
    5efb:	mov    rax,rsi
    5efe:	div    rcx
    5f01:	mov    rcx,rax
    5f04:	lea    rdx,[rsi+rsi*4]
    5f08:	pxor   xmm1,xmm1
    5f0c:	pxor   xmm0,xmm0
    5f10:	cvtsi2sd xmm0,QWORD PTR [rip+0x292b7]        # 2f1d0 <P+0x30>
    5f19:	lea    rdx,[rdx+rdx*4]
    5f1d:	shl    rdx,0x2
    5f21:	cvtsi2sd xmm1,rdx
    5f26:	divsd  xmm1,xmm0
    5f2a:	test   rsi,rsi
    5f2d:	js     6520 <hvm_pf_xen_summary+0xc60>
    5f33:	pxor   xmm0,xmm0
    5f37:	cvtsi2sd xmm0,rsi
    5f3c:	pxor   xmm2,xmm2
    5f40:	sub    rsp,0x8
    5f44:	mov    r9,r15
    5f47:	mov    r8,r14
    5f4a:	cvtsi2sd xmm2,QWORD PTR [rip+0x2515d]        # 2b0b0 <opt+0x10>
    5f53:	push   r12
    5f55:	mov    edx,DWORD PTR [r13+0x0]
    5f59:	lea    rsi,[rip+0x1a8b8]        # 20818 <_IO_stdin_used+0x2818>
    5f60:	mov    edi,0x1
    5f65:	mov    eax,0x2
    5f6a:	divsd  xmm0,xmm2
    5f6e:	call   5200 <__printf_chk@plt>
    5f73:	pop    r15
    5f75:	pop    rax
    5f76:	add    ebx,0x1
    5f79:	add    r13,0x38
    5f7d:	cmp    ebx,0x5
    5f80:	jne    5e67 <hvm_pf_xen_summary+0x5a7>
    5f86:	mov    rbx,QWORD PTR [rsp+0x18]
    5f8b:	jmp    5d8d <hvm_pf_xen_summary+0x4cd>
    5f90:	mov    rax,rsi
    5f93:	and    esi,0x1
    5f96:	pxor   xmm0,xmm0
    5f9a:	shr    rax,1
    5f9d:	or     rax,rsi
    5fa0:	cvtsi2sd xmm0,rax
    5fa5:	addsd  xmm0,xmm0
    5fa9:	jmp    5d43 <hvm_pf_xen_summary+0x483>
    5fae:	xchg   ax,ax
    5fb0:	xor    r15d,r15d
    5fb3:	xor    r13d,r13d
    5fb6:	xor    r14d,r14d
    5fb9:	jmp    5cd2 <hvm_pf_xen_summary+0x412>
    5fbe:	xchg   ax,ax
    5fc0:	lea    rsi,[rip+0x180be]        # 1e085 <_IO_stdin_used+0x85>
    5fc7:	mov    edx,ebx
    5fc9:	mov    edi,0x1
    5fce:	xor    eax,eax
    5fd0:	call   5200 <__printf_chk@plt>
    5fd5:	mov    eax,DWORD PTR [r13+0x4]
    5fd9:	mov    rsi,QWORD PTR [r13+0x10]
    5fdd:	xor    ecx,ecx
    5fdf:	test   eax,eax
    5fe1:	je     5ff1 <hvm_pf_xen_summary+0x731>
    5fe3:	movsxd rcx,eax
    5fe6:	xor    edx,edx
    5fe8:	mov    rax,rsi
    5feb:	div    rcx
    5fee:	mov    rcx,rax
    5ff1:	lea    rdx,[rsi+rsi*4]
    5ff5:	pxor   xmm1,xmm1
    5ff9:	pxor   xmm0,xmm0
    5ffd:	cvtsi2sd xmm0,QWORD PTR [rip+0x291ca]        # 2f1d0 <P+0x30>
    6006:	lea    rdx,[rdx+rdx*4]
    600a:	shl    rdx,0x2
    600e:	cvtsi2sd xmm1,rdx
    6013:	divsd  xmm1,xmm0
    6017:	test   rsi,rsi
    601a:	js     6700 <hvm_pf_xen_summary+0xe40>
    6020:	pxor   xmm0,xmm0
    6024:	cvtsi2sd xmm0,rsi
    6029:	pxor   xmm2,xmm2
    602d:	mov    edx,DWORD PTR [r13+0x0]
    6031:	mov    edi,0x1
    6036:	lea    rsi,[rip+0x1a813]        # 20850 <_IO_stdin_used+0x2850>
    603d:	cvtsi2sd xmm2,QWORD PTR [rip+0x2506a]        # 2b0b0 <opt+0x10>
    6046:	mov    eax,0x2
    604b:	divsd  xmm0,xmm2
    604f:	call   5200 <__printf_chk@plt>
    6054:	jmp    5f76 <hvm_pf_xen_summary+0x6b6>
    6059:	nop    DWORD PTR [rax+0x0]
    6060:	mov    r12,QWORD PTR [rsp+0x20]
    6065:	jmp    5910 <hvm_pf_xen_summary+0x50>
    606a:	nop    WORD PTR [rax+rax*1+0x0]
    6070:	mov    rax,QWORD PTR [rsp+0x10]
    6075:	xor    r15d,r15d
    6078:	mov    QWORD PTR [rsp+0x18],r12
    607d:	mov    r12,r15
    6080:	lea    rbx,[rax+0x110f0]
    6087:	mov    r15,rax
    608a:	jmp    61b0 <hvm_pf_xen_summary+0x8f0>
    608f:	nop
    6090:	mov    r14d,DWORD PTR [rbx+0x4]
    6094:	cmp    DWORD PTR [rbx+0x8],r14d
    6098:	cmovle r14d,DWORD PTR [rbx+0x8]
    609d:	test   r14d,r14d
    60a0:	je     64f0 <hvm_pf_xen_summary+0xc30>
    60a6:	mov    rdi,QWORD PTR [rbx+0x18]
    60aa:	mov    esi,r14d
    60ad:	mov    edx,0x32
    60b2:	call   57f0 <percentile.part.6>
    60b7:	mov    rdi,QWORD PTR [rbx+0x18]
    60bb:	mov    esi,r14d
    60be:	mov    edx,0x5
    60c3:	mov    r13,rax
    60c6:	call   57f0 <percentile.part.6>
    60cb:	mov    rdi,QWORD PTR [rbx+0x18]
    60cf:	mov    esi,r14d
    60d2:	mov    edx,0x5f
    60d7:	mov    rbp,rax
    60da:	call   57f0 <percentile.part.6>
    60df:	mov    r14,rax
    60e2:	lea    rax,[rip+0x254f7]        # 2b5e0 <pf_xen_fixup_name>
    60e9:	lea    rsi,[rip+0x17f87]        # 1e077 <_IO_stdin_used+0x77>
    60f0:	mov    edi,0x1
    60f5:	mov    rdx,QWORD PTR [rax+r12*8]
    60f9:	xor    eax,eax
    60fb:	call   5200 <__printf_chk@plt>
    6100:	mov    eax,DWORD PTR [rbx+0x4]
    6103:	mov    rsi,QWORD PTR [rbx+0x10]
    6107:	xor    ecx,ecx
    6109:	test   eax,eax
    610b:	je     611b <hvm_pf_xen_summary+0x85b>
    610d:	movsxd rcx,eax
    6110:	xor    edx,edx
    6112:	mov    rax,rsi
    6115:	div    rcx
    6118:	mov    rcx,rax
    611b:	lea    rdx,[rsi+rsi*4]
    611f:	pxor   xmm1,xmm1
    6123:	pxor   xmm0,xmm0
    6127:	cvtsi2sd xmm0,QWORD PTR [rip+0x290a0]        # 2f1d0 <P+0x30>
    6130:	lea    rdx,[rdx+rdx*4]
    6134:	shl    rdx,0x2
    6138:	cvtsi2sd xmm1,rdx
    613d:	divsd  xmm1,xmm0
    6141:	test   rsi,rsi
    6144:	js     64d0 <hvm_pf_xen_summary+0xc10>
    614a:	pxor   xmm0,xmm0
    614e:	cvtsi2sd xmm0,rsi
    6153:	pxor   xmm2,xmm2
    6157:	sub    rsp,0x8
    615b:	mov    r8,rbp
    615e:	mov    r9,r13
    6161:	cvtsi2sd xmm2,QWORD PTR [rip+0x24f46]        # 2b0b0 <opt+0x10>
    616a:	push   r14
    616c:	mov    edx,DWORD PTR [rbx]
    616e:	lea    rsi,[rip+0x1a6a3]        # 20818 <_IO_stdin_used+0x2818>
    6175:	mov    edi,0x1
    617a:	mov    eax,0x2
    617f:	divsd  xmm0,xmm2
    6183:	call   5200 <__printf_chk@plt>
    6188:	pop    r11
    618a:	pop    rbp
    618b:	lea    r13,[r15+0x112e8]
    6192:	xor    ebp,ebp
    6194:	cmp    r12,0x2
    6198:	je     6278 <hvm_pf_xen_summary+0x9b8>
    619e:	cmp    r12d,0x8
    61a2:	je     5bb4 <hvm_pf_xen_summary+0x2f4>
    61a8:	add    r12,0x1
    61ac:	add    rbx,0x38
    61b0:	mov    r14d,DWORD PTR [rbx]
    61b3:	test   r14d,r14d
    61b6:	je     618b <hvm_pf_xen_summary+0x8cb>
    61b8:	mov    r13d,DWORD PTR [rip+0x24f19]        # 2b0d8 <opt+0x38>
    61bf:	test   r13d,r13d
    61c2:	jne    6090 <hvm_pf_xen_summary+0x7d0>
    61c8:	lea    rax,[rip+0x25411]        # 2b5e0 <pf_xen_fixup_name>
    61cf:	lea    rsi,[rip+0x17ea1]        # 1e077 <_IO_stdin_used+0x77>
    61d6:	mov    edi,0x1
    61db:	mov    rdx,QWORD PTR [rax+r12*8]
    61df:	xor    eax,eax
    61e1:	call   5200 <__printf_chk@plt>
    61e6:	mov    eax,DWORD PTR [rbx+0x4]
    61e9:	mov    rsi,QWORD PTR [rbx+0x10]
    61ed:	xor    ecx,ecx
    61ef:	test   eax,eax
    61f1:	je     6201 <hvm_pf_xen_summary+0x941>
    61f3:	movsxd rcx,eax
    61f6:	xor    edx,edx
    61f8:	mov    rax,rsi
    61fb:	div    rcx
    61fe:	mov    rcx,rax
    6201:	lea    rdx,[rsi+rsi*4]
    6205:	pxor   xmm1,xmm1
    6209:	pxor   xmm0,xmm0
    620d:	cvtsi2sd xmm0,QWORD PTR [rip+0x28fba]        # 2f1d0 <P+0x30>
    6216:	lea    rdx,[rdx+rdx*4]
    621a:	shl    rdx,0x2
    621e:	cvtsi2sd xmm1,rdx
    6223:	divsd  xmm1,xmm0
    6227:	test   rsi,rsi
    622a:	js     6600 <hvm_pf_xen_summary+0xd40>
    6230:	pxor   xmm0,xmm0
    6234:	cvtsi2sd xmm0,rsi
    6239:	pxor   xmm2,xmm2
    623d:	mov    edx,DWORD PTR [rbx]
    623f:	lea    rsi,[rip+0x1a60a]        # 20850 <_IO_stdin_used+0x2850>
    6246:	xor    ebp,ebp
    6248:	cvtsi2sd xmm2,QWORD PTR [rip+0x24e5f]        # 2b0b0 <opt+0x10>
    6251:	mov    edi,0x1
    6256:	mov    eax,0x2
    625b:	lea    r13,[r15+0x112e8]
    6262:	divsd  xmm0,xmm2
    6266:	call   5200 <__printf_chk@plt>
    626b:	cmp    r12,0x2
    626f:	jne    619e <hvm_pf_xen_summary+0x8de>
    6275:	nop    DWORD PTR [rax]
    6278:	mov    r10d,DWORD PTR [r13+0x0]
    627c:	test   r10d,r10d
    627f:	je     6393 <hvm_pf_xen_summary+0xad3>
    6285:	mov    r9d,DWORD PTR [rip+0x24e4c]        # 2b0d8 <opt+0x38>
    628c:	test   r9d,r9d
    628f:	je     6770 <hvm_pf_xen_summary+0xeb0>
    6295:	mov    ecx,DWORD PTR [r13+0x4]
    6299:	cmp    DWORD PTR [r13+0x8],ecx
    629d:	cmovle ecx,DWORD PTR [r13+0x8]
    62a2:	mov    r14d,ecx
    62a5:	test   ecx,ecx
    62a7:	je     6880 <hvm_pf_xen_summary+0xfc0>
    62ad:	mov    rdi,QWORD PTR [r13+0x18]
    62b1:	mov    esi,ecx
    62b3:	mov    edx,0x32
    62b8:	call   57f0 <percentile.part.6>
    62bd:	mov    rdi,QWORD PTR [r13+0x18]
    62c1:	mov    esi,r14d
    62c4:	mov    edx,0x5
    62c9:	mov    QWORD PTR [rsp+0x28],rax
    62ce:	call   57f0 <percentile.part.6>
    62d3:	mov    rdi,QWORD PTR [r13+0x18]
    62d7:	mov    esi,r14d
    62da:	mov    edx,0x5f
    62df:	mov    QWORD PTR [rsp+0x20],rax
    62e4:	call   57f0 <percentile.part.6>
    62e9:	mov    r14,rax
    62ec:	lea    rsi,[rip+0x17da1]        # 1e094 <_IO_stdin_used+0x94>
    62f3:	mov    edx,ebp
    62f5:	mov    edi,0x1
    62fa:	xor    eax,eax
    62fc:	call   5200 <__printf_chk@plt>
    6301:	mov    eax,DWORD PTR [r13+0x4]
    6305:	mov    rsi,QWORD PTR [r13+0x10]
    6309:	xor    ecx,ecx
    630b:	test   eax,eax
    630d:	je     631d <hvm_pf_xen_summary+0xa5d>
    630f:	movsxd rcx,eax
    6312:	xor    edx,edx
    6314:	mov    rax,rsi
    6317:	div    rcx
    631a:	mov    rcx,rax
    631d:	lea    rax,[rsi+rsi*4]
    6321:	pxor   xmm1,xmm1
    6325:	pxor   xmm0,xmm0
    6329:	cvtsi2sd xmm0,QWORD PTR [rip+0x28e9e]        # 2f1d0 <P+0x30>
    6332:	lea    rdx,[rax+rax*4]
    6336:	shl    rdx,0x2
    633a:	cvtsi2sd xmm1,rdx
    633f:	divsd  xmm1,xmm0
    6343:	test   rsi,rsi
    6346:	js     6860 <hvm_pf_xen_summary+0xfa0>
    634c:	pxor   xmm0,xmm0
    6350:	cvtsi2sd xmm0,rsi
    6355:	pxor   xmm2,xmm2
    6359:	sub    rsp,0x8
    635d:	mov    edi,0x1
    6362:	mov    eax,0x2
    6367:	cvtsi2sd xmm2,QWORD PTR [rip+0x24d40]        # 2b0b0 <opt+0x10>
    6370:	push   r14
    6372:	mov    r9,QWORD PTR [rsp+0x38]
    6377:	lea    rsi,[rip+0x1a49a]        # 20818 <_IO_stdin_used+0x2818>
    637e:	mov    r8,QWORD PTR [rsp+0x30]
    6383:	mov    edx,DWORD PTR [r13+0x0]
    6387:	divsd  xmm0,xmm2
    638b:	call   5200 <__printf_chk@plt>
    6390:	pop    rdi
    6391:	pop    r8
    6393:	add    r13,0x38
    6397:	cmp    ebp,0x1
    639a:	jne    6540 <hvm_pf_xen_summary+0xc80>
    63a0:	mov    esi,DWORD PTR [r15+0x11358]
    63a7:	test   esi,esi
    63a9:	je     61a8 <hvm_pf_xen_summary+0x8e8>
    63af:	mov    ecx,DWORD PTR [rip+0x24d23]        # 2b0d8 <opt+0x38>
    63b5:	test   ecx,ecx
    63b7:	je     689a <hvm_pf_xen_summary+0xfda>
    63bd:	mov    r14d,DWORD PTR [r15+0x1135c]
    63c4:	cmp    DWORD PTR [r15+0x11360],r14d
    63cb:	cmovle r14d,DWORD PTR [r15+0x11360]
    63d3:	test   r14d,r14d
    63d6:	je     699c <hvm_pf_xen_summary+0x10dc>
    63dc:	mov    rdi,QWORD PTR [r15+0x11370]
    63e3:	mov    esi,r14d
    63e6:	mov    edx,0x32
    63eb:	call   57f0 <percentile.part.6>
    63f0:	mov    rdi,QWORD PTR [r15+0x11370]
    63f7:	mov    esi,r14d
    63fa:	mov    edx,0x5
    63ff:	mov    r13,rax
    6402:	call   57f0 <percentile.part.6>
    6407:	mov    rdi,QWORD PTR [r15+0x11370]
    640e:	mov    esi,r14d
    6411:	mov    edx,0x5f
    6416:	mov    rbp,rax
    6419:	call   57f0 <percentile.part.6>
    641e:	mov    r14,rax
    6421:	lea    rsi,[rip+0x17c7b]        # 1e0a3 <_IO_stdin_used+0xa3>
    6428:	mov    edi,0x1
    642d:	xor    eax,eax
    642f:	call   5200 <__printf_chk@plt>
    6434:	mov    eax,DWORD PTR [r15+0x1135c]
    643b:	mov    rsi,QWORD PTR [r15+0x11368]
    6442:	xor    ecx,ecx
    6444:	test   eax,eax
    6446:	je     6456 <hvm_pf_xen_summary+0xb96>
    6448:	movsxd rcx,eax
    644b:	xor    edx,edx
    644d:	mov    rax,rsi
    6450:	div    rcx
    6453:	mov    rcx,rax
    6456:	lea    rax,[rsi+rsi*4]
    645a:	pxor   xmm1,xmm1
    645e:	pxor   xmm0,xmm0
    6462:	cvtsi2sd xmm0,QWORD PTR [rip+0x28d65]        # 2f1d0 <P+0x30>
    646b:	lea    rdx,[rax+rax*4]
    646f:	shl    rdx,0x2
    6473:	cvtsi2sd xmm1,rdx
    6478:	divsd  xmm1,xmm0
    647c:	test   rsi,rsi
    647f:	js     6960 <hvm_pf_xen_summary+0x10a0>
    6485:	pxor   xmm0,xmm0
    6489:	cvtsi2sd xmm0,rsi
    648e:	pxor   xmm2,xmm2
    6492:	sub    rsp,0x8
    6496:	mov    r9,r13
    6499:	mov    r8,rbp
    649c:	cvtsi2sd xmm2,QWORD PTR [rip+0x24c0b]        # 2b0b0 <opt+0x10>
    64a5:	mov    edi,0x1
    64aa:	mov    eax,0x2
    64af:	mov    edx,DWORD PTR [r15+0x11358]
    64b6:	push   r14
    64b8:	lea    rsi,[rip+0x1a359]        # 20818 <_IO_stdin_used+0x2818>
    64bf:	divsd  xmm0,xmm2
    64c3:	call   5200 <__printf_chk@plt>
    64c8:	pop    rax
    64c9:	pop    rdx
    64ca:	jmp    61a8 <hvm_pf_xen_summary+0x8e8>
    64cf:	nop
    64d0:	mov    rax,rsi
    64d3:	and    esi,0x1
    64d6:	pxor   xmm0,xmm0
    64da:	shr    rax,1
    64dd:	or     rax,rsi
    64e0:	cvtsi2sd xmm0,rax
    64e5:	addsd  xmm0,xmm0
    64e9:	jmp    6153 <hvm_pf_xen_summary+0x893>
    64ee:	xchg   ax,ax
    64f0:	xor    r14d,r14d
    64f3:	xor    ebp,ebp
    64f5:	xor    r13d,r13d
    64f8:	jmp    60e2 <hvm_pf_xen_summary+0x822>
    64fd:	nop    DWORD PTR [rax]
    6500:	mov    rax,rsi
    6503:	and    esi,0x1
    6506:	pxor   xmm0,xmm0
    650a:	shr    rax,1
    650d:	or     rax,rsi
    6510:	cvtsi2sd xmm0,rax
    6515:	addsd  xmm0,xmm0
    6519:	jmp    5e1a <hvm_pf_xen_summary+0x55a>
    651e:	xchg   ax,ax
    6520:	mov    rax,rsi
    6523:	and    esi,0x1
    6526:	pxor   xmm0,xmm0
    652a:	shr    rax,1
    652d:	or     rax,rsi
    6530:	cvtsi2sd xmm0,rax
    6535:	addsd  xmm0,xmm0
    6539:	jmp    5f3c <hvm_pf_xen_summary+0x67c>
    653e:	xchg   ax,ax
    6540:	mov    ebp,0x1
    6545:	jmp    6278 <hvm_pf_xen_summary+0x9b8>
    654a:	nop    WORD PTR [rax+rax*1+0x0]
    6550:	xor    r12d,r12d
    6553:	xor    r14d,r14d
    6556:	xor    r15d,r15d
    6559:	jmp    5ed3 <hvm_pf_xen_summary+0x613>
    655e:	xchg   ax,ax
    6560:	mov    rdx,QWORD PTR [r15]
    6563:	lea    rsi,[rip+0x17b0d]        # 1e077 <_IO_stdin_used+0x77>
    656a:	mov    edi,0x1
    656f:	xor    eax,eax
    6571:	call   5200 <__printf_chk@plt>
    6576:	mov    eax,DWORD PTR [r14+0x4]
    657a:	mov    rsi,QWORD PTR [r14+0x10]
    657e:	xor    ecx,ecx
    6580:	test   eax,eax
    6582:	je     6592 <hvm_pf_xen_summary+0xcd2>
    6584:	movsxd rcx,eax
    6587:	xor    edx,edx
    6589:	mov    rax,rsi
    658c:	div    rcx
    658f:	mov    rcx,rax
    6592:	lea    rdx,[rsi+rsi*4]
    6596:	pxor   xmm1,xmm1
    659a:	pxor   xmm0,xmm0
    659e:	cvtsi2sd xmm0,QWORD PTR [rip+0x28c29]        # 2f1d0 <P+0x30>
    65a7:	lea    rdx,[rdx+rdx*4]
    65ab:	shl    rdx,0x2
    65af:	cvtsi2sd xmm1,rdx
    65b4:	divsd  xmm1,xmm0
    65b8:	test   rsi,rsi
    65bb:	js     6840 <hvm_pf_xen_summary+0xf80>
    65c1:	pxor   xmm0,xmm0
    65c5:	cvtsi2sd xmm0,rsi
    65ca:	pxor   xmm2,xmm2
    65ce:	mov    edx,DWORD PTR [r14]
    65d1:	mov    edi,0x1
    65d6:	lea    rsi,[rip+0x1a273]        # 20850 <_IO_stdin_used+0x2850>
    65dd:	cvtsi2sd xmm2,QWORD PTR [rip+0x24aca]        # 2b0b0 <opt+0x10>
    65e6:	mov    eax,0x2
    65eb:	divsd  xmm0,xmm2
    65ef:	call   5200 <__printf_chk@plt>
    65f4:	jmp    5ba3 <hvm_pf_xen_summary+0x2e3>
    65f9:	nop    DWORD PTR [rax+0x0]
    6600:	mov    rax,rsi
    6603:	and    esi,0x1
    6606:	pxor   xmm0,xmm0
    660a:	shr    rax,1
    660d:	or     rax,rsi
    6610:	cvtsi2sd xmm0,rax
    6615:	addsd  xmm0,xmm0
    6619:	jmp    6239 <hvm_pf_xen_summary+0x979>
    661e:	xchg   ax,ax
    6620:	mov    rax,rsi
    6623:	and    esi,0x1
    6626:	pxor   xmm0,xmm0
    662a:	shr    rax,1
    662d:	or     rax,rsi
    6630:	cvtsi2sd xmm0,rax
    6635:	addsd  xmm0,xmm0
    6639:	jmp    5b6a <hvm_pf_xen_summary+0x2aa>
    663e:	xchg   ax,ax
    6640:	mov    rax,rsi
    6643:	and    esi,0x1
    6646:	pxor   xmm0,xmm0
    664a:	shr    rax,1
    664d:	or     rax,rsi
    6650:	cvtsi2sd xmm0,rax
    6655:	addsd  xmm0,xmm0
    6659:	jmp    5a27 <hvm_pf_xen_summary+0x167>
    665e:	xchg   ax,ax
    6660:	lea    rsi,[rip+0x179f7]        # 1e05e <_IO_stdin_used+0x5e>
    6667:	mov    edi,0x1
    666c:	xor    eax,eax
    666e:	call   5200 <__printf_chk@plt>
    6673:	mov    eax,DWORD PTR [r12+0x4]
    6678:	mov    rsi,QWORD PTR [r12+0x10]
    667d:	test   eax,eax
    667f:	je     6759 <hvm_pf_xen_summary+0xe99>
    6685:	movsxd rcx,eax
    6688:	xor    edx,edx
    668a:	mov    rax,rsi
    668d:	div    rcx
    6690:	mov    rcx,rax
    6693:	lea    rdx,[rsi+rsi*4]
    6697:	pxor   xmm1,xmm1
    669b:	pxor   xmm0,xmm0
    669f:	cvtsi2sd xmm0,QWORD PTR [rip+0x28b28]        # 2f1d0 <P+0x30>
    66a8:	lea    rdx,[rdx+rdx*4]
    66ac:	shl    rdx,0x2
    66b0:	cvtsi2sd xmm1,rdx
    66b5:	divsd  xmm1,xmm0
    66b9:	test   rsi,rsi
    66bc:	js     6820 <hvm_pf_xen_summary+0xf60>
    66c2:	pxor   xmm0,xmm0
    66c6:	cvtsi2sd xmm0,rsi
    66cb:	pxor   xmm2,xmm2
    66cf:	mov    edx,DWORD PTR [r12]
    66d3:	mov    edi,0x1
    66d8:	lea    rsi,[rip+0x1a171]        # 20850 <_IO_stdin_used+0x2850>
    66df:	cvtsi2sd xmm2,QWORD PTR [rip+0x249c8]        # 2b0b0 <opt+0x10>
    66e8:	mov    eax,0x2
    66ed:	divsd  xmm0,xmm2
    66f1:	call   5200 <__printf_chk@plt>
    66f6:	jmp    5a61 <hvm_pf_xen_summary+0x1a1>
    66fb:	nop    DWORD PTR [rax+rax*1+0x0]
    6700:	mov    rax,rsi
    6703:	and    esi,0x1
    6706:	pxor   xmm0,xmm0
    670a:	shr    rax,1
    670d:	or     rax,rsi
    6710:	cvtsi2sd xmm0,rax
    6715:	addsd  xmm0,xmm0
    6719:	jmp    6029 <hvm_pf_xen_summary+0x769>
    671e:	xchg   ax,ax
    6720:	xor    r12d,r12d
    6723:	xor    ebp,ebp
    6725:	xor    r13d,r13d
    6728:	jmp    5b00 <hvm_pf_xen_summary+0x240>
    672d:	nop    DWORD PTR [rax]
    6730:	mov    edx,DWORD PTR [rsp+0x8]
    6734:	lea    rsi,[rip+0x1792f]        # 1e06a <_IO_stdin_used+0x6a>
    673b:	mov    edi,0x1
    6740:	xor    eax,eax
    6742:	call   5200 <__printf_chk@plt>
    6747:	mov    eax,DWORD PTR [r12+0x4]
    674c:	mov    rsi,QWORD PTR [r12+0x10]
    6751:	test   eax,eax
    6753:	jne    6685 <hvm_pf_xen_summary+0xdc5>
    6759:	xor    ecx,ecx
    675b:	jmp    6693 <hvm_pf_xen_summary+0xdd3>
    6760:	xor    r15d,r15d
    6763:	xor    ebp,ebp
    6765:	xor    r13d,r13d
    6768:	jmp    59ac <hvm_pf_xen_summary+0xec>
    676d:	nop    DWORD PTR [rax]
    6770:	lea    rsi,[rip+0x1791d]        # 1e094 <_IO_stdin_used+0x94>
    6777:	mov    edx,ebp
    6779:	mov    edi,0x1
    677e:	xor    eax,eax
    6780:	call   5200 <__printf_chk@plt>
    6785:	mov    eax,DWORD PTR [r13+0x4]
    6789:	mov    rsi,QWORD PTR [r13+0x10]
    678d:	xor    ecx,ecx
    678f:	test   eax,eax
    6791:	je     67a1 <hvm_pf_xen_summary+0xee1>
    6793:	movsxd rcx,eax
    6796:	xor    edx,edx
    6798:	mov    rax,rsi
    679b:	div    rcx
    679e:	mov    rcx,rax
    67a1:	lea    rdx,[rsi+rsi*4]
    67a5:	pxor   xmm1,xmm1
    67a9:	pxor   xmm0,xmm0
    67ad:	cvtsi2sd xmm0,QWORD PTR [rip+0x28a1a]        # 2f1d0 <P+0x30>
    67b6:	lea    rdx,[rdx+rdx*4]
    67ba:	shl    rdx,0x2
    67be:	cvtsi2sd xmm1,rdx
    67c3:	divsd  xmm1,xmm0
    67c7:	test   rsi,rsi
    67ca:	js     697e <hvm_pf_xen_summary+0x10be>
    67d0:	pxor   xmm0,xmm0
    67d4:	cvtsi2sd xmm0,rsi
    67d9:	pxor   xmm2,xmm2
    67dd:	mov    edx,DWORD PTR [r13+0x0]
    67e1:	mov    edi,0x1
    67e6:	lea    rsi,[rip+0x1a063]        # 20850 <_IO_stdin_used+0x2850>
    67ed:	cvtsi2sd xmm2,QWORD PTR [rip+0x248ba]        # 2b0b0 <opt+0x10>
    67f6:	mov    eax,0x2
    67fb:	divsd  xmm0,xmm2
    67ff:	call   5200 <__printf_chk@plt>
    6804:	jmp    6393 <hvm_pf_xen_summary+0xad3>
    6809:	nop    DWORD PTR [rax+0x0]
    6810:	add    rsp,0x38
    6814:	pop    rbx
    6815:	pop    rbp
    6816:	pop    r12
    6818:	pop    r13
    681a:	pop    r14
    681c:	pop    r15
    681e:	ret    
    681f:	nop
    6820:	mov    rax,rsi
    6823:	and    esi,0x1
    6826:	pxor   xmm0,xmm0
    682a:	shr    rax,1
    682d:	or     rax,rsi
    6830:	cvtsi2sd xmm0,rax
    6835:	addsd  xmm0,xmm0
    6839:	jmp    66cb <hvm_pf_xen_summary+0xe0b>
    683e:	xchg   ax,ax
    6840:	mov    rax,rsi
    6843:	and    esi,0x1
    6846:	pxor   xmm0,xmm0
    684a:	shr    rax,1
    684d:	or     rax,rsi
    6850:	cvtsi2sd xmm0,rax
    6855:	addsd  xmm0,xmm0
    6859:	jmp    65ca <hvm_pf_xen_summary+0xd0a>
    685e:	xchg   ax,ax
    6860:	mov    rax,rsi
    6863:	and    esi,0x1
    6866:	pxor   xmm0,xmm0
    686a:	shr    rax,1
    686d:	or     rax,rsi
    6870:	cvtsi2sd xmm0,rax
    6875:	addsd  xmm0,xmm0
    6879:	jmp    6355 <hvm_pf_xen_summary+0xa95>
    687e:	xchg   ax,ax
    6880:	mov    QWORD PTR [rsp+0x20],0x0
    6889:	xor    r14d,r14d
    688c:	mov    QWORD PTR [rsp+0x28],0x0
    6895:	jmp    62ec <hvm_pf_xen_summary+0xa2c>
    689a:	lea    rsi,[rip+0x17802]        # 1e0a3 <_IO_stdin_used+0xa3>
    68a1:	mov    edi,0x1
    68a6:	xor    eax,eax
    68a8:	call   5200 <__printf_chk@plt>
    68ad:	mov    eax,DWORD PTR [r15+0x1135c]
    68b4:	mov    rsi,QWORD PTR [r15+0x11368]
    68bb:	xor    ecx,ecx
    68bd:	test   eax,eax
    68bf:	jne    6928 <hvm_pf_xen_summary+0x1068>
    68c1:	lea    rdx,[rsi+rsi*4]
    68c5:	pxor   xmm1,xmm1
    68c9:	pxor   xmm0,xmm0
    68cd:	cvtsi2sd xmm0,QWORD PTR [rip+0x288fa]        # 2f1d0 <P+0x30>
    68d6:	lea    rdx,[rdx+rdx*4]
    68da:	shl    rdx,0x2
    68de:	cvtsi2sd xmm1,rdx
    68e3:	divsd  xmm1,xmm0
    68e7:	test   rsi,rsi
    68ea:	js     6938 <hvm_pf_xen_summary+0x1078>
    68ec:	pxor   xmm0,xmm0
    68f0:	cvtsi2sd xmm0,rsi
    68f5:	pxor   xmm2,xmm2
    68f9:	mov    edi,0x1
    68fe:	mov    eax,0x2
    6903:	mov    edx,DWORD PTR [r15+0x11358]
    690a:	cvtsi2sd xmm2,QWORD PTR [rip+0x2479d]        # 2b0b0 <opt+0x10>
    6913:	lea    rsi,[rip+0x19f36]        # 20850 <_IO_stdin_used+0x2850>
    691a:	divsd  xmm0,xmm2
    691e:	call   5200 <__printf_chk@plt>
    6923:	jmp    61a8 <hvm_pf_xen_summary+0x8e8>
    6928:	movsxd rcx,eax
    692b:	xor    edx,edx
    692d:	mov    rax,rsi
    6930:	div    rcx
    6933:	mov    rcx,rax
    6936:	jmp    68c1 <hvm_pf_xen_summary+0x1001>
    6938:	mov    rax,rsi
    693b:	and    esi,0x1
    693e:	pxor   xmm0,xmm0
    6942:	shr    rax,1
    6945:	or     rax,rsi
    6948:	cvtsi2sd xmm0,rax
    694d:	addsd  xmm0,xmm0
    6951:	jmp    68f5 <hvm_pf_xen_summary+0x1035>
    6953:	xor    r15d,r15d
    6956:	xor    ebp,ebp
    6958:	xor    r13d,r13d
    695b:	jmp    5c30 <hvm_pf_xen_summary+0x370>
    6960:	mov    rax,rsi
    6963:	and    esi,0x1
    6966:	pxor   xmm0,xmm0
    696a:	shr    rax,1
    696d:	or     rax,rsi
    6970:	cvtsi2sd xmm0,rax
    6975:	addsd  xmm0,xmm0
    6979:	jmp    648e <hvm_pf_xen_summary+0xbce>
    697e:	mov    rax,rsi
    6981:	and    esi,0x1
    6984:	pxor   xmm0,xmm0
    6988:	shr    rax,1
    698b:	or     rax,rsi
    698e:	cvtsi2sd xmm0,rax
    6993:	addsd  xmm0,xmm0
    6997:	jmp    67d9 <hvm_pf_xen_summary+0xf19>
    699c:	xor    r14d,r14d
    699f:	xor    ebp,ebp
    69a1:	xor    r13d,r13d
    69a4:	jmp    6421 <hvm_pf_xen_summary+0xb61>
    69a9:	nop    DWORD PTR [rax+0x0]

00000000000069b0 <hvm_mmio_summary>:
    69b0:	push   r15
    69b2:	lea    rax,[rsi*8+0x0]
    69ba:	push   r14
    69bc:	sub    rax,rsi
    69bf:	push   r13
    69c1:	push   r12
    69c3:	push   rbp
    69c4:	push   rbx
    69c5:	lea    rbx,[rdi+rax*8]
    69c9:	sub    rsp,0x8
    69cd:	mov    r8d,DWORD PTR [rbx+0x12a50]
    69d4:	test   r8d,r8d
    69d7:	je     6b20 <hvm_mmio_summary+0x170>
    69dd:	mov    ecx,DWORD PTR [rip+0x246f5]        # 2b0d8 <opt+0x38>
    69e3:	mov    rbp,rsi
    69e6:	mov    r12,rdi
    69e9:	test   ecx,ecx
    69eb:	je     6b48 <hvm_mmio_summary+0x198>
    69f1:	mov    r15d,DWORD PTR [rbx+0x12a54]
    69f8:	cmp    DWORD PTR [rbx+0x12a58],r15d
    69ff:	cmovle r15d,DWORD PTR [rbx+0x12a58]
    6a07:	test   r15d,r15d
    6a0a:	je     6c30 <hvm_mmio_summary+0x280>
    6a10:	mov    rdi,QWORD PTR [rbx+0x12a68]
    6a17:	mov    edx,0x32
    6a1c:	mov    esi,r15d
    6a1f:	call   57f0 <percentile.part.6>
    6a24:	mov    rdi,QWORD PTR [rbx+0x12a68]
    6a2b:	mov    edx,0x5
    6a30:	mov    esi,r15d
    6a33:	mov    r14,rax
    6a36:	call   57f0 <percentile.part.6>
    6a3b:	mov    rdi,QWORD PTR [rbx+0x12a68]
    6a42:	mov    edx,0x5f
    6a47:	mov    esi,r15d
    6a4a:	mov    r13,rax
    6a4d:	call   57f0 <percentile.part.6>
    6a52:	mov    rbx,rax
    6a55:	lea    rsi,[rip+0x17657]        # 1e0b3 <_IO_stdin_used+0xb3>
    6a5c:	mov    edi,0x1
    6a61:	xor    eax,eax
    6a63:	call   5200 <__printf_chk@plt>
    6a68:	lea    rax,[rbp*8+0x0]
    6a70:	xor    ecx,ecx
    6a72:	sub    rax,rbp
    6a75:	lea    rdx,[r12+rax*8]
    6a79:	mov    eax,DWORD PTR [rdx+0x12a54]
    6a7f:	mov    rsi,QWORD PTR [rdx+0x12a60]
    6a86:	test   eax,eax
    6a88:	jne    6b30 <hvm_mmio_summary+0x180>
    6a8e:	lea    rax,[rbp*8+0x0]
    6a96:	pxor   xmm1,xmm1
    6a9a:	pxor   xmm0,xmm0
    6a9e:	cvtsi2sd xmm0,QWORD PTR [rip+0x28729]        # 2f1d0 <P+0x30>
    6aa7:	sub    rax,rbp
    6aaa:	mov    rax,QWORD PTR [r12+rax*8+0x12a60]
    6ab2:	lea    rax,[rax+rax*4]
    6ab6:	lea    rdx,[rax+rax*4]
    6aba:	shl    rdx,0x2
    6abe:	cvtsi2sd xmm1,rdx
    6ac3:	divsd  xmm1,xmm0
    6ac7:	test   rsi,rsi
    6aca:	js     6c10 <hvm_mmio_summary+0x260>
    6ad0:	pxor   xmm0,xmm0
    6ad4:	cvtsi2sd xmm0,rsi
    6ad9:	pxor   xmm2,xmm2
    6add:	sub    rsp,0x8
    6ae1:	mov    r9,r14
    6ae4:	mov    r8,r13
    6ae7:	cvtsi2sd xmm2,QWORD PTR [rip+0x245c0]        # 2b0b0 <opt+0x10>
    6af0:	lea    rdx,[rbp*8+0x0]
    6af8:	push   rbx
    6af9:	mov    edi,0x1
    6afe:	sub    rdx,rbp
    6b01:	lea    rsi,[rip+0x19d10]        # 20818 <_IO_stdin_used+0x2818>
    6b08:	mov    eax,0x2
    6b0d:	mov    edx,DWORD PTR [r12+rdx*8+0x12a50]
    6b15:	divsd  xmm0,xmm2
    6b19:	call   5200 <__printf_chk@plt>
    6b1e:	pop    rax
    6b1f:	pop    rdx
    6b20:	add    rsp,0x8
    6b24:	pop    rbx
    6b25:	pop    rbp
    6b26:	pop    r12
    6b28:	pop    r13
    6b2a:	pop    r14
    6b2c:	pop    r15
    6b2e:	ret    
    6b2f:	nop
    6b30:	movsxd rcx,eax
    6b33:	xor    edx,edx
    6b35:	mov    rax,rsi
    6b38:	div    rcx
    6b3b:	mov    rcx,rax
    6b3e:	jmp    6a8e <hvm_mmio_summary+0xde>
    6b43:	nop    DWORD PTR [rax+rax*1+0x0]
    6b48:	lea    rsi,[rip+0x17564]        # 1e0b3 <_IO_stdin_used+0xb3>
    6b4f:	mov    edi,0x1
    6b54:	xor    eax,eax
    6b56:	call   5200 <__printf_chk@plt>
    6b5b:	mov    eax,DWORD PTR [rbx+0x12a54]
    6b61:	mov    rsi,QWORD PTR [rbx+0x12a60]
    6b68:	xor    ecx,ecx
    6b6a:	test   eax,eax
    6b6c:	je     6b7c <hvm_mmio_summary+0x1cc>
    6b6e:	movsxd rcx,eax
    6b71:	xor    edx,edx
    6b73:	mov    rax,rsi
    6b76:	div    rcx
    6b79:	mov    rcx,rax
    6b7c:	lea    rdx,[rbp*8+0x0]
    6b84:	pxor   xmm1,xmm1
    6b88:	pxor   xmm0,xmm0
    6b8c:	cvtsi2sd xmm0,QWORD PTR [rip+0x2863b]        # 2f1d0 <P+0x30>
    6b95:	sub    rdx,rbp
    6b98:	mov    rdx,QWORD PTR [r12+rdx*8+0x12a60]
    6ba0:	lea    rdx,[rdx+rdx*4]
    6ba4:	lea    rdx,[rdx+rdx*4]
    6ba8:	shl    rdx,0x2
    6bac:	cvtsi2sd xmm1,rdx
    6bb1:	divsd  xmm1,xmm0
    6bb5:	test   rsi,rsi
    6bb8:	js     6c40 <hvm_mmio_summary+0x290>
    6bbe:	pxor   xmm0,xmm0
    6bc2:	cvtsi2sd xmm0,rsi
    6bc7:	pxor   xmm2,xmm2
    6bcb:	mov    edi,0x1
    6bd0:	mov    eax,0x2
    6bd5:	cvtsi2sd xmm2,QWORD PTR [rip+0x244d2]        # 2b0b0 <opt+0x10>
    6bde:	lea    rdx,[rbp*8+0x0]
    6be6:	sub    rdx,rbp
    6be9:	lea    rsi,[rip+0x19c60]        # 20850 <_IO_stdin_used+0x2850>
    6bf0:	mov    edx,DWORD PTR [r12+rdx*8+0x12a50]
    6bf8:	add    rsp,0x8
    6bfc:	pop    rbx
    6bfd:	pop    rbp
    6bfe:	pop    r12
    6c00:	pop    r13
    6c02:	pop    r14
    6c04:	pop    r15
    6c06:	divsd  xmm0,xmm2
    6c0a:	jmp    5200 <__printf_chk@plt>
    6c0f:	nop
    6c10:	mov    rax,rsi
    6c13:	and    esi,0x1
    6c16:	pxor   xmm0,xmm0
    6c1a:	shr    rax,1
    6c1d:	or     rax,rsi
    6c20:	cvtsi2sd xmm0,rax
    6c25:	addsd  xmm0,xmm0
    6c29:	jmp    6ad9 <hvm_mmio_summary+0x129>
    6c2e:	xchg   ax,ax
    6c30:	xor    ebx,ebx
    6c32:	xor    r13d,r13d
    6c35:	xor    r14d,r14d
    6c38:	jmp    6a55 <hvm_mmio_summary+0xa5>
    6c3d:	nop    DWORD PTR [rax]
    6c40:	mov    rax,rsi
    6c43:	and    esi,0x1
    6c46:	pxor   xmm0,xmm0
    6c4a:	shr    rax,1
    6c4d:	or     rax,rsi
    6c50:	cvtsi2sd xmm0,rax
    6c55:	addsd  xmm0,xmm0
    6c59:	jmp    6bc7 <hvm_mmio_summary+0x217>
    6c5e:	xchg   ax,ax

0000000000006c60 <hvm_vmcall_summary>:
    6c60:	push   r15
    6c62:	lea    r15,[rip+0x24a77]        # 2b6e0 <hypercall_name>
    6c69:	push   r14
    6c6b:	push   r13
    6c6d:	push   r12
    6c6f:	push   rbp
    6c70:	lea    rbp,[r15+0x130]
    6c77:	push   rbx
    6c78:	lea    rbx,[rdi+0x11978]
    6c7f:	sub    rsp,0x18
    6c83:	mov    QWORD PTR [rsp+0x8],rdi
    6c88:	jmp    6d92 <hvm_vmcall_summary+0x132>
    6c8d:	nop    DWORD PTR [rax]
    6c90:	mov    ecx,DWORD PTR [rbx+0x4]
    6c93:	cmp    DWORD PTR [rbx+0x8],ecx
    6c96:	cmovle ecx,DWORD PTR [rbx+0x8]
    6c9a:	mov    r13d,ecx
    6c9d:	test   ecx,ecx
    6c9f:	je     6fc0 <hvm_vmcall_summary+0x360>
    6ca5:	mov    rdi,QWORD PTR [rbx+0x18]
    6ca9:	mov    esi,ecx
    6cab:	mov    edx,0x32
    6cb0:	call   57f0 <percentile.part.6>
    6cb5:	mov    rdi,QWORD PTR [rbx+0x18]
    6cb9:	mov    esi,r13d
    6cbc:	mov    edx,0x5
    6cc1:	mov    r14,rax
    6cc4:	call   57f0 <percentile.part.6>
    6cc9:	mov    rdi,QWORD PTR [rbx+0x18]
    6ccd:	mov    esi,r13d
    6cd0:	mov    edx,0x5f
    6cd5:	mov    r12,rax
    6cd8:	call   57f0 <percentile.part.6>
    6cdd:	mov    r13,rax
    6ce0:	mov    rdx,QWORD PTR [r15]
    6ce3:	lea    rsi,[rip+0x173d2]        # 1e0bc <_IO_stdin_used+0xbc>
    6cea:	mov    edi,0x1
    6cef:	xor    eax,eax
    6cf1:	call   5200 <__printf_chk@plt>
    6cf6:	mov    eax,DWORD PTR [rbx+0x4]
    6cf9:	mov    rsi,QWORD PTR [rbx+0x10]
    6cfd:	xor    ecx,ecx
    6cff:	test   eax,eax
    6d01:	je     6d11 <hvm_vmcall_summary+0xb1>
    6d03:	movsxd rcx,eax
    6d06:	xor    edx,edx
    6d08:	mov    rax,rsi
    6d0b:	div    rcx
    6d0e:	mov    rcx,rax
    6d11:	lea    rax,[rsi+rsi*4]
    6d15:	pxor   xmm1,xmm1
    6d19:	pxor   xmm0,xmm0
    6d1d:	cvtsi2sd xmm0,QWORD PTR [rip+0x284aa]        # 2f1d0 <P+0x30>
    6d26:	lea    rdx,[rax+rax*4]
    6d2a:	shl    rdx,0x2
    6d2e:	cvtsi2sd xmm1,rdx
    6d33:	divsd  xmm1,xmm0
    6d37:	test   rsi,rsi
    6d3a:	js     6f98 <hvm_vmcall_summary+0x338>
    6d40:	pxor   xmm0,xmm0
    6d44:	cvtsi2sd xmm0,rsi
    6d49:	pxor   xmm2,xmm2
    6d4d:	sub    rsp,0x8
    6d51:	mov    r8,r12
    6d54:	mov    edi,0x1
    6d59:	cvtsi2sd xmm2,QWORD PTR [rip+0x2434e]        # 2b0b0 <opt+0x10>
    6d62:	push   r13
    6d64:	mov    edx,DWORD PTR [rbx]
    6d66:	mov    r9,r14
    6d69:	lea    rsi,[rip+0x19aa8]        # 20818 <_IO_stdin_used+0x2818>
    6d70:	mov    eax,0x2
    6d75:	divsd  xmm0,xmm2
    6d79:	call   5200 <__printf_chk@plt>
    6d7e:	pop    rdi
    6d7f:	pop    r8
    6d81:	add    r15,0x8
    6d85:	add    rbx,0x38
    6d89:	cmp    rbp,r15
    6d8c:	je     6e50 <hvm_vmcall_summary+0x1f0>
    6d92:	mov    r10d,DWORD PTR [rbx]
    6d95:	test   r10d,r10d
    6d98:	je     6d81 <hvm_vmcall_summary+0x121>
    6d9a:	mov    r9d,DWORD PTR [rip+0x24337]        # 2b0d8 <opt+0x38>
    6da1:	test   r9d,r9d
    6da4:	jne    6c90 <hvm_vmcall_summary+0x30>
    6daa:	mov    rdx,QWORD PTR [r15]
    6dad:	lea    rsi,[rip+0x17308]        # 1e0bc <_IO_stdin_used+0xbc>
    6db4:	mov    edi,0x1
    6db9:	xor    eax,eax
    6dbb:	call   5200 <__printf_chk@plt>
    6dc0:	mov    eax,DWORD PTR [rbx+0x4]
    6dc3:	mov    rsi,QWORD PTR [rbx+0x10]
    6dc7:	xor    ecx,ecx
    6dc9:	test   eax,eax
    6dcb:	je     6ddb <hvm_vmcall_summary+0x17b>
    6dcd:	movsxd rcx,eax
    6dd0:	xor    edx,edx
    6dd2:	mov    rax,rsi
    6dd5:	div    rcx
    6dd8:	mov    rcx,rax
    6ddb:	lea    rdx,[rsi+rsi*4]
    6ddf:	pxor   xmm1,xmm1
    6de3:	pxor   xmm0,xmm0
    6de7:	cvtsi2sd xmm0,QWORD PTR [rip+0x283e0]        # 2f1d0 <P+0x30>
    6df0:	lea    rdx,[rdx+rdx*4]
    6df4:	shl    rdx,0x2
    6df8:	cvtsi2sd xmm1,rdx
    6dfd:	divsd  xmm1,xmm0
    6e01:	test   rsi,rsi
    6e04:	js     6fd0 <hvm_vmcall_summary+0x370>
    6e0a:	pxor   xmm0,xmm0
    6e0e:	cvtsi2sd xmm0,rsi
    6e13:	pxor   xmm2,xmm2
    6e17:	mov    edx,DWORD PTR [rbx]
    6e19:	mov    edi,0x1
    6e1e:	mov    eax,0x2
    6e23:	lea    rsi,[rip+0x19a26]        # 20850 <_IO_stdin_used+0x2850>
    6e2a:	add    r15,0x8
    6e2e:	add    rbx,0x38
    6e32:	cvtsi2sd xmm2,QWORD PTR [rip+0x24275]        # 2b0b0 <opt+0x10>
    6e3b:	divsd  xmm0,xmm2
    6e3f:	call   5200 <__printf_chk@plt>
    6e44:	cmp    rbp,r15
    6e47:	jne    6d92 <hvm_vmcall_summary+0x132>
    6e4d:	nop    DWORD PTR [rax]
    6e50:	mov    r14,QWORD PTR [rsp+0x8]
    6e55:	mov    esi,DWORD PTR [r14+0x121c8]
    6e5c:	test   esi,esi
    6e5e:	je     6f84 <hvm_vmcall_summary+0x324>
    6e64:	mov    ecx,DWORD PTR [rip+0x2426e]        # 2b0d8 <opt+0x38>
    6e6a:	test   ecx,ecx
    6e6c:	je     700d <hvm_vmcall_summary+0x3ad>
    6e72:	mov    r12d,DWORD PTR [r14+0x121cc]
    6e79:	cmp    DWORD PTR [r14+0x121d0],r12d
    6e80:	cmovle r12d,DWORD PTR [r14+0x121d0]
    6e88:	test   r12d,r12d
    6e8b:	je     70d9 <hvm_vmcall_summary+0x479>
    6e91:	mov    rdi,QWORD PTR [r14+0x121e0]
    6e98:	mov    esi,r12d
    6e9b:	mov    edx,0x32
    6ea0:	call   57f0 <percentile.part.6>
    6ea5:	mov    rdi,QWORD PTR [r14+0x121e0]
    6eac:	mov    esi,r12d
    6eaf:	mov    edx,0x5
    6eb4:	mov    rbp,rax
    6eb7:	call   57f0 <percentile.part.6>
    6ebc:	mov    rdi,QWORD PTR [r14+0x121e0]
    6ec3:	mov    esi,r12d
    6ec6:	mov    edx,0x5f
    6ecb:	mov    rbx,rax
    6ece:	call   57f0 <percentile.part.6>
    6ed3:	mov    r12,rax
    6ed6:	mov    edi,0x1
    6edb:	lea    rdx,[rip+0x184fa]        # 1f3dc <_IO_stdin_used+0x13dc>
    6ee2:	lea    rsi,[rip+0x171d3]        # 1e0bc <_IO_stdin_used+0xbc>
    6ee9:	xor    eax,eax
    6eeb:	call   5200 <__printf_chk@plt>
    6ef0:	mov    rdi,QWORD PTR [rsp+0x8]
    6ef5:	mov    eax,DWORD PTR [rdi+0x121cc]
    6efb:	test   eax,eax
    6efd:	jne    6fee <hvm_vmcall_summary+0x38e>
    6f03:	mov    rsi,QWORD PTR [rdi+0x121d8]
    6f0a:	xor    ecx,ecx
    6f0c:	lea    rdx,[rsi+rsi*4]
    6f10:	pxor   xmm1,xmm1
    6f14:	pxor   xmm0,xmm0
    6f18:	cvtsi2sd xmm0,QWORD PTR [rip+0x282af]        # 2f1d0 <P+0x30>
    6f21:	lea    rdx,[rdx+rdx*4]
    6f25:	shl    rdx,0x2
    6f29:	cvtsi2sd xmm1,rdx
    6f2e:	divsd  xmm1,xmm0
    6f32:	test   rsi,rsi
    6f35:	js     70bb <hvm_vmcall_summary+0x45b>
    6f3b:	pxor   xmm0,xmm0
    6f3f:	cvtsi2sd xmm0,rsi
    6f44:	pxor   xmm2,xmm2
    6f48:	mov    rax,QWORD PTR [rsp+0x8]
    6f4d:	sub    rsp,0x8
    6f51:	mov    r9,rbp
    6f54:	mov    r8,rbx
    6f57:	lea    rsi,[rip+0x198ba]        # 20818 <_IO_stdin_used+0x2818>
    6f5e:	mov    edi,0x1
    6f63:	cvtsi2sd xmm2,QWORD PTR [rip+0x24144]        # 2b0b0 <opt+0x10>
    6f6c:	mov    edx,DWORD PTR [rax+0x121c8]
    6f72:	push   r12
    6f74:	mov    eax,0x2
    6f79:	divsd  xmm0,xmm2
    6f7d:	call   5200 <__printf_chk@plt>
    6f82:	pop    rax
    6f83:	pop    rdx
    6f84:	add    rsp,0x18
    6f88:	pop    rbx
    6f89:	pop    rbp
    6f8a:	pop    r12
    6f8c:	pop    r13
    6f8e:	pop    r14
    6f90:	pop    r15
    6f92:	ret    
    6f93:	nop    DWORD PTR [rax+rax*1+0x0]
    6f98:	mov    rdx,rsi
    6f9b:	and    esi,0x1
    6f9e:	pxor   xmm0,xmm0
    6fa2:	shr    rdx,1
    6fa5:	or     rdx,rsi
    6fa8:	cvtsi2sd xmm0,rdx
    6fad:	addsd  xmm0,xmm0
    6fb1:	jmp    6d49 <hvm_vmcall_summary+0xe9>
    6fb6:	nop    WORD PTR cs:[rax+rax*1+0x0]
    6fc0:	xor    r13d,r13d
    6fc3:	xor    r12d,r12d
    6fc6:	xor    r14d,r14d
    6fc9:	jmp    6ce0 <hvm_vmcall_summary+0x80>
    6fce:	xchg   ax,ax
    6fd0:	mov    rax,rsi
    6fd3:	and    esi,0x1
    6fd6:	pxor   xmm0,xmm0
    6fda:	shr    rax,1
    6fdd:	or     rax,rsi
    6fe0:	cvtsi2sd xmm0,rax
    6fe5:	addsd  xmm0,xmm0
    6fe9:	jmp    6e13 <hvm_vmcall_summary+0x1b3>
    6fee:	mov    rdi,QWORD PTR [rsp+0x8]
    6ff3:	movsxd rcx,eax
    6ff6:	xor    edx,edx
    6ff8:	mov    rsi,QWORD PTR [rdi+0x121d8]
    6fff:	mov    rax,rsi
    7002:	div    rcx
    7005:	mov    rcx,rax
    7008:	jmp    6f0c <hvm_vmcall_summary+0x2ac>
    700d:	mov    edi,0x1
    7012:	lea    rdx,[rip+0x183c3]        # 1f3dc <_IO_stdin_used+0x13dc>
    7019:	lea    rsi,[rip+0x1709c]        # 1e0bc <_IO_stdin_used+0xbc>
    7020:	xor    eax,eax
    7022:	call   5200 <__printf_chk@plt>
    7027:	mov    rdi,QWORD PTR [rsp+0x8]
    702c:	mov    eax,DWORD PTR [rdi+0x121cc]
    7032:	test   eax,eax
    7034:	jne    70e5 <hvm_vmcall_summary+0x485>
    703a:	mov    rsi,QWORD PTR [rdi+0x121d8]
    7041:	xor    ecx,ecx
    7043:	lea    rdx,[rsi+rsi*4]
    7047:	pxor   xmm1,xmm1
    704b:	pxor   xmm0,xmm0
    704f:	cvtsi2sd xmm0,QWORD PTR [rip+0x28178]        # 2f1d0 <P+0x30>
    7058:	lea    rdx,[rdx+rdx*4]
    705c:	shl    rdx,0x2
    7060:	cvtsi2sd xmm1,rdx
    7065:	divsd  xmm1,xmm0
    7069:	test   rsi,rsi
    706c:	js     7104 <hvm_vmcall_summary+0x4a4>
    7072:	pxor   xmm0,xmm0
    7076:	cvtsi2sd xmm0,rsi
    707b:	pxor   xmm2,xmm2
    707f:	mov    rax,QWORD PTR [rsp+0x8]
    7084:	mov    edi,0x1
    7089:	lea    rsi,[rip+0x197c0]        # 20850 <_IO_stdin_used+0x2850>
    7090:	cvtsi2sd xmm2,QWORD PTR [rip+0x24017]        # 2b0b0 <opt+0x10>
    7099:	mov    edx,DWORD PTR [rax+0x121c8]
    709f:	add    rsp,0x18
    70a3:	mov    eax,0x2
    70a8:	pop    rbx
    70a9:	pop    rbp
    70aa:	pop    r12
    70ac:	pop    r13
    70ae:	pop    r14
    70b0:	pop    r15
    70b2:	divsd  xmm0,xmm2
    70b6:	jmp    5200 <__printf_chk@plt>
    70bb:	mov    rdx,rsi
    70be:	and    esi,0x1
    70c1:	pxor   xmm0,xmm0
    70c5:	shr    rdx,1
    70c8:	or     rdx,rsi
    70cb:	cvtsi2sd xmm0,rdx
    70d0:	addsd  xmm0,xmm0
    70d4:	jmp    6f44 <hvm_vmcall_summary+0x2e4>
    70d9:	xor    r12d,r12d
    70dc:	xor    ebx,ebx
    70de:	xor    ebp,ebp
    70e0:	jmp    6ed6 <hvm_vmcall_summary+0x276>
    70e5:	mov    rdi,QWORD PTR [rsp+0x8]
    70ea:	movsxd rcx,eax
    70ed:	xor    edx,edx
    70ef:	mov    rsi,QWORD PTR [rdi+0x121d8]
    70f6:	mov    rax,rsi
    70f9:	div    rcx
    70fc:	mov    rcx,rax
    70ff:	jmp    7043 <hvm_vmcall_summary+0x3e3>
    7104:	mov    rdx,rsi
    7107:	and    esi,0x1
    710a:	pxor   xmm0,xmm0
    710e:	shr    rdx,1
    7111:	or     rdx,rsi
    7114:	cvtsi2sd xmm0,rdx
    7119:	addsd  xmm0,xmm0
    711d:	jmp    707b <hvm_vmcall_summary+0x41b>
    7122:	data16 nop WORD PTR cs:[rax+rax*1+0x0]
    712d:	nop    DWORD PTR [rax]

0000000000007130 <hvm_generic_summary>:
    7130:	push   r15
    7132:	push   r14
    7134:	push   r13
    7136:	push   r12
    7138:	push   rbp
    7139:	push   rbx
    713a:	sub    rsp,0x8
    713e:	cmp    rsi,0x25
    7142:	jg     73fb <hvm_generic_summary+0x2cb>
    7148:	lea    rax,[rsi*8+0x0]
    7150:	mov    rbx,rsi
    7153:	mov    r12,rdi
    7156:	sub    rax,rsi
    7159:	lea    rbp,[rdi+rax*8]
    715d:	mov    esi,DWORD PTR [rbp+0x12200]
    7163:	test   esi,esi
    7165:	je     72af <hvm_generic_summary+0x17f>
    716b:	mov    ecx,DWORD PTR [rip+0x23f67]        # 2b0d8 <opt+0x38>
    7171:	test   ecx,ecx
    7173:	je     7300 <hvm_generic_summary+0x1d0>
    7179:	mov    r15d,DWORD PTR [rbp+0x12204]
    7180:	cmp    DWORD PTR [rbp+0x12208],r15d
    7187:	cmovle r15d,DWORD PTR [rbp+0x12208]
    718f:	test   r15d,r15d
    7192:	je     73d0 <hvm_generic_summary+0x2a0>
    7198:	mov    rdi,QWORD PTR [rbp+0x12218]
    719f:	mov    edx,0x32
    71a4:	mov    esi,r15d
    71a7:	call   57f0 <percentile.part.6>
    71ac:	mov    rdi,QWORD PTR [rbp+0x12218]
    71b3:	mov    edx,0x5
    71b8:	mov    esi,r15d
    71bb:	mov    r14,rax
    71be:	call   57f0 <percentile.part.6>
    71c3:	mov    rdi,QWORD PTR [rbp+0x12218]
    71ca:	mov    edx,0x5f
    71cf:	mov    esi,r15d
    71d2:	mov    r13,rax
    71d5:	call   57f0 <percentile.part.6>
    71da:	mov    rbp,rax
    71dd:	lea    rax,[rip+0x2467c]        # 2b860 <hvm_event_handler_name>
    71e4:	lea    rsi,[rip+0x16f04]        # 1e0ef <_IO_stdin_used+0xef>
    71eb:	mov    edi,0x1
    71f0:	mov    rdx,QWORD PTR [rax+rbx*8]
    71f4:	xor    eax,eax
    71f6:	call   5200 <__printf_chk@plt>
    71fb:	lea    rax,[rbx*8+0x0]
    7203:	xor    ecx,ecx
    7205:	sub    rax,rbx
    7208:	lea    rdx,[r12+rax*8]
    720c:	mov    eax,DWORD PTR [rdx+0x12204]
    7212:	mov    rsi,QWORD PTR [rdx+0x12210]
    7219:	test   eax,eax
    721b:	jne    72c0 <hvm_generic_summary+0x190>
    7221:	lea    rax,[rbx*8+0x0]
    7229:	pxor   xmm1,xmm1
    722d:	pxor   xmm0,xmm0
    7231:	cvtsi2sd xmm0,QWORD PTR [rip+0x27f96]        # 2f1d0 <P+0x30>
    723a:	sub    rax,rbx
    723d:	mov    rax,QWORD PTR [r12+rax*8+0x12210]
    7245:	lea    rax,[rax+rax*4]
    7249:	lea    rdx,[rax+rax*4]
    724d:	shl    rdx,0x2
    7251:	cvtsi2sd xmm1,rdx
    7256:	divsd  xmm1,xmm0
    725a:	test   rsi,rsi
    725d:	js     72d8 <hvm_generic_summary+0x1a8>
    725f:	pxor   xmm0,xmm0
    7263:	cvtsi2sd xmm0,rsi
    7268:	pxor   xmm2,xmm2
    726c:	sub    rsp,0x8
    7270:	mov    r9,r14
    7273:	mov    r8,r13
    7276:	cvtsi2sd xmm2,QWORD PTR [rip+0x23e31]        # 2b0b0 <opt+0x10>
    727f:	lea    rdx,[rbx*8+0x0]
    7287:	push   rbp
    7288:	mov    edi,0x1
    728d:	sub    rdx,rbx
    7290:	lea    rsi,[rip+0x19581]        # 20818 <_IO_stdin_used+0x2818>
    7297:	mov    eax,0x2
    729c:	mov    edx,DWORD PTR [r12+rdx*8+0x12200]
    72a4:	divsd  xmm0,xmm2
    72a8:	call   5200 <__printf_chk@plt>
    72ad:	pop    rax
    72ae:	pop    rdx
    72af:	add    rsp,0x8
    72b3:	pop    rbx
    72b4:	pop    rbp
    72b5:	pop    r12
    72b7:	pop    r13
    72b9:	pop    r14
    72bb:	pop    r15
    72bd:	ret    
    72be:	xchg   ax,ax
    72c0:	movsxd rcx,eax
    72c3:	xor    edx,edx
    72c5:	mov    rax,rsi
    72c8:	div    rcx
    72cb:	mov    rcx,rax
    72ce:	jmp    7221 <hvm_generic_summary+0xf1>
    72d3:	nop    DWORD PTR [rax+rax*1+0x0]
    72d8:	mov    rax,rsi
    72db:	and    esi,0x1
    72de:	pxor   xmm0,xmm0
    72e2:	shr    rax,1
    72e5:	or     rax,rsi
    72e8:	cvtsi2sd xmm0,rax
    72ed:	addsd  xmm0,xmm0
    72f1:	jmp    7268 <hvm_generic_summary+0x138>
    72f6:	nop    WORD PTR cs:[rax+rax*1+0x0]
    7300:	lea    rax,[rip+0x24559]        # 2b860 <hvm_event_handler_name>
    7307:	lea    rsi,[rip+0x16de1]        # 1e0ef <_IO_stdin_used+0xef>
    730e:	mov    edi,0x1
    7313:	mov    rdx,QWORD PTR [rax+rbx*8]
    7317:	xor    eax,eax
    7319:	call   5200 <__printf_chk@plt>
    731e:	mov    eax,DWORD PTR [rbp+0x12204]
    7324:	mov    rsi,QWORD PTR [rbp+0x12210]
    732b:	xor    ecx,ecx
    732d:	test   eax,eax
    732f:	je     733f <hvm_generic_summary+0x20f>
    7331:	movsxd rcx,eax
    7334:	xor    edx,edx
    7336:	mov    rax,rsi
    7339:	div    rcx
    733c:	mov    rcx,rax
    733f:	lea    rdx,[rbx*8+0x0]
    7347:	pxor   xmm1,xmm1
    734b:	pxor   xmm0,xmm0
    734f:	cvtsi2sd xmm0,QWORD PTR [rip+0x27e78]        # 2f1d0 <P+0x30>
    7358:	sub    rdx,rbx
    735b:	mov    rdx,QWORD PTR [r12+rdx*8+0x12210]
    7363:	lea    rdx,[rdx+rdx*4]
    7367:	lea    rdx,[rdx+rdx*4]
    736b:	shl    rdx,0x2
    736f:	cvtsi2sd xmm1,rdx
    7374:	divsd  xmm1,xmm0
    7378:	test   rsi,rsi
    737b:	js     73e0 <hvm_generic_summary+0x2b0>
    737d:	pxor   xmm0,xmm0
    7381:	cvtsi2sd xmm0,rsi
    7386:	pxor   xmm2,xmm2
    738a:	mov    edi,0x1
    738f:	mov    eax,0x2
    7394:	cvtsi2sd xmm2,QWORD PTR [rip+0x23d13]        # 2b0b0 <opt+0x10>
    739d:	lea    rdx,[rbx*8+0x0]
    73a5:	sub    rdx,rbx
    73a8:	lea    rsi,[rip+0x194a1]        # 20850 <_IO_stdin_used+0x2850>
    73af:	mov    edx,DWORD PTR [r12+rdx*8+0x12200]
    73b7:	add    rsp,0x8
    73bb:	pop    rbx
    73bc:	pop    rbp
    73bd:	pop    r12
    73bf:	pop    r13
    73c1:	pop    r14
    73c3:	pop    r15
    73c5:	divsd  xmm0,xmm2
    73c9:	jmp    5200 <__printf_chk@plt>
    73ce:	xchg   ax,ax
    73d0:	xor    ebp,ebp
    73d2:	xor    r13d,r13d
    73d5:	xor    r14d,r14d
    73d8:	jmp    71dd <hvm_generic_summary+0xad>
    73dd:	nop    DWORD PTR [rax]
    73e0:	mov    rax,rsi
    73e3:	and    esi,0x1
    73e6:	pxor   xmm0,xmm0
    73ea:	shr    rax,1
    73ed:	or     rax,rsi
    73f0:	cvtsi2sd xmm0,rax
    73f5:	addsd  xmm0,xmm0
    73f9:	jmp    7386 <hvm_generic_summary+0x256>
    73fb:	lea    rcx,[rip+0x1d21e]        # 24620 <__PRETTY_FUNCTION__.6800>
    7402:	mov    edx,0x11f7
    7407:	lea    rsi,[rip+0x16cba]        # 1e0c8 <_IO_stdin_used+0xc8>
    740e:	lea    rdi,[rip+0x16cbe]        # 1e0d3 <_IO_stdin_used+0xd3>
    7415:	call   5110 <__assert_fail@plt>
    741a:	nop    WORD PTR [rax+rax*1+0x0]

0000000000007420 <hvm_vlapic_eoi_handler.part.12>:
    7420:	mov    rax,QWORD PTR [rdi+0x10]
    7424:	lea    rsi,[rip+0x1944d]        # 20878 <_IO_stdin_used+0x2878>
    742b:	mov    edi,0x1
    7430:	mov    rdx,QWORD PTR [rax+0x8]
    7434:	mov    ecx,DWORD PTR [rax]
    7436:	xor    eax,eax
    7438:	mov    edx,DWORD PTR [rdx+0x8]
    743b:	jmp    5200 <__printf_chk@plt>

0000000000007440 <hvm_io_address_summary.part.14>:
    7440:	push   r13
    7442:	push   r12
    7444:	push   rbp
    7445:	push   rbx
    7446:	mov    rbx,rdi
    7449:	mov    rdi,rsi
    744c:	sub    rsp,0x8
    7450:	call   5090 <puts@plt>
    7455:	test   rbx,rbx
    7458:	jne    7698 <hvm_io_address_summary.part.14+0x258>
    745e:	jmp    7870 <hvm_io_address_summary.part.14+0x430>
    7463:	nop    DWORD PTR [rax+rax*1+0x0]
    7468:	test   eax,eax
    746a:	je     7577 <hvm_io_address_summary.part.14+0x137>
    7470:	mov    r13d,DWORD PTR [rip+0x23c61]        # 2b0d8 <opt+0x38>
    7477:	test   r13d,r13d
    747a:	je     7880 <hvm_io_address_summary.part.14+0x440>
    7480:	mov    r13d,DWORD PTR [rbx+0x14]
    7484:	cmp    DWORD PTR [rbx+0x18],r13d
    7488:	cmovle r13d,DWORD PTR [rbx+0x18]
    748d:	test   r13d,r13d
    7490:	je     7b70 <hvm_io_address_summary.part.14+0x730>
    7496:	mov    rdi,QWORD PTR [rbx+0x28]
    749a:	mov    esi,r13d
    749d:	mov    edx,0x32
    74a2:	call   57f0 <percentile.part.6>
    74a7:	mov    rdi,QWORD PTR [rbx+0x28]
    74ab:	mov    esi,r13d
    74ae:	mov    edx,0x5
    74b3:	mov    r12,rax
    74b6:	call   57f0 <percentile.part.6>
    74bb:	mov    rdi,QWORD PTR [rbx+0x28]
    74bf:	mov    esi,r13d
    74c2:	mov    edx,0x5f
    74c7:	mov    rbp,rax
    74ca:	call   57f0 <percentile.part.6>
    74cf:	mov    ecx,DWORD PTR [rbx+0xc]
    74d2:	mov    r13,rax
    74d5:	mov    edx,DWORD PTR [rbx+0x8]
    74d8:	lea    rsi,[rip+0x16c17]        # 1e0f6 <_IO_stdin_used+0xf6>
    74df:	mov    edi,0x1
    74e4:	xor    eax,eax
    74e6:	call   5200 <__printf_chk@plt>
    74eb:	mov    eax,DWORD PTR [rbx+0x14]
    74ee:	mov    rsi,QWORD PTR [rbx+0x20]
    74f2:	xor    ecx,ecx
    74f4:	test   eax,eax
    74f6:	je     7506 <hvm_io_address_summary.part.14+0xc6>
    74f8:	movsxd rcx,eax
    74fb:	xor    edx,edx
    74fd:	mov    rax,rsi
    7500:	div    rcx
    7503:	mov    rcx,rax
    7506:	lea    rdx,[rsi+rsi*4]
    750a:	pxor   xmm1,xmm1
    750e:	pxor   xmm0,xmm0
    7512:	cvtsi2sd xmm0,QWORD PTR [rip+0x27cb5]        # 2f1d0 <P+0x30>
    751b:	lea    rdx,[rdx+rdx*4]
    751f:	shl    rdx,0x2
    7523:	cvtsi2sd xmm1,rdx
    7528:	divsd  xmm1,xmm0
    752c:	test   rsi,rsi
    752f:	js     7a70 <hvm_io_address_summary.part.14+0x630>
    7535:	pxor   xmm0,xmm0
    7539:	cvtsi2sd xmm0,rsi
    753e:	pxor   xmm2,xmm2
    7542:	sub    rsp,0x8
    7546:	mov    edx,DWORD PTR [rbx+0x10]
    7549:	mov    r9,r12
    754c:	push   r13
    754e:	mov    r8,rbp
    7551:	mov    edi,0x1
    7556:	mov    eax,0x2
    755b:	cvtsi2sd xmm2,QWORD PTR [rip+0x23b4c]        # 2b0b0 <opt+0x10>
    7564:	lea    rsi,[rip+0x192ad]        # 20818 <_IO_stdin_used+0x2818>
    756b:	divsd  xmm0,xmm2
    756f:	call   5200 <__printf_chk@plt>
    7574:	pop    rbp
    7575:	pop    r12
    7577:	mov    r11d,DWORD PTR [rbx+0x48]
    757b:	test   r11d,r11d
    757e:	je     768c <hvm_io_address_summary.part.14+0x24c>
    7584:	mov    r10d,DWORD PTR [rip+0x23b4d]        # 2b0d8 <opt+0x38>
    758b:	test   r10d,r10d
    758e:	je     79a0 <hvm_io_address_summary.part.14+0x560>
    7594:	mov    r13d,DWORD PTR [rbx+0x4c]
    7598:	cmp    DWORD PTR [rbx+0x50],r13d
    759c:	cmovle r13d,DWORD PTR [rbx+0x50]
    75a1:	test   r13d,r13d
    75a4:	je     7b60 <hvm_io_address_summary.part.14+0x720>
    75aa:	mov    rdi,QWORD PTR [rbx+0x60]
    75ae:	mov    esi,r13d
    75b1:	mov    edx,0x32
    75b6:	call   57f0 <percentile.part.6>
    75bb:	mov    rdi,QWORD PTR [rbx+0x60]
    75bf:	mov    esi,r13d
    75c2:	mov    edx,0x5
    75c7:	mov    r12,rax
    75ca:	call   57f0 <percentile.part.6>
    75cf:	mov    rdi,QWORD PTR [rbx+0x60]
    75d3:	mov    esi,r13d
    75d6:	mov    edx,0x5f
    75db:	mov    rbp,rax
    75de:	call   57f0 <percentile.part.6>
    75e3:	mov    r13,rax
    75e6:	mov    ecx,DWORD PTR [rbx+0xc]
    75e9:	mov    edx,DWORD PTR [rbx+0x8]
    75ec:	lea    rsi,[rip+0x16b10]        # 1e103 <_IO_stdin_used+0x103>
    75f3:	xor    eax,eax
    75f5:	mov    edi,0x1
    75fa:	call   5200 <__printf_chk@plt>
    75ff:	mov    eax,DWORD PTR [rbx+0x4c]
    7602:	mov    rsi,QWORD PTR [rbx+0x58]
    7606:	test   eax,eax
    7608:	je     7842 <hvm_io_address_summary.part.14+0x402>
    760e:	movsxd rcx,eax
    7611:	xor    edx,edx
    7613:	mov    rax,rsi
    7616:	div    rcx
    7619:	mov    rcx,rax
    761c:	lea    rdx,[rsi+rsi*4]
    7620:	pxor   xmm1,xmm1
    7624:	pxor   xmm0,xmm0
    7628:	cvtsi2sd xmm0,QWORD PTR [rip+0x27b9f]        # 2f1d0 <P+0x30>
    7631:	lea    rdx,[rdx+rdx*4]
    7635:	shl    rdx,0x2
    7639:	cvtsi2sd xmm1,rdx
    763e:	divsd  xmm1,xmm0
    7642:	test   rsi,rsi
    7645:	js     7850 <hvm_io_address_summary.part.14+0x410>
    764b:	pxor   xmm0,xmm0
    764f:	cvtsi2sd xmm0,rsi
    7654:	pxor   xmm2,xmm2
    7658:	sub    rsp,0x8
    765c:	mov    edx,DWORD PTR [rbx+0x48]
    765f:	mov    r9,r12
    7662:	push   r13
    7664:	mov    r8,rbp
    7667:	mov    edi,0x1
    766c:	mov    eax,0x2
    7671:	cvtsi2sd xmm2,QWORD PTR [rip+0x23a36]        # 2b0b0 <opt+0x10>
    767a:	lea    rsi,[rip+0x19197]        # 20818 <_IO_stdin_used+0x2818>
    7681:	divsd  xmm0,xmm2
    7685:	call   5200 <__printf_chk@plt>
    768a:	pop    rax
    768b:	pop    rdx
    768c:	mov    rbx,QWORD PTR [rbx]
    768f:	test   rbx,rbx
    7692:	je     7870 <hvm_io_address_summary.part.14+0x430>
    7698:	mov    ecx,DWORD PTR [rbx+0xc]
    769b:	mov    eax,DWORD PTR [rbx+0x10]
    769e:	test   ecx,ecx
    76a0:	jne    7468 <hvm_io_address_summary.part.14+0x28>
    76a6:	test   eax,eax
    76a8:	je     77b2 <hvm_io_address_summary.part.14+0x372>
    76ae:	mov    r9d,DWORD PTR [rip+0x23a23]        # 2b0d8 <opt+0x38>
    76b5:	test   r9d,r9d
    76b8:	je     7910 <hvm_io_address_summary.part.14+0x4d0>
    76be:	mov    r13d,DWORD PTR [rbx+0x14]
    76c2:	cmp    DWORD PTR [rbx+0x18],r13d
    76c6:	cmovle r13d,DWORD PTR [rbx+0x18]
    76cb:	test   r13d,r13d
    76ce:	je     7b50 <hvm_io_address_summary.part.14+0x710>
    76d4:	mov    rdi,QWORD PTR [rbx+0x28]
    76d8:	mov    esi,r13d
    76db:	mov    edx,0x32
    76e0:	call   57f0 <percentile.part.6>
    76e5:	mov    rdi,QWORD PTR [rbx+0x28]
    76e9:	mov    esi,r13d
    76ec:	mov    edx,0x5
    76f1:	mov    r12,rax
    76f4:	call   57f0 <percentile.part.6>
    76f9:	mov    rdi,QWORD PTR [rbx+0x28]
    76fd:	mov    esi,r13d
    7700:	mov    edx,0x5f
    7705:	mov    rbp,rax
    7708:	call   57f0 <percentile.part.6>
    770d:	mov    r13,rax
    7710:	mov    edx,DWORD PTR [rbx+0x8]
    7713:	lea    rsi,[rip+0x169e0]        # 1e0fa <_IO_stdin_used+0xfa>
    771a:	mov    edi,0x1
    771f:	xor    eax,eax
    7721:	call   5200 <__printf_chk@plt>
    7726:	mov    eax,DWORD PTR [rbx+0x14]
    7729:	mov    rsi,QWORD PTR [rbx+0x20]
    772d:	xor    ecx,ecx
    772f:	test   eax,eax
    7731:	je     7741 <hvm_io_address_summary.part.14+0x301>
    7733:	movsxd rcx,eax
    7736:	xor    edx,edx
    7738:	mov    rax,rsi
    773b:	div    rcx
    773e:	mov    rcx,rax
    7741:	lea    rdx,[rsi+rsi*4]
    7745:	pxor   xmm1,xmm1
    7749:	pxor   xmm0,xmm0
    774d:	cvtsi2sd xmm0,QWORD PTR [rip+0x27a7a]        # 2f1d0 <P+0x30>
    7756:	lea    rdx,[rdx+rdx*4]
    775a:	shl    rdx,0x2
    775e:	cvtsi2sd xmm1,rdx
    7763:	divsd  xmm1,xmm0
    7767:	test   rsi,rsi
    776a:	js     7a90 <hvm_io_address_summary.part.14+0x650>
    7770:	pxor   xmm0,xmm0
    7774:	cvtsi2sd xmm0,rsi
    7779:	pxor   xmm2,xmm2
    777d:	sub    rsp,0x8
    7781:	mov    edx,DWORD PTR [rbx+0x10]
    7784:	mov    r8,rbp
    7787:	push   r13
    7789:	mov    edi,0x1
    778e:	mov    r9,r12
    7791:	mov    eax,0x2
    7796:	cvtsi2sd xmm2,QWORD PTR [rip+0x23911]        # 2b0b0 <opt+0x10>
    779f:	lea    rsi,[rip+0x19072]        # 20818 <_IO_stdin_used+0x2818>
    77a6:	divsd  xmm0,xmm2
    77aa:	call   5200 <__printf_chk@plt>
    77af:	pop    rdi
    77b0:	pop    r8
    77b2:	mov    esi,DWORD PTR [rbx+0x48]
    77b5:	test   esi,esi
    77b7:	je     768c <hvm_io_address_summary.part.14+0x24c>
    77bd:	mov    ecx,DWORD PTR [rip+0x23915]        # 2b0d8 <opt+0x38>
    77c3:	test   ecx,ecx
    77c5:	je     7a38 <hvm_io_address_summary.part.14+0x5f8>
    77cb:	mov    r13d,DWORD PTR [rbx+0x4c]
    77cf:	cmp    DWORD PTR [rbx+0x50],r13d
    77d3:	cmovle r13d,DWORD PTR [rbx+0x50]
    77d8:	test   r13d,r13d
    77db:	je     7b40 <hvm_io_address_summary.part.14+0x700>
    77e1:	mov    rdi,QWORD PTR [rbx+0x60]
    77e5:	mov    esi,r13d
    77e8:	mov    edx,0x32
    77ed:	call   57f0 <percentile.part.6>
    77f2:	mov    rdi,QWORD PTR [rbx+0x60]
    77f6:	mov    esi,r13d
    77f9:	mov    edx,0x5
    77fe:	mov    r12,rax
    7801:	call   57f0 <percentile.part.6>
    7806:	mov    rdi,QWORD PTR [rbx+0x60]
    780a:	mov    esi,r13d
    780d:	mov    edx,0x5f
    7812:	mov    rbp,rax
    7815:	call   57f0 <percentile.part.6>
    781a:	mov    r13,rax
    781d:	mov    edx,DWORD PTR [rbx+0x8]
    7820:	lea    rsi,[rip+0x168e0]        # 1e107 <_IO_stdin_used+0x107>
    7827:	mov    edi,0x1
    782c:	xor    eax,eax
    782e:	call   5200 <__printf_chk@plt>
    7833:	mov    eax,DWORD PTR [rbx+0x4c]
    7836:	mov    rsi,QWORD PTR [rbx+0x58]
    783a:	test   eax,eax
    783c:	jne    760e <hvm_io_address_summary.part.14+0x1ce>
    7842:	xor    ecx,ecx
    7844:	jmp    761c <hvm_io_address_summary.part.14+0x1dc>
    7849:	nop    DWORD PTR [rax+0x0]
    7850:	mov    rax,rsi
    7853:	and    esi,0x1
    7856:	pxor   xmm0,xmm0
    785a:	shr    rax,1
    785d:	or     rax,rsi
    7860:	cvtsi2sd xmm0,rax
    7865:	addsd  xmm0,xmm0
    7869:	jmp    7654 <hvm_io_address_summary.part.14+0x214>
    786e:	xchg   ax,ax
    7870:	add    rsp,0x8
    7874:	pop    rbx
    7875:	pop    rbp
    7876:	pop    r12
    7878:	pop    r13
    787a:	ret    
    787b:	nop    DWORD PTR [rax+rax*1+0x0]
    7880:	mov    edx,DWORD PTR [rbx+0x8]
    7883:	lea    rsi,[rip+0x1686c]        # 1e0f6 <_IO_stdin_used+0xf6>
    788a:	mov    edi,0x1
    788f:	xor    eax,eax
    7891:	call   5200 <__printf_chk@plt>
    7896:	mov    eax,DWORD PTR [rbx+0x14]
    7899:	mov    rsi,QWORD PTR [rbx+0x20]
    789d:	xor    ecx,ecx
    789f:	test   eax,eax
    78a1:	jne    7ae8 <hvm_io_address_summary.part.14+0x6a8>
    78a7:	lea    rdx,[rsi+rsi*4]
    78ab:	pxor   xmm1,xmm1
    78af:	pxor   xmm0,xmm0
    78b3:	cvtsi2sd xmm0,QWORD PTR [rip+0x27914]        # 2f1d0 <P+0x30>
    78bc:	lea    rdx,[rdx+rdx*4]
    78c0:	shl    rdx,0x2
    78c4:	cvtsi2sd xmm1,rdx
    78c9:	divsd  xmm1,xmm0
    78cd:	test   rsi,rsi
    78d0:	js     7b20 <hvm_io_address_summary.part.14+0x6e0>
    78d6:	pxor   xmm0,xmm0
    78da:	cvtsi2sd xmm0,rsi
    78df:	pxor   xmm2,xmm2
    78e3:	mov    edx,DWORD PTR [rbx+0x10]
    78e6:	mov    edi,0x1
    78eb:	lea    rsi,[rip+0x18f5e]        # 20850 <_IO_stdin_used+0x2850>
    78f2:	cvtsi2sd xmm2,QWORD PTR [rip+0x237b5]        # 2b0b0 <opt+0x10>
    78fb:	mov    eax,0x2
    7900:	divsd  xmm0,xmm2
    7904:	call   5200 <__printf_chk@plt>
    7909:	jmp    7577 <hvm_io_address_summary.part.14+0x137>
    790e:	xchg   ax,ax
    7910:	mov    edx,DWORD PTR [rbx+0x8]
    7913:	lea    rsi,[rip+0x167e0]        # 1e0fa <_IO_stdin_used+0xfa>
    791a:	mov    edi,0x1
    791f:	xor    eax,eax
    7921:	call   5200 <__printf_chk@plt>
    7926:	mov    eax,DWORD PTR [rbx+0x14]
    7929:	mov    rsi,QWORD PTR [rbx+0x20]
    792d:	xor    ecx,ecx
    792f:	test   eax,eax
    7931:	jne    7ad0 <hvm_io_address_summary.part.14+0x690>
    7937:	lea    rdx,[rsi+rsi*4]
    793b:	pxor   xmm1,xmm1
    793f:	pxor   xmm0,xmm0
    7943:	cvtsi2sd xmm0,QWORD PTR [rip+0x27884]        # 2f1d0 <P+0x30>
    794c:	lea    rdx,[rdx+rdx*4]
    7950:	shl    rdx,0x2
    7954:	cvtsi2sd xmm1,rdx
    7959:	divsd  xmm1,xmm0
    795d:	test   rsi,rsi
    7960:	js     7b00 <hvm_io_address_summary.part.14+0x6c0>
    7966:	pxor   xmm0,xmm0
    796a:	cvtsi2sd xmm0,rsi
    796f:	pxor   xmm2,xmm2
    7973:	mov    edx,DWORD PTR [rbx+0x10]
    7976:	mov    edi,0x1
    797b:	lea    rsi,[rip+0x18ece]        # 20850 <_IO_stdin_used+0x2850>
    7982:	cvtsi2sd xmm2,QWORD PTR [rip+0x23725]        # 2b0b0 <opt+0x10>
    798b:	mov    eax,0x2
    7990:	divsd  xmm0,xmm2
    7994:	call   5200 <__printf_chk@plt>
    7999:	jmp    77b2 <hvm_io_address_summary.part.14+0x372>
    799e:	xchg   ax,ax
    79a0:	mov    ecx,DWORD PTR [rbx+0xc]
    79a3:	mov    edx,DWORD PTR [rbx+0x8]
    79a6:	lea    rsi,[rip+0x16756]        # 1e103 <_IO_stdin_used+0x103>
    79ad:	xor    eax,eax
    79af:	mov    edi,0x1
    79b4:	call   5200 <__printf_chk@plt>
    79b9:	mov    eax,DWORD PTR [rbx+0x4c]
    79bc:	mov    rsi,QWORD PTR [rbx+0x58]
    79c0:	test   eax,eax
    79c2:	jne    7a5d <hvm_io_address_summary.part.14+0x61d>
    79c8:	xor    ecx,ecx
    79ca:	lea    rdx,[rsi+rsi*4]
    79ce:	pxor   xmm1,xmm1
    79d2:	pxor   xmm0,xmm0
    79d6:	cvtsi2sd xmm0,QWORD PTR [rip+0x277f1]        # 2f1d0 <P+0x30>
    79df:	lea    rdx,[rdx+rdx*4]
    79e3:	shl    rdx,0x2
    79e7:	cvtsi2sd xmm1,rdx
    79ec:	divsd  xmm1,xmm0
    79f0:	test   rsi,rsi
    79f3:	js     7ab0 <hvm_io_address_summary.part.14+0x670>
    79f9:	pxor   xmm0,xmm0
    79fd:	cvtsi2sd xmm0,rsi
    7a02:	pxor   xmm2,xmm2
    7a06:	mov    edx,DWORD PTR [rbx+0x48]
    7a09:	mov    edi,0x1
    7a0e:	lea    rsi,[rip+0x18e3b]        # 20850 <_IO_stdin_used+0x2850>
    7a15:	cvtsi2sd xmm2,QWORD PTR [rip+0x23692]        # 2b0b0 <opt+0x10>
    7a1e:	mov    eax,0x2
    7a23:	divsd  xmm0,xmm2
    7a27:	call   5200 <__printf_chk@plt>
    7a2c:	jmp    768c <hvm_io_address_summary.part.14+0x24c>
    7a31:	nop    DWORD PTR [rax+0x0]
    7a38:	mov    edx,DWORD PTR [rbx+0x8]
    7a3b:	lea    rsi,[rip+0x166c5]        # 1e107 <_IO_stdin_used+0x107>
    7a42:	mov    edi,0x1
    7a47:	xor    eax,eax
    7a49:	call   5200 <__printf_chk@plt>
    7a4e:	mov    eax,DWORD PTR [rbx+0x4c]
    7a51:	mov    rsi,QWORD PTR [rbx+0x58]
    7a55:	test   eax,eax
    7a57:	je     79c8 <hvm_io_address_summary.part.14+0x588>
    7a5d:	movsxd rcx,eax
    7a60:	xor    edx,edx
    7a62:	mov    rax,rsi
    7a65:	div    rcx
    7a68:	mov    rcx,rax
    7a6b:	jmp    79ca <hvm_io_address_summary.part.14+0x58a>
    7a70:	mov    rax,rsi
    7a73:	and    esi,0x1
    7a76:	pxor   xmm0,xmm0
    7a7a:	shr    rax,1
    7a7d:	or     rax,rsi
    7a80:	cvtsi2sd xmm0,rax
    7a85:	addsd  xmm0,xmm0
    7a89:	jmp    753e <hvm_io_address_summary.part.14+0xfe>
    7a8e:	xchg   ax,ax
    7a90:	mov    rax,rsi
    7a93:	and    esi,0x1
    7a96:	pxor   xmm0,xmm0
    7a9a:	shr    rax,1
    7a9d:	or     rax,rsi
    7aa0:	cvtsi2sd xmm0,rax
    7aa5:	addsd  xmm0,xmm0
    7aa9:	jmp    7779 <hvm_io_address_summary.part.14+0x339>
    7aae:	xchg   ax,ax
    7ab0:	mov    rax,rsi
    7ab3:	and    esi,0x1
    7ab6:	pxor   xmm0,xmm0
    7aba:	shr    rax,1
    7abd:	or     rax,rsi
    7ac0:	cvtsi2sd xmm0,rax
    7ac5:	addsd  xmm0,xmm0
    7ac9:	jmp    7a02 <hvm_io_address_summary.part.14+0x5c2>
    7ace:	xchg   ax,ax
    7ad0:	movsxd rcx,eax
    7ad3:	xor    edx,edx
    7ad5:	mov    rax,rsi
    7ad8:	div    rcx
    7adb:	mov    rcx,rax
    7ade:	jmp    7937 <hvm_io_address_summary.part.14+0x4f7>
    7ae3:	nop    DWORD PTR [rax+rax*1+0x0]
    7ae8:	movsxd rcx,eax
    7aeb:	xor    edx,edx
    7aed:	mov    rax,rsi
    7af0:	div    rcx
    7af3:	mov    rcx,rax
    7af6:	jmp    78a7 <hvm_io_address_summary.part.14+0x467>
    7afb:	nop    DWORD PTR [rax+rax*1+0x0]
    7b00:	mov    rax,rsi
    7b03:	and    esi,0x1
    7b06:	pxor   xmm0,xmm0
    7b0a:	shr    rax,1
    7b0d:	or     rax,rsi
    7b10:	cvtsi2sd xmm0,rax
    7b15:	addsd  xmm0,xmm0
    7b19:	jmp    796f <hvm_io_address_summary.part.14+0x52f>
    7b1e:	xchg   ax,ax
    7b20:	mov    rax,rsi
    7b23:	and    esi,0x1
    7b26:	pxor   xmm0,xmm0
    7b2a:	shr    rax,1
    7b2d:	or     rax,rsi
    7b30:	cvtsi2sd xmm0,rax
    7b35:	addsd  xmm0,xmm0
    7b39:	jmp    78df <hvm_io_address_summary.part.14+0x49f>
    7b3e:	xchg   ax,ax
    7b40:	xor    r13d,r13d
    7b43:	xor    ebp,ebp
    7b45:	xor    r12d,r12d
    7b48:	jmp    781d <hvm_io_address_summary.part.14+0x3dd>
    7b4d:	nop    DWORD PTR [rax]
    7b50:	xor    r13d,r13d
    7b53:	xor    ebp,ebp
    7b55:	xor    r12d,r12d
    7b58:	jmp    7710 <hvm_io_address_summary.part.14+0x2d0>
    7b5d:	nop    DWORD PTR [rax]
    7b60:	xor    r13d,r13d
    7b63:	xor    ebp,ebp
    7b65:	xor    r12d,r12d
    7b68:	jmp    75e6 <hvm_io_address_summary.part.14+0x1a6>
    7b6d:	nop    DWORD PTR [rax]
    7b70:	xor    r13d,r13d
    7b73:	xor    ebp,ebp
    7b75:	xor    r12d,r12d
    7b78:	jmp    74d5 <hvm_io_address_summary.part.14+0x95>
    7b7d:	nop    DWORD PTR [rax]

0000000000007b80 <p2m_canonical_order.part.23>:
    7b80:	sub    rsp,0x8
    7b84:	mov    r8d,edi
    7b87:	mov    rdi,QWORD PTR [rip+0x5f6ca]        # 67258 <warn>
    7b8e:	xor    eax,eax
    7b90:	lea    rcx,[rip+0x1c7a9]        # 24340 <__func__.8022>
    7b97:	lea    rdx,[rip+0x18cfa]        # 20898 <_IO_stdin_used+0x2898>
    7b9e:	mov    esi,0x1
    7ba3:	call   5270 <__fprintf_chk@plt>
    7ba8:	mov    eax,0x4
    7bad:	add    rsp,0x8
    7bb1:	ret    
    7bb2:	data16 nop WORD PTR cs:[rax+rax*1+0x0]
    7bbd:	nop    DWORD PTR [rax]

0000000000007bc0 <vcpu_set_data_type.part.43>:
    7bc0:	sub    rsp,0x8
    7bc4:	lea    rcx,[rip+0x1c745]        # 24310 <__PRETTY_FUNCTION__.8252>
    7bcb:	mov    edx,0x2220
    7bd0:	lea    rsi,[rip+0x164f1]        # 1e0c8 <_IO_stdin_used+0xc8>
    7bd7:	lea    rdi,[rip+0x16532]        # 1e110 <_IO_stdin_used+0x110>
    7bde:	call   5110 <__assert_fail@plt>
    7be3:	data16 nop WORD PTR cs:[rax+rax*1+0x0]
    7bee:	xchg   ax,ax

0000000000007bf0 <hvm_msr_read_summary>:
    7bf0:	ret    
    7bf1:	data16 nop WORD PTR cs:[rax+rax*1+0x0]
    7bfc:	nop    DWORD PTR [rax+0x0]

0000000000007c00 <init_hvm_data.part.25>:
    7c00:	push   rbp
    7c01:	push   rbx
    7c02:	mov    rbx,rdi
    7c05:	sub    rsp,0x8
    7c09:	mov    QWORD PTR [rdi+0x10],rsi
    7c0d:	mov    DWORD PTR [rdi],0x1
    7c13:	test   BYTE PTR [rip+0x23489],0x10        # 2b0a3 <opt+0x3>
    7c1a:	je     7c60 <init_hvm_data.part.25+0x60>
    7c1c:	lea    rax,[rip+0x2461d]        # 2c240 <hvm_svm_exit_reason_name>
    7c23:	mov    DWORD PTR [rdi+0x20],0x401
    7c2a:	mov    QWORD PTR [rdi+0x18],rax
    7c2e:	test   BYTE PTR [rip+0x2346c],0x10        # 2b0a1 <opt+0x1>
    7c35:	jne    7c7b <init_hvm_data.part.25+0x7b>
    7c37:	lea    rax,[rbx+0x12af8]
    7c3e:	lea    rdx,[rbx+0x27f00]
    7c45:	nop    DWORD PTR [rax]
    7c48:	mov    DWORD PTR [rax],0x0
    7c4e:	add    rax,0xf8
    7c54:	cmp    rax,rdx
    7c57:	jne    7c48 <init_hvm_data.part.25+0x48>
    7c59:	add    rsp,0x8
    7c5d:	pop    rbx
    7c5e:	pop    rbp
    7c5f:	ret    
    7c60:	lea    rax,[rip+0x265f9]        # 2e260 <hvm_vmx_exit_reason_name>
    7c67:	mov    DWORD PTR [rdi+0x20],0x38
    7c6e:	mov    QWORD PTR [rdi+0x18],rax
    7c72:	test   BYTE PTR [rip+0x23428],0x10        # 2b0a1 <opt+0x1>
    7c79:	je     7c37 <init_hvm_data.part.25+0x37>
    7c7b:	movabs rax,0x1000000000000
    7c85:	xor    edx,edx
    7c87:	mov    esi,0x1
    7c8c:	div    QWORD PTR [rip+0x23435]        # 2b0c8 <opt+0x28>
    7c93:	cdqe   
    7c95:	lea    rbp,[rax*4+0x0]
    7c9d:	mov    rdi,rbp
    7ca0:	call   5170 <calloc@plt>
    7ca5:	mov    QWORD PTR [rbx+0x10470],rax
    7cac:	test   rax,rax
    7caf:	jne    7c37 <init_hvm_data.part.25+0x37>
    7cb1:	mov    rdi,QWORD PTR [rip+0x26788]        # 2e440 <stderr@@GLIBC_2.2.5>
    7cb8:	xor    eax,eax
    7cba:	mov    rcx,rbp
    7cbd:	lea    rdx,[rip+0x18bfc]        # 208c0 <_IO_stdin_used+0x28c0>
    7cc4:	mov    esi,0x1
    7cc9:	call   5270 <__fprintf_chk@plt>
    7cce:	cmp    DWORD PTR [rip+0x2340b],0x7        # 2b0e0 <opt+0x40>
    7cd5:	ja     7c37 <init_hvm_data.part.25+0x37>
    7cdb:	mov    edi,0x1
    7ce0:	call   5250 <exit@plt>
    7ce5:	data16 nop WORD PTR cs:[rax+rax*1+0x0]

0000000000007cf0 <parse_symbol_file>:
    7cf0:	push   r13
    7cf2:	lea    rsi,[rip+0x1642c]        # 1e125 <_IO_stdin_used+0x125>
    7cf9:	push   r12
    7cfb:	push   rbp
    7cfc:	push   rbx
    7cfd:	mov    rbx,rdi
    7d00:	sub    rsp,0x8
    7d04:	call   5230 <fopen@plt>
    7d09:	mov    rbp,rax
    7d0c:	test   rax,rax
    7d0f:	je     7e92 <parse_symbol_file+0x1a2>
    7d15:	lea    rbx,[rip+0x23414]        # 2b130 <G+0x10>
    7d1c:	xor    r12d,r12d
    7d1f:	lea    r13,[rip+0x1665c]        # 1e382 <_IO_stdin_used+0x382>
    7d26:	jmp    7dc0 <parse_symbol_file+0xd0>
    7d2b:	nop    DWORD PTR [rax+rax*1+0x0]
    7d30:	movsxd rcx,DWORD PTR [rax]
    7d33:	mov    edi,0xdeadbeef
    7d38:	lea    rsi,[rip+0x163ee]        # 1e12d <_IO_stdin_used+0x12d>
    7d3f:	mov    rdx,rcx
    7d42:	shl    rdx,0x4
    7d46:	add    rdx,rcx
    7d49:	mov    QWORD PTR [rax+rdx*8+0x8],rdi
    7d4e:	mov    rdx,QWORD PTR [rbx]
    7d51:	mov    rdi,rbp
    7d54:	movsxd rcx,DWORD PTR [rdx]
    7d57:	mov    rax,rcx
    7d5a:	shl    rax,0x4
    7d5e:	add    rax,rcx
    7d61:	shl    rax,0x3
    7d65:	lea    rcx,[rdx+rax*1+0x10]
    7d6a:	lea    rdx,[rdx+rax*1+0x8]
    7d6f:	xor    eax,eax
    7d71:	call   5080 <__isoc99_fscanf@plt>
    7d76:	test   eax,eax
    7d78:	je     7e50 <parse_symbol_file+0x160>
    7d7e:	mov    rsi,QWORD PTR [rbx]
    7d81:	movsxd rcx,DWORD PTR [rsi]
    7d84:	mov    rax,rcx
    7d87:	mov    rdx,rcx
    7d8a:	shl    rax,0x4
    7d8e:	add    rax,rcx
    7d91:	shl    rax,0x3
    7d95:	mov    rcx,QWORD PTR [rsi+rax*1+0x8]
    7d9a:	test   rcx,rcx
    7d9d:	je     7da4 <parse_symbol_file+0xb4>
    7d9f:	cmp    rcx,r12
    7da2:	jb     7e10 <parse_symbol_file+0x120>
    7da4:	add    edx,0x1
    7da7:	mov    r12,rcx
    7daa:	mov    DWORD PTR [rsi],edx
    7dac:	mov    rax,QWORD PTR [rbx]
    7daf:	lea    rdx,[rax+0x21f80]
    7db6:	cmp    DWORD PTR [rax],0x3ff
    7dbc:	cmove  rbx,rdx
    7dc0:	mov    rdi,rbp
    7dc3:	call   5180 <feof@plt>
    7dc8:	test   eax,eax
    7dca:	jne    7e50 <parse_symbol_file+0x160>
    7dd0:	mov    rax,QWORD PTR [rbx]
    7dd3:	test   rax,rax
    7dd6:	jne    7d30 <parse_symbol_file+0x40>
    7ddc:	mov    edi,0x21f88
    7de1:	call   51a0 <malloc@plt>
    7de6:	mov    QWORD PTR [rbx],rax
    7de9:	test   rax,rax
    7dec:	je     7e68 <parse_symbol_file+0x178>
    7dee:	mov    DWORD PTR [rax],0x0
    7df4:	mov    rax,QWORD PTR [rbx]
    7df7:	mov    QWORD PTR [rax+0x21f80],0x0
    7e02:	mov    rax,QWORD PTR [rbx]
    7e05:	jmp    7d30 <parse_symbol_file+0x40>
    7e0a:	nop    WORD PTR [rax+rax*1+0x0]
    7e10:	mov    rdi,QWORD PTR [rip+0x26629]        # 2e440 <stderr@@GLIBC_2.2.5>
    7e17:	lea    r8,[rsi+rax*1+0x10]
    7e1c:	xor    eax,eax
    7e1e:	mov    r9,r12
    7e21:	lea    rdx,[rip+0x18af8]        # 20920 <_IO_stdin_used+0x2920>
    7e28:	mov    esi,0x1
    7e2d:	call   5270 <__fprintf_chk@plt>
    7e32:	cmp    DWORD PTR [rip+0x232a7],0x6        # 2b0e0 <opt+0x40>
    7e39:	jbe    7ec8 <parse_symbol_file+0x1d8>
    7e3f:	mov    rsi,QWORD PTR [rbx]
    7e42:	mov    rcx,r12
    7e45:	mov    edx,DWORD PTR [rsi]
    7e47:	jmp    7da4 <parse_symbol_file+0xb4>
    7e4c:	nop    DWORD PTR [rax+0x0]
    7e50:	add    rsp,0x8
    7e54:	mov    rdi,rbp
    7e57:	pop    rbx
    7e58:	pop    rbp
    7e59:	pop    r12
    7e5b:	pop    r13
    7e5d:	jmp    50c0 <fclose@plt>
    7e62:	nop    WORD PTR [rax+rax*1+0x0]
    7e68:	mov    rcx,QWORD PTR [rip+0x265d1]        # 2e440 <stderr@@GLIBC_2.2.5>
    7e6f:	mov    edx,0xf
    7e74:	mov    esi,0x1
    7e79:	mov    rdi,r13
    7e7c:	call   5260 <fwrite@plt>
    7e81:	cmp    DWORD PTR [rip+0x23258],0x7        # 2b0e0 <opt+0x40>
    7e88:	jbe    7ec8 <parse_symbol_file+0x1d8>
    7e8a:	mov    rax,QWORD PTR [rbx]
    7e8d:	jmp    7dee <parse_symbol_file+0xfe>
    7e92:	mov    rdi,QWORD PTR [rip+0x265a7]        # 2e440 <stderr@@GLIBC_2.2.5>
    7e99:	mov    rcx,rbx
    7e9c:	mov    esi,0x1
    7ea1:	xor    eax,eax
    7ea3:	lea    rdx,[rip+0x18a56]        # 20900 <_IO_stdin_used+0x2900>
    7eaa:	call   5270 <__fprintf_chk@plt>
    7eaf:	lea    rdi,[rip+0x16272]        # 1e128 <_IO_stdin_used+0x128>
    7eb6:	call   5240 <perror@plt>
    7ebb:	cmp    DWORD PTR [rip+0x2321e],0x7        # 2b0e0 <opt+0x40>
    7ec2:	ja     7d15 <parse_symbol_file+0x25>
    7ec8:	mov    edi,0x1
    7ecd:	call   5250 <exit@plt>
    7ed2:	data16 nop WORD PTR cs:[rax+rax*1+0x0]
    7edd:	nop    DWORD PTR [rax]

0000000000007ee0 <find_symbol>:
    7ee0:	mov    r8,QWORD PTR [rip+0x23249]        # 2b130 <G+0x10>
    7ee7:	test   r8,r8
    7eea:	je     7f90 <find_symbol+0xb0>
    7ef0:	sub    rsp,0x8
    7ef4:	mov    rcx,rdi
    7ef7:	lea    r9,[rip+0x1623a]        # 1e138 <_IO_stdin_used+0x138>
    7efe:	mov    esi,DWORD PTR [r8]
    7f01:	test   esi,esi
    7f03:	jle    7f45 <find_symbol+0x65>
    7f05:	mov    rdx,QWORD PTR [r8+0x8]
    7f09:	cmp    rdi,rdx
    7f0c:	jb     7f51 <find_symbol+0x71>
    7f0e:	sub    esi,0x1
    7f11:	lea    rax,[r8+0x10]
    7f15:	mov    rcx,rsi
    7f18:	shl    rcx,0x4
    7f1c:	add    rcx,rsi
    7f1f:	lea    rsi,[rax+rcx*8]
    7f23:	jmp    7f37 <find_symbol+0x57>
    7f25:	nop    DWORD PTR [rax]
    7f28:	add    rax,0x88
    7f2e:	mov    rdx,QWORD PTR [rax-0x8]
    7f32:	cmp    rdx,rdi
    7f35:	ja     7f51 <find_symbol+0x71>
    7f37:	mov    rcx,rdi
    7f3a:	mov    r9,rax
    7f3d:	sub    rcx,rdx
    7f40:	cmp    rax,rsi
    7f43:	jne    7f28 <find_symbol+0x48>
    7f45:	mov    r8,QWORD PTR [r8+0x21f80]
    7f4c:	test   r8,r8
    7f4f:	jne    7efe <find_symbol+0x1e>
    7f51:	sub    rsp,0x8
    7f55:	mov    edx,0x1
    7f5a:	mov    esi,0x90
    7f5f:	xor    eax,eax
    7f61:	push   rcx
    7f62:	lea    r8,[rip+0x161d4]        # 1e13d <_IO_stdin_used+0x13d>
    7f69:	mov    ecx,0x90
    7f6e:	lea    rdi,[rip+0x614ab]        # 69420 <name.4948>
    7f75:	call   5030 <__snprintf_chk@plt>
    7f7a:	lea    rax,[rip+0x6149f]        # 69420 <name.4948>
    7f81:	add    rsp,0x18
    7f85:	ret    
    7f86:	nop    WORD PTR cs:[rax+rax*1+0x0]
    7f90:	mov    BYTE PTR [rip+0x61489],0x0        # 69420 <name.4948>
    7f97:	lea    rax,[rip+0x61482]        # 69420 <name.4948>
    7f9e:	ret    
    7f9f:	nop

0000000000007fa0 <init_hvm_data>:
    7fa0:	mov    eax,DWORD PTR [rdi]
    7fa2:	test   eax,eax
    7fa4:	jne    7fb0 <init_hvm_data+0x10>
    7fa6:	jmp    7c00 <init_hvm_data.part.25>
    7fab:	nop    DWORD PTR [rax+rax*1+0x0]
    7fb0:	ret    
    7fb1:	data16 nop WORD PTR cs:[rax+rax*1+0x0]
    7fbc:	nop    DWORD PTR [rax+0x0]

0000000000007fc0 <volume_clear>:
    7fc0:	mov    QWORD PTR [rdi],0x0
    7fc7:	mov    rcx,rdi
    7fca:	lea    rdi,[rdi+0x8]
    7fce:	xor    eax,eax
    7fd0:	mov    QWORD PTR [rdi+0x50],0x0
    7fd8:	and    rdi,0xfffffffffffffff8
    7fdc:	sub    rcx,rdi
    7fdf:	add    ecx,0x60
    7fe2:	shr    ecx,0x3
    7fe5:	rep stos QWORD PTR es:[rdi],rax
    7fe8:	ret    
    7fe9:	nop    DWORD PTR [rax+0x0]

0000000000007ff0 <volume_summary>:
    7ff0:	push   r15
    7ff2:	push   r14
    7ff4:	mov    r14,rdi
    7ff7:	push   r13
    7ff9:	lea    r13,[rip+0x232e0]        # 2b2e0 <toplevel_name>
    8000:	push   r12
    8002:	lea    r12,[rip+0x1613f]        # 1e148 <_IO_stdin_used+0x148>
    8009:	push   rbp
    800a:	lea    rbp,[rip+0x23817]        # 2b828 <hvm_vol_name+0x18>
    8011:	push   rbx
    8012:	xor    ebx,ebx
    8014:	sub    rsp,0x18
    8018:	jmp    802a <volume_summary+0x3a>
    801a:	nop    WORD PTR [rax+rax*1+0x0]
    8020:	cmp    r15d,0x7
    8024:	je     80a0 <volume_summary+0xb0>
    8026:	add    rbx,0x1
    802a:	mov    rcx,QWORD PTR [r14+rbx*8]
    802e:	mov    r15d,ebx
    8031:	test   rcx,rcx
    8034:	je     8020 <volume_summary+0x30>
    8036:	mov    rdx,QWORD PTR [r13+rbx*8+0x0]
    803b:	xor    eax,eax
    803d:	mov    rsi,r12
    8040:	mov    edi,0x1
    8045:	call   5200 <__printf_chk@plt>
    804a:	cmp    ebx,0x1
    804d:	je     80b0 <volume_summary+0xc0>
    804f:	cmp    ebx,0x3
    8052:	jne    8020 <volume_summary+0x30>
    8054:	lea    r9,[r14+0x48]
    8058:	mov    rcx,QWORD PTR [r9]
    805b:	lea    r15,[rip+0x237ae]        # 2b810 <hvm_vol_name>
    8062:	test   rcx,rcx
    8065:	jne    807c <volume_summary+0x8c>
    8067:	add    r15,0x8
    806b:	add    r9,0x8
    806f:	cmp    r15,rbp
    8072:	je     8026 <volume_summary+0x36>
    8074:	mov    rcx,QWORD PTR [r9]
    8077:	test   rcx,rcx
    807a:	je     8067 <volume_summary+0x77>
    807c:	mov    rdx,QWORD PTR [r15]
    807f:	mov    edi,0x1
    8084:	xor    eax,eax
    8086:	mov    QWORD PTR [rsp+0x8],r9
    808b:	lea    rsi,[rip+0x160d9]        # 1e16b <_IO_stdin_used+0x16b>
    8092:	call   5200 <__printf_chk@plt>
    8097:	mov    r9,QWORD PTR [rsp+0x8]
    809c:	jmp    8067 <volume_summary+0x77>
    809e:	xchg   ax,ax
    80a0:	add    rsp,0x18
    80a4:	pop    rbx
    80a5:	pop    rbp
    80a6:	pop    r12
    80a8:	pop    r13
    80aa:	pop    r14
    80ac:	pop    r15
    80ae:	ret    
    80af:	nop
    80b0:	mov    rdx,QWORD PTR [r14+0x40]
    80b4:	test   rdx,rdx
    80b7:	je     8026 <volume_summary+0x36>
    80bd:	lea    rsi,[rip+0x16093]        # 1e157 <_IO_stdin_used+0x157>
    80c4:	mov    edi,0x1
    80c9:	xor    eax,eax
    80cb:	call   5200 <__printf_chk@plt>
    80d0:	jmp    8026 <volume_summary+0x36>
    80d5:	data16 nop WORD PTR cs:[rax+rax*1+0x0]

00000000000080e0 <cpumask_init>:
    80e0:	mov    DWORD PTR [rdi],0x0
    80e6:	ret    
    80e7:	nop    WORD PTR [rax+rax*1+0x0]

00000000000080f0 <cpumask_clear>:
    80f0:	mov    rax,0xfffffffffffffffe
    80f7:	mov    ecx,esi
    80f9:	rol    rax,cl
    80fc:	and    DWORD PTR [rdi],eax
    80fe:	ret    
    80ff:	nop

0000000000008100 <cpumask_set>:
    8100:	mov    eax,0x1
    8105:	mov    ecx,esi
    8107:	shl    rax,cl
    810a:	or     DWORD PTR [rdi],eax
    810c:	ret    
    810d:	nop    DWORD PTR [rax]

0000000000008110 <cpumask_isset>:
    8110:	mov    eax,DWORD PTR [rdi]
    8112:	mov    ecx,esi
    8114:	shr    rax,cl
    8117:	and    eax,0x1
    811a:	ret    
    811b:	nop    DWORD PTR [rax+rax*1+0x0]

0000000000008120 <cpumask_union>:
    8120:	mov    eax,DWORD PTR [rsi]
    8122:	or     DWORD PTR [rdi],eax
    8124:	ret    
    8125:	data16 nop WORD PTR cs:[rax+rax*1+0x0]

0000000000008130 <cycles_to_time>:
    8130:	sub    rdi,QWORD PTR [rip+0x27089]        # 2f1c0 <P+0x20>
    8137:	xor    edx,edx
    8139:	movabs rcx,0x44b82fa09b5a53
    8143:	shl    rdi,0xa
    8147:	mov    rax,rdi
    814a:	div    QWORD PTR [rip+0x22f57]        # 2b0a8 <opt+0x8>
    8151:	mov    rdx,rax
    8154:	mov    rdi,rax
    8157:	mov    QWORD PTR [rsi],rax
    815a:	shr    rdx,0x9
    815e:	mov    rax,rdx
    8161:	mul    rcx
    8164:	shr    rdx,0xb
    8168:	mov    DWORD PTR [rsi+0x8],edx
    816b:	imul   edx,edx,0x3b9aca00
    8171:	sub    edi,edx
    8173:	mov    DWORD PTR [rsi+0xc],edi
    8176:	ret    
    8177:	nop    WORD PTR [rax+rax*1+0x0]

0000000000008180 <abs_cycles_to_time>:
    8180:	mov    rax,QWORD PTR [rip+0x27039]        # 2f1c0 <P+0x20>
    8187:	cmp    rax,rdi
    818a:	jae    81d0 <abs_cycles_to_time+0x50>
    818c:	movabs rcx,0x44b82fa09b5a53
    8196:	sub    rdi,rax
    8199:	xor    edx,edx
    819b:	shl    rdi,0xa
    819f:	mov    rax,rdi
    81a2:	div    QWORD PTR [rip+0x22eff]        # 2b0a8 <opt+0x8>
    81a9:	mov    rdx,rax
    81ac:	mov    rdi,rax
    81af:	mov    QWORD PTR [rsi],rax
    81b2:	shr    rdx,0x9
    81b6:	mov    rax,rdx
    81b9:	mul    rcx
    81bc:	shr    rdx,0xb
    81c0:	mov    DWORD PTR [rsi+0x8],edx
    81c3:	imul   edx,edx,0x3b9aca00
    81c9:	sub    edi,edx
    81cb:	mov    DWORD PTR [rsi+0xc],edi
    81ce:	ret    
    81cf:	nop
    81d0:	mov    QWORD PTR [rsi],0x0
    81d7:	mov    QWORD PTR [rsi+0x8],0x0
    81df:	ret    

00000000000081e0 <abs_cycles_to_global>:
    81e0:	mov    rdx,QWORD PTR [rip+0x26fd9]        # 2f1c0 <P+0x20>
    81e7:	mov    rax,rdi
    81ea:	sub    rax,rdx
    81ed:	cmp    rdx,rdi
    81f0:	mov    edx,0x0
    81f5:	cmovae rax,rdx
    81f9:	ret    
    81fa:	nop    WORD PTR [rax+rax*1+0x0]

0000000000008200 <scatterplot_vs_time>:
    8200:	mov    rax,QWORD PTR [rip+0x26fb9]        # 2f1c0 <P+0x20>
    8207:	mov    r8,rsi
    820a:	cmp    rdi,rax
    820d:	jbe    8260 <scatterplot_vs_time+0x60>
    820f:	sub    rdi,rax
    8212:	xor    edx,edx
    8214:	mov    rcx,rdi
    8217:	shl    rcx,0xa
    821b:	mov    rax,rcx
    821e:	div    QWORD PTR [rip+0x22e83]        # 2b0a8 <opt+0x8>
    8225:	movabs rdx,0x44b82fa09b5a53
    822f:	mov    rcx,rax
    8232:	shr    rax,0x9
    8236:	mul    rdx
    8239:	mov    rax,rdx
    823c:	shr    rax,0xb
    8240:	mov    edx,eax
    8242:	imul   eax,eax,0x3b9aca00
    8248:	sub    ecx,eax
    824a:	lea    rsi,[rip+0x16267]        # 1e4b8 <_IO_stdin_used+0x4b8>
    8251:	mov    edi,0x1
    8256:	xor    eax,eax
    8258:	jmp    5200 <__printf_chk@plt>
    825d:	nop    DWORD PTR [rax]
    8260:	xor    ecx,ecx
    8262:	xor    edx,edx
    8264:	jmp    824a <scatterplot_vs_time+0x4a>
    8266:	nop    WORD PTR cs:[rax+rax*1+0x0]

0000000000008270 <percentile>:
    8270:	test   esi,esi
    8272:	je     8280 <percentile+0x10>
    8274:	jmp    57f0 <percentile.part.6>
    8279:	nop    DWORD PTR [rax+0x0]
    8280:	xor    eax,eax
    8282:	ret    
    8283:	data16 nop WORD PTR cs:[rax+rax*1+0x0]
    828e:	xchg   ax,ax

0000000000008290 <weighted_percentile>:
    8290:	push   r15
    8292:	push   r14
    8294:	push   r13
    8296:	push   r12
    8298:	push   rbp
    8299:	mov    rbp,rdi
    829c:	push   rbx
    829d:	sub    rsp,0x28
    82a1:	test   edx,edx
    82a3:	jle    8480 <weighted_percentile+0x1f0>
    82a9:	mov    rdi,QWORD PTR [rsi]
    82ac:	test   rdi,rdi
    82af:	je     8495 <weighted_percentile+0x205>
    82b5:	sub    edx,0x1
    82b8:	lea    rax,[rsi+0x8]
    82bc:	xor    r8d,r8d
    82bf:	mov    r14,rdx
    82c2:	lea    rdx,[rax+rdx*8]
    82c6:	jmp    82e1 <weighted_percentile+0x51>
    82c8:	nop    DWORD PTR [rax+rax*1+0x0]
    82d0:	add    rax,0x8
    82d4:	mov    rdi,QWORD PTR [rax-0x8]
    82d8:	test   rdi,rdi
    82db:	je     8495 <weighted_percentile+0x205>
    82e1:	add    r8,rdi
    82e4:	cmp    rax,rdx
    82e7:	jne    82d0 <weighted_percentile+0x40>
    82e9:	movsxd rdx,ecx
    82ec:	movabs rcx,0x28f5c28f5c28f5c3
    82f6:	imul   rdx,r8
    82fa:	shr    rdx,0x2
    82fe:	mov    rax,rdx
    8301:	mul    rcx
    8304:	shr    rdx,0x2
    8308:	mov    QWORD PTR [rsp+0x8],rdx
    830d:	movsxd rdx,r14d
    8310:	sub    r8,QWORD PTR [rsi+rdx*8]
    8314:	mov    QWORD PTR [rsp],r8
    8318:	test   r14d,r14d
    831b:	jle    846c <weighted_percentile+0x1dc>
    8321:	mov    QWORD PTR [rsp+0x18],0x0
    832a:	xor    r15d,r15d
    832d:	mov    QWORD PTR [rsp+0x10],0x0
    8336:	nop    WORD PTR cs:[rax+rax*1+0x0]
    8340:	lea    eax,[r14+r15*1]
    8344:	movss  xmm0,DWORD PTR [rbp+rdx*4+0x0]
    834a:	mov    r8d,r15d
    834d:	mov    edi,r14d
    8350:	sar    eax,1
    8352:	mov    rcx,QWORD PTR [rsp]
    8356:	mov    r12,QWORD PTR [rsp+0x18]
    835b:	cdqe   
    835d:	movss  xmm1,DWORD PTR [rbp+rax*4+0x0]
    8363:	mov    rax,QWORD PTR [rsp+0x10]
    8368:	lea    rbx,[rbp+rax*4+0x0]
    836d:	lea    r11,[rsi+rax*8]
    8371:	movsxd rax,r14d
    8374:	nop    DWORD PTR [rax+0x0]
    8378:	movss  xmm2,DWORD PTR [rbx]
    837c:	mov    r13d,r8d
    837f:	comiss xmm1,xmm2
    8382:	ja     8400 <weighted_percentile+0x170>
    8384:	comiss xmm0,xmm1
    8387:	jbe    8458 <weighted_percentile+0x1c8>
    838d:	lea    r9d,[rdi-0x1]
    8391:	lea    rdx,[rbp+rax*4-0x4]
    8396:	sub    r9d,edi
    8399:	nop    DWORD PTR [rax+0x0]
    83a0:	mov    r10,rdx
    83a3:	sub    rdx,0x4
    83a7:	movss  xmm0,DWORD PTR [rdx+0x4]
    83ac:	sub    rcx,QWORD PTR [rsi+rax*8]
    83b0:	lea    edi,[r9+rax*1]
    83b4:	sub    rax,0x1
    83b8:	comiss xmm0,xmm1
    83bb:	ja     83a0 <weighted_percentile+0x110>
    83bd:	cmp    r8d,edi
    83c0:	jle    8418 <weighted_percentile+0x188>
    83c2:	cmp    rcx,QWORD PTR [rsp+0x8]
    83c7:	jae    83d9 <weighted_percentile+0x149>
    83c9:	movsxd rax,r13d
    83cc:	mov    QWORD PTR [rsp+0x18],r12
    83d1:	mov    QWORD PTR [rsp+0x10],rax
    83d6:	mov    r15,rax
    83d9:	mov    rax,QWORD PTR [rsp+0x8]
    83de:	cmp    r12,rax
    83e1:	cmovbe rcx,QWORD PTR [rsp]
    83e6:	cmova  r14d,edi
    83ea:	mov    QWORD PTR [rsp],rcx
    83ee:	cmp    r14d,r15d
    83f1:	jle    8462 <weighted_percentile+0x1d2>
    83f3:	movsxd rdx,r14d
    83f6:	jmp    8340 <weighted_percentile+0xb0>
    83fb:	nop    DWORD PTR [rax+rax*1+0x0]
    8400:	add    r12,QWORD PTR [r11]
    8403:	add    r8d,0x1
    8407:	add    rbx,0x4
    840b:	add    r11,0x8
    840f:	jmp    8378 <weighted_percentile+0xe8>
    8414:	nop    DWORD PTR [rax+0x0]
    8418:	lea    rax,[rsi+rax*8]
    841c:	movss  DWORD PTR [rbx],xmm0
    8420:	add    r8d,0x1
    8424:	sub    edi,0x1
    8427:	movss  DWORD PTR [r10],xmm2
    842c:	mov    rdx,QWORD PTR [r11]
    842f:	mov    r9,QWORD PTR [rax]
    8432:	mov    r13d,r8d
    8435:	mov    QWORD PTR [r11],r9
    8438:	sub    rcx,rdx
    843b:	mov    QWORD PTR [rax],rdx
    843e:	add    r12,QWORD PTR [r11]
    8441:	cmp    r8d,edi
    8444:	jg     83c2 <weighted_percentile+0x132>
    844a:	movsxd rax,edi
    844d:	movss  xmm0,DWORD PTR [rbp+rax*4+0x0]
    8453:	jmp    8407 <weighted_percentile+0x177>
    8455:	nop    DWORD PTR [rax]
    8458:	lea    r10,[rbp+rax*4+0x0]
    845d:	jmp    83bd <weighted_percentile+0x12d>
    8462:	mov    rax,QWORD PTR [rsp+0x10]
    8467:	lea    rbp,[rbp+rax*4+0x0]
    846c:	movss  xmm0,DWORD PTR [rbp+0x0]
    8471:	add    rsp,0x28
    8475:	pop    rbx
    8476:	pop    rbp
    8477:	pop    r12
    8479:	pop    r13
    847b:	pop    r14
    847d:	pop    r15
    847f:	ret    
    8480:	mov    QWORD PTR [rsp+0x8],0x0
    8489:	xor    r8d,r8d
    848c:	lea    r14d,[rdx-0x1]
    8490:	jmp    830d <weighted_percentile+0x7d>
    8495:	lea    rcx,[rip+0x1c434]        # 248d0 <__PRETTY_FUNCTION__.5821>
    849c:	mov    edx,0x7fa
    84a1:	lea    rsi,[rip+0x15c20]        # 1e0c8 <_IO_stdin_used+0xc8>
    84a8:	lea    rdi,[rip+0x15ccd]        # 1e17c <_IO_stdin_used+0x17c>
    84af:	call   5110 <__assert_fail@plt>
    84b4:	data16 nop WORD PTR cs:[rax+rax*1+0x0]
    84bf:	nop

00000000000084c0 <self_weighted_percentile>:
    84c0:	push   r15
    84c2:	push   r14
    84c4:	push   r13
    84c6:	push   r12
    84c8:	push   rbp
    84c9:	push   rbx
    84ca:	mov    rbx,rdi
    84cd:	sub    rsp,0x28
    84d1:	mov    DWORD PTR [rsp+0x8],edx
    84d5:	test   esi,esi
    84d7:	jle    869c <self_weighted_percentile+0x1dc>
    84dd:	lea    eax,[rsi-0x1]
    84e0:	mov    r15,rdi
    84e3:	lea    r12,[rip+0x1c3c6]        # 248b0 <__func__.5854>
    84ea:	xor    r14d,r14d
    84ed:	mov    r13,rax
    84f0:	lea    rbp,[rdi+rax*8+0x8]
    84f5:	jmp    8515 <self_weighted_percentile+0x55>
    84f7:	nop    WORD PTR [rax+rax*1+0x0]
    8500:	test   r8,r8
    8503:	je     86b1 <self_weighted_percentile+0x1f1>
    8509:	add    r15,0x8
    850d:	add    r14,r8
    8510:	cmp    rbp,r15
    8513:	je     853f <self_weighted_percentile+0x7f>
    8515:	mov    r8,QWORD PTR [r15]
    8518:	test   r8,r8
    851b:	jns    8500 <self_weighted_percentile+0x40>
    851d:	mov    rdi,QWORD PTR [rip+0x5ed34]        # 67258 <warn>
    8524:	mov    rcx,r12
    8527:	mov    esi,0x1
    852c:	xor    eax,eax
    852e:	lea    rdx,[rip+0x18423]        # 20958 <_IO_stdin_used+0x2958>
    8535:	call   5270 <__fprintf_chk@plt>
    853a:	mov    r8,QWORD PTR [r15]
    853d:	jmp    8500 <self_weighted_percentile+0x40>
    853f:	movabs rdx,0xa3d70a3d70a3d70b
    8549:	movsxd rcx,DWORD PTR [rsp+0x8]
    854e:	imul   rcx,r14
    8552:	mov    rax,rcx
    8555:	imul   rdx
    8558:	lea    rax,[rdx+rcx*1]
    855c:	sar    rcx,0x3f
    8560:	sar    rax,0x6
    8564:	sub    rax,rcx
    8567:	mov    QWORD PTR [rsp+0x8],rax
    856c:	movsxd rax,r13d
    856f:	mov    rdx,QWORD PTR [rbx+rax*8]
    8573:	sub    r14,rdx
    8576:	test   r13d,r13d
    8579:	jle    868a <self_weighted_percentile+0x1ca>
    857f:	mov    QWORD PTR [rsp+0x18],0x0
    8588:	xor    r15d,r15d
    858b:	mov    QWORD PTR [rsp+0x10],0x0
    8594:	nop    DWORD PTR [rax+0x0]
    8598:	lea    eax,[r15+r13*1]
    859c:	mov    rbp,QWORD PTR [rsp+0x18]
    85a1:	mov    edi,r15d
    85a4:	mov    rsi,r14
    85a7:	sar    eax,1
    85a9:	mov    ecx,r13d
    85ac:	cdqe   
    85ae:	mov    r8,QWORD PTR [rbx+rax*8]
    85b2:	mov    rax,QWORD PTR [rsp+0x10]
    85b7:	lea    r10,[rbx+rax*8]
    85bb:	movsxd rax,r13d
    85be:	xchg   ax,ax
    85c0:	mov    r11,QWORD PTR [r10]
    85c3:	mov    r12d,edi
    85c6:	cmp    r11,r8
    85c9:	jl     8638 <self_weighted_percentile+0x178>
    85cb:	cmp    r8,rdx
    85ce:	jge    8678 <self_weighted_percentile+0x1b8>
    85d4:	lea    rax,[rbx+rax*8-0x8]
    85d9:	nop    DWORD PTR [rax+0x0]
    85e0:	mov    r9,rax
    85e3:	sub    rax,0x8
    85e7:	sub    rsi,rdx
    85ea:	sub    ecx,0x1
    85ed:	mov    rdx,QWORD PTR [rax+0x8]
    85f1:	cmp    rdx,r8
    85f4:	jg     85e0 <self_weighted_percentile+0x120>
    85f6:	cmp    edi,ecx
    85f8:	jle    8650 <self_weighted_percentile+0x190>
    85fa:	cmp    rsi,QWORD PTR [rsp+0x8]
    85ff:	jge    8611 <self_weighted_percentile+0x151>
    8601:	movsxd rax,r12d
    8604:	mov    QWORD PTR [rsp+0x18],rbp
    8609:	mov    QWORD PTR [rsp+0x10],rax
    860e:	mov    r15,rax
    8611:	mov    rax,QWORD PTR [rsp+0x8]
    8616:	cmp    rbp,rax
    8619:	cmovg  r13d,ecx
    861d:	cmovg  r14,rsi
    8621:	cmp    r13d,r15d
    8624:	jle    8681 <self_weighted_percentile+0x1c1>
    8626:	movsxd rax,r13d
    8629:	mov    rdx,QWORD PTR [rbx+rax*8]
    862d:	jmp    8598 <self_weighted_percentile+0xd8>
    8632:	nop    WORD PTR [rax+rax*1+0x0]
    8638:	add    rbp,r11
    863b:	add    edi,0x1
    863e:	add    r10,0x8
    8642:	jmp    85c0 <self_weighted_percentile+0x100>
    8647:	nop    WORD PTR [rax+rax*1+0x0]
    8650:	add    edi,0x1
    8653:	sub    ecx,0x1
    8656:	mov    QWORD PTR [r10],rdx
    8659:	sub    rsi,r11
    865c:	mov    QWORD PTR [r9],r11
    865f:	mov    r12d,edi
    8662:	add    rbp,QWORD PTR [r10]
    8665:	cmp    ecx,edi
    8667:	jl     85fa <self_weighted_percentile+0x13a>
    8669:	movsxd rax,ecx
    866c:	mov    rdx,QWORD PTR [rbx+rax*8]
    8670:	jmp    863e <self_weighted_percentile+0x17e>
    8672:	nop    WORD PTR [rax+rax*1+0x0]
    8678:	lea    r9,[rbx+rax*8]
    867c:	jmp    85f6 <self_weighted_percentile+0x136>
    8681:	mov    rax,QWORD PTR [rsp+0x10]
    8686:	lea    rbx,[rbx+rax*8]
    868a:	mov    rax,QWORD PTR [rbx]
    868d:	add    rsp,0x28
    8691:	pop    rbx
    8692:	pop    rbp
    8693:	pop    r12
    8695:	pop    r13
    8697:	pop    r14
    8699:	pop    r15
    869b:	ret    
    869c:	mov    QWORD PTR [rsp+0x8],0x0
    86a5:	xor    r14d,r14d
    86a8:	lea    r13d,[rsi-0x1]
    86ac:	jmp    856c <self_weighted_percentile+0xac>
    86b1:	lea    rcx,[rip+0x1c1d8]        # 24890 <__PRETTY_FUNCTION__.5855>
    86b8:	mov    edx,0x851
    86bd:	lea    rsi,[rip+0x15a04]        # 1e0c8 <_IO_stdin_used+0xc8>
    86c4:	lea    rdi,[rip+0x15ab9]        # 1e184 <_IO_stdin_used+0x184>
    86cb:	call   5110 <__assert_fail@plt>

00000000000086d0 <hvm_summary.part.19>:
    86d0:	push   r15
    86d2:	push   r14
    86d4:	push   r13
    86d6:	mov    r13,rdi
    86d9:	lea    rdi,[rip+0x15aac]        # 1e18c <_IO_stdin_used+0x18c>
    86e0:	push   r12
    86e2:	lea    r12,[r13+0x2030]
    86e9:	push   rbp
    86ea:	xor    ebp,ebp
    86ec:	push   rbx
    86ed:	sub    rsp,0x88
    86f4:	mov    rax,QWORD PTR fs:0x28
    86fd:	mov    QWORD PTR [rsp+0x78],rax
    8702:	xor    eax,eax
    8704:	call   5090 <puts@plt>
    8709:	mov    r15d,DWORD PTR [r13+0x20]
    870d:	test   r15d,r15d
    8710:	jle    8894 <hvm_summary.part.19+0x1c4>
    8716:	nop    WORD PTR cs:[rax+rax*1+0x0]
    8720:	mov    rax,QWORD PTR [r13+0x18]
    8724:	mov    r9d,ebp
    8727:	lea    r8,[rbp*8+0x0]
    872f:	mov    ecx,DWORD PTR [r12]
    8733:	mov    rdx,QWORD PTR [rax+rbp*8]
    8737:	test   rdx,rdx
    873a:	je     8a90 <hvm_summary.part.19+0x3c0>
    8740:	test   ecx,ecx
    8742:	je     8866 <hvm_summary.part.19+0x196>
    8748:	mov    r14d,DWORD PTR [rip+0x22989]        # 2b0d8 <opt+0x38>
    874f:	test   r14d,r14d
    8752:	je     8d2d <hvm_summary.part.19+0x65d>
    8758:	mov    r15d,DWORD PTR [r12+0x4]
    875d:	cmp    DWORD PTR [r12+0x8],r15d
    8762:	cmovle r15d,DWORD PTR [r12+0x8]
    8768:	test   r15d,r15d
    876b:	je     8df6 <hvm_summary.part.19+0x726>
    8771:	mov    rdi,QWORD PTR [r12+0x18]
    8776:	mov    esi,r15d
    8779:	mov    edx,0x32
    877e:	mov    QWORD PTR [rsp],r8
    8782:	call   57f0 <percentile.part.6>
    8787:	mov    rdi,QWORD PTR [r12+0x18]
    878c:	mov    esi,r15d
    878f:	mov    edx,0x5
    8794:	mov    r14,rax
    8797:	call   57f0 <percentile.part.6>
    879c:	mov    rdi,QWORD PTR [r12+0x18]
    87a1:	mov    esi,r15d
    87a4:	mov    edx,0x5f
    87a9:	mov    rbx,rax
    87ac:	call   57f0 <percentile.part.6>
    87b1:	mov    r8,QWORD PTR [rsp]
    87b5:	mov    r15,rax
    87b8:	mov    rax,QWORD PTR [r13+0x18]
    87bc:	mov    rdx,QWORD PTR [rax+r8*1]
    87c0:	lea    rsi,[rip+0x159eb]        # 1e1b2 <_IO_stdin_used+0x1b2>
    87c7:	mov    edi,0x1
    87cc:	xor    eax,eax
    87ce:	call   5200 <__printf_chk@plt>
    87d3:	mov    eax,DWORD PTR [r12+0x4]
    87d8:	mov    rsi,QWORD PTR [r12+0x10]
    87dd:	test   eax,eax
    87df:	je     8b2d <hvm_summary.part.19+0x45d>
    87e5:	movsxd rcx,eax
    87e8:	xor    edx,edx
    87ea:	mov    rax,rsi
    87ed:	div    rcx
    87f0:	mov    rcx,rax
    87f3:	lea    rdx,[rsi+rsi*4]
    87f7:	pxor   xmm1,xmm1
    87fb:	pxor   xmm0,xmm0
    87ff:	cvtsi2sd xmm0,QWORD PTR [rip+0x269c8]        # 2f1d0 <P+0x30>
    8808:	lea    rdx,[rdx+rdx*4]
    880c:	shl    rdx,0x2
    8810:	cvtsi2sd xmm1,rdx
    8815:	divsd  xmm1,xmm0
    8819:	test   rsi,rsi
    881c:	js     8b38 <hvm_summary.part.19+0x468>
    8822:	pxor   xmm0,xmm0
    8826:	cvtsi2sd xmm0,rsi
    882b:	pxor   xmm2,xmm2
    882f:	sub    rsp,0x8
    8833:	mov    r9,r14
    8836:	mov    r8,rbx
    8839:	cvtsi2sd xmm2,QWORD PTR [rip+0x2286e]        # 2b0b0 <opt+0x10>
    8842:	push   r15
    8844:	mov    edx,DWORD PTR [r12]
    8848:	lea    rsi,[rip+0x17fc9]        # 20818 <_IO_stdin_used+0x2818>
    884f:	mov    edi,0x1
    8854:	mov    eax,0x2
    8859:	divsd  xmm0,xmm2
    885d:	call   5200 <__printf_chk@plt>
    8862:	pop    r10
    8864:	pop    r11
    8866:	mov    rbx,QWORD PTR [r13+rbp*8+0x28]
    886b:	test   rbx,rbx
    886e:	je     8882 <hvm_summary.part.19+0x1b2>
    8870:	mov    rsi,QWORD PTR [rbx+0x8]
    8874:	mov    rdi,r13
    8877:	call   QWORD PTR [rbx]
    8879:	mov    rbx,QWORD PTR [rbx+0x10]
    887d:	test   rbx,rbx
    8880:	jne    8870 <hvm_summary.part.19+0x1a0>
    8882:	add    rbp,0x1
    8886:	add    r12,0x38
    888a:	cmp    DWORD PTR [r13+0x20],ebp
    888e:	jg     8720 <hvm_summary.part.19+0x50>
    8894:	lea    rdi,[rip+0x158ff]        # 1e19a <_IO_stdin_used+0x19a>
    889b:	lea    rbp,[r13+0x12af8]
    88a2:	xor    ebx,ebx
    88a4:	call   5090 <puts@plt>
    88a9:	lea    r14,[rsp+0x20]
    88ae:	mov    QWORD PTR [rsp+0x18],r13
    88b3:	jmp    88ce <hvm_summary.part.19+0x1fe>
    88b5:	nop    DWORD PTR [rax]
    88b8:	add    ebx,0x1
    88bb:	add    rbp,0xf8
    88c2:	cmp    ebx,0x15e
    88c8:	je     8b56 <hvm_summary.part.19+0x486>
    88ce:	mov    ecx,DWORD PTR [rbp+0x0]
    88d1:	test   ecx,ecx
    88d3:	je     88b8 <hvm_summary.part.19+0x1e8>
    88d5:	mov    edx,ebx
    88d7:	lea    rsi,[rip+0x158e3]        # 1e1c1 <_IO_stdin_used+0x1c1>
    88de:	mov    edi,0x1
    88e3:	xor    eax,eax
    88e5:	call   5200 <__printf_chk@plt>
    88ea:	mov    DWORD PTR [rsp+0x14],ebx
    88ee:	lea    r13,[rip+0x22f4b]        # 2b840 <guest_interrupt_case_name>
    88f5:	lea    r12,[rbp+0x44]
    88f9:	mov    r9,QWORD PTR [r13+0x8]
    88fd:	mov    ecx,0x50
    8902:	mov    edx,0x1
    8907:	xor    eax,eax
    8909:	lea    r8,[rip+0x158bd]        # 1e1cd <_IO_stdin_used+0x1cd>
    8910:	mov    esi,0x50
    8915:	mov    rdi,r14
    8918:	call   5030 <__snprintf_chk@plt>
    891d:	mov    ecx,DWORD PTR [r12]
    8921:	test   ecx,ecx
    8923:	je     89ee <hvm_summary.part.19+0x31e>
    8929:	mov    rsi,QWORD PTR [r12+0xc]
    892e:	movsxd rdi,ecx
    8931:	xor    edx,edx
    8933:	mov    r9d,DWORD PTR [rip+0x2279e]        # 2b0d8 <opt+0x38>
    893a:	mov    rax,rsi
    893d:	div    rdi
    8940:	mov    r8,rax
    8943:	test   r9d,r9d
    8946:	je     8a10 <hvm_summary.part.19+0x340>
    894c:	cmp    DWORD PTR [r12+0x4],ecx
    8951:	cmovle ecx,DWORD PTR [r12+0x4]
    8957:	mov    edx,0x32
    895c:	mov    QWORD PTR [rsp+0x8],rax
    8961:	mov    rdi,QWORD PTR [r12+0x14]
    8966:	mov    esi,ecx
    8968:	mov    r15d,ecx
    896b:	call   84c0 <self_weighted_percentile>
    8970:	mov    rdi,QWORD PTR [r12+0x14]
    8975:	mov    edx,0x5
    897a:	mov    esi,r15d
    897d:	mov    rbx,rax
    8980:	call   84c0 <self_weighted_percentile>
    8985:	mov    rdi,QWORD PTR [r12+0x14]
    898a:	mov    edx,0x5f
    898f:	mov    esi,r15d
    8992:	mov    QWORD PTR [rsp],rax
    8996:	call   84c0 <self_weighted_percentile>
    899b:	mov    rdx,QWORD PTR [r12+0xc]
    89a0:	mov    r9,QWORD PTR [rsp]
    89a4:	mov    r8,QWORD PTR [rsp+0x8]
    89a9:	test   rdx,rdx
    89ac:	js     8a50 <hvm_summary.part.19+0x380>
    89b2:	pxor   xmm0,xmm0
    89b6:	cvtsi2sd xmm0,rdx
    89bb:	pxor   xmm1,xmm1
    89bf:	push   rax
    89c0:	mov    edi,0x1
    89c5:	mov    rdx,r14
    89c8:	cvtsi2sd xmm1,QWORD PTR [rip+0x226df]        # 2b0b0 <opt+0x10>
    89d1:	push   rbx
    89d2:	mov    ecx,DWORD PTR [r12]
    89d6:	lea    rsi,[rip+0x17f9b]        # 20978 <_IO_stdin_used+0x2978>
    89dd:	mov    eax,0x1
    89e2:	divsd  xmm0,xmm1
    89e6:	call   5200 <__printf_chk@plt>
    89eb:	pop    rdi
    89ec:	pop    r8
    89ee:	add    r13,0x8
    89f2:	lea    rax,[rip+0x22e5f]        # 2b858 <guest_interrupt_case_name+0x18>
    89f9:	add    r12,0x38
    89fd:	cmp    rax,r13
    8a00:	jne    88f9 <hvm_summary.part.19+0x229>
    8a06:	mov    ebx,DWORD PTR [rsp+0x14]
    8a0a:	jmp    88b8 <hvm_summary.part.19+0x1e8>
    8a0f:	nop
    8a10:	test   rsi,rsi
    8a13:	js     8a70 <hvm_summary.part.19+0x3a0>
    8a15:	pxor   xmm0,xmm0
    8a19:	cvtsi2sd xmm0,rsi
    8a1e:	pxor   xmm1,xmm1
    8a22:	mov    rdx,r14
    8a25:	mov    edi,0x1
    8a2a:	mov    eax,0x1
    8a2f:	cvtsi2sd xmm1,QWORD PTR [rip+0x22678]        # 2b0b0 <opt+0x10>
    8a38:	lea    rsi,[rip+0x15796]        # 1e1d5 <_IO_stdin_used+0x1d5>
    8a3f:	divsd  xmm0,xmm1
    8a43:	call   5200 <__printf_chk@plt>
    8a48:	jmp    89ee <hvm_summary.part.19+0x31e>
    8a4a:	nop    WORD PTR [rax+rax*1+0x0]
    8a50:	mov    rsi,rdx
    8a53:	and    edx,0x1
    8a56:	pxor   xmm0,xmm0
    8a5a:	shr    rsi,1
    8a5d:	or     rsi,rdx
    8a60:	cvtsi2sd xmm0,rsi
    8a65:	addsd  xmm0,xmm0
    8a69:	jmp    89bb <hvm_summary.part.19+0x2eb>
    8a6e:	xchg   ax,ax
    8a70:	mov    rax,rsi
    8a73:	and    esi,0x1
    8a76:	pxor   xmm0,xmm0
    8a7a:	shr    rax,1
    8a7d:	or     rax,rsi
    8a80:	cvtsi2sd xmm0,rax
    8a85:	addsd  xmm0,xmm0
    8a89:	jmp    8a1e <hvm_summary.part.19+0x34e>
    8a8b:	nop    DWORD PTR [rax+rax*1+0x0]
    8a90:	test   ecx,ecx
    8a92:	je     8866 <hvm_summary.part.19+0x196>
    8a98:	mov    ebx,DWORD PTR [rip+0x2263a]        # 2b0d8 <opt+0x38>
    8a9e:	test   ebx,ebx
    8aa0:	je     8dbc <hvm_summary.part.19+0x6ec>
    8aa6:	mov    r15d,DWORD PTR [r12+0x4]
    8aab:	cmp    DWORD PTR [r12+0x8],r15d
    8ab0:	cmovle r15d,DWORD PTR [r12+0x8]
    8ab6:	test   r15d,r15d
    8ab9:	je     8ec3 <hvm_summary.part.19+0x7f3>
    8abf:	mov    rdi,QWORD PTR [r12+0x18]
    8ac4:	mov    esi,r15d
    8ac7:	mov    edx,0x32
    8acc:	mov    DWORD PTR [rsp],ebp
    8acf:	call   57f0 <percentile.part.6>
    8ad4:	mov    rdi,QWORD PTR [r12+0x18]
    8ad9:	mov    esi,r15d
    8adc:	mov    edx,0x5
    8ae1:	mov    r14,rax
    8ae4:	call   57f0 <percentile.part.6>
    8ae9:	mov    rdi,QWORD PTR [r12+0x18]
    8aee:	mov    esi,r15d
    8af1:	mov    edx,0x5f
    8af6:	mov    rbx,rax
    8af9:	call   57f0 <percentile.part.6>
    8afe:	mov    r9d,DWORD PTR [rsp]
    8b02:	mov    r15,rax
    8b05:	lea    rsi,[rip+0x156ae]        # 1e1ba <_IO_stdin_used+0x1ba>
    8b0c:	mov    edx,r9d
    8b0f:	mov    edi,0x1
    8b14:	xor    eax,eax
    8b16:	call   5200 <__printf_chk@plt>
    8b1b:	mov    eax,DWORD PTR [r12+0x4]
    8b20:	mov    rsi,QWORD PTR [r12+0x10]
    8b25:	test   eax,eax
    8b27:	jne    87e5 <hvm_summary.part.19+0x115>
    8b2d:	xor    ecx,ecx
    8b2f:	jmp    87f3 <hvm_summary.part.19+0x123>
    8b34:	nop    DWORD PTR [rax+0x0]
    8b38:	mov    rax,rsi
    8b3b:	and    esi,0x1
    8b3e:	pxor   xmm0,xmm0
    8b42:	shr    rax,1
    8b45:	or     rax,rsi
    8b48:	cvtsi2sd xmm0,rax
    8b4d:	addsd  xmm0,xmm0
    8b51:	jmp    882b <hvm_summary.part.19+0x15b>
    8b56:	mov    r13,QWORD PTR [rsp+0x18]
    8b5b:	mov    ecx,DWORD PTR [r13+0x27e08]
    8b62:	test   ecx,ecx
    8b64:	jne    8ea6 <hvm_summary.part.19+0x7d6>
    8b6a:	test   BYTE PTR [rip+0x22530],0x10        # 2b0a1 <opt+0x1>
    8b71:	jne    8e21 <hvm_summary.part.19+0x751>
    8b77:	mov    esi,DWORD PTR [r13+0x27f00]
    8b7e:	test   esi,esi
    8b80:	je     8c8b <hvm_summary.part.19+0x5bb>
    8b86:	mov    ecx,DWORD PTR [rip+0x2254c]        # 2b0d8 <opt+0x38>
    8b8c:	test   ecx,ecx
    8b8e:	je     8f01 <hvm_summary.part.19+0x831>
    8b94:	mov    ebx,DWORD PTR [r13+0x27f04]
    8b9b:	cmp    DWORD PTR [r13+0x27f08],ebx
    8ba2:	cmovle ebx,DWORD PTR [r13+0x27f08]
    8baa:	test   ebx,ebx
    8bac:	je     8f88 <hvm_summary.part.19+0x8b8>
    8bb2:	mov    rdi,QWORD PTR [r13+0x27f18]
    8bb9:	mov    esi,ebx
    8bbb:	mov    edx,0x32
    8bc0:	call   57f0 <percentile.part.6>
    8bc5:	mov    rdi,QWORD PTR [r13+0x27f18]
    8bcc:	mov    esi,ebx
    8bce:	mov    edx,0x5
    8bd3:	mov    r12,rax
    8bd6:	call   57f0 <percentile.part.6>
    8bdb:	mov    rdi,QWORD PTR [r13+0x27f18]
    8be2:	mov    esi,ebx
    8be4:	mov    edx,0x5f
    8be9:	mov    rbp,rax
    8bec:	call   57f0 <percentile.part.6>
    8bf1:	mov    rbx,rax
    8bf4:	lea    rdi,[rip+0x15627]        # 1e222 <_IO_stdin_used+0x222>
    8bfb:	call   5090 <puts@plt>
    8c00:	mov    eax,DWORD PTR [r13+0x27f04]
    8c07:	mov    rsi,QWORD PTR [r13+0x27f10]
    8c0e:	xor    ecx,ecx
    8c10:	test   eax,eax
    8c12:	jne    8ed0 <hvm_summary.part.19+0x800>
    8c18:	lea    rdx,[rsi+rsi*4]
    8c1c:	pxor   xmm1,xmm1
    8c20:	pxor   xmm0,xmm0
    8c24:	cvtsi2sd xmm0,QWORD PTR [rip+0x265a3]        # 2f1d0 <P+0x30>
    8c2d:	lea    rdx,[rdx+rdx*4]
    8c31:	shl    rdx,0x2
    8c35:	cvtsi2sd xmm1,rdx
    8c3a:	divsd  xmm1,xmm0
    8c3e:	test   rsi,rsi
    8c41:	js     8ee3 <hvm_summary.part.19+0x813>
    8c47:	pxor   xmm0,xmm0
    8c4b:	cvtsi2sd xmm0,rsi
    8c50:	pxor   xmm2,xmm2
    8c54:	sub    rsp,0x8
    8c58:	mov    r9,r12
    8c5b:	mov    r8,rbp
    8c5e:	cvtsi2sd xmm2,QWORD PTR [rip+0x22449]        # 2b0b0 <opt+0x10>
    8c67:	mov    edi,0x1
    8c6c:	mov    eax,0x2
    8c71:	mov    edx,DWORD PTR [r13+0x27f00]
    8c78:	push   rbx
    8c79:	lea    rsi,[rip+0x17b98]        # 20818 <_IO_stdin_used+0x2818>
    8c80:	divsd  xmm0,xmm2
    8c84:	call   5200 <__printf_chk@plt>
    8c89:	pop    rax
    8c8a:	pop    rdx
    8c8b:	xor    ebx,ebx
    8c8d:	lea    rbp,[rip+0x1559b]        # 1e22f <_IO_stdin_used+0x22f>
    8c94:	jmp    8cad <hvm_summary.part.19+0x5dd>
    8c96:	nop    WORD PTR cs:[rax+rax*1+0x0]
    8ca0:	add    rbx,0x1
    8ca4:	cmp    rbx,0x100
    8cab:	je     8cd7 <hvm_summary.part.19+0x607>
    8cad:	mov    ecx,DWORD PTR [r13+rbx*4+0x27f38]
    8cb5:	test   ecx,ecx
    8cb7:	je     8ca0 <hvm_summary.part.19+0x5d0>
    8cb9:	mov    edx,ebx
    8cbb:	mov    rsi,rbp
    8cbe:	mov    edi,0x1
    8cc3:	xor    eax,eax
    8cc5:	call   5200 <__printf_chk@plt>
    8cca:	add    rbx,0x1
    8cce:	cmp    rbx,0x100
    8cd5:	jne    8cad <hvm_summary.part.19+0x5dd>
    8cd7:	mov    rdi,QWORD PTR [r13+0x28340]
    8cde:	test   rdi,rdi
    8ce1:	je     8cef <hvm_summary.part.19+0x61f>
    8ce3:	lea    rsi,[rip+0x15557]        # 1e241 <_IO_stdin_used+0x241>
    8cea:	call   7440 <hvm_io_address_summary.part.14>
    8cef:	mov    rdi,QWORD PTR [r13+0x28338]
    8cf6:	test   rdi,rdi
    8cf9:	je     8d07 <hvm_summary.part.19+0x637>
    8cfb:	lea    rsi,[rip+0x1553d]        # 1e23f <_IO_stdin_used+0x23f>
    8d02:	call   7440 <hvm_io_address_summary.part.14>
    8d07:	mov    rax,QWORD PTR [rsp+0x78]
    8d0c:	xor    rax,QWORD PTR fs:0x28
    8d15:	jne    8fbc <hvm_summary.part.19+0x8ec>
    8d1b:	add    rsp,0x88
    8d22:	pop    rbx
    8d23:	pop    rbp
    8d24:	pop    r12
    8d26:	pop    r13
    8d28:	pop    r14
    8d2a:	pop    r15
    8d2c:	ret    
    8d2d:	lea    rsi,[rip+0x1547e]        # 1e1b2 <_IO_stdin_used+0x1b2>
    8d34:	mov    edi,0x1
    8d39:	xor    eax,eax
    8d3b:	call   5200 <__printf_chk@plt>
    8d40:	mov    eax,DWORD PTR [r12+0x4]
    8d45:	mov    rsi,QWORD PTR [r12+0x10]
    8d4a:	test   eax,eax
    8d4c:	jne    8de3 <hvm_summary.part.19+0x713>
    8d52:	xor    ecx,ecx
    8d54:	lea    rdx,[rsi+rsi*4]
    8d58:	pxor   xmm1,xmm1
    8d5c:	pxor   xmm0,xmm0
    8d60:	cvtsi2sd xmm0,QWORD PTR [rip+0x26467]        # 2f1d0 <P+0x30>
    8d69:	lea    rdx,[rdx+rdx*4]
    8d6d:	shl    rdx,0x2
    8d71:	cvtsi2sd xmm1,rdx
    8d76:	divsd  xmm1,xmm0
    8d7a:	test   rsi,rsi
    8d7d:	js     8e03 <hvm_summary.part.19+0x733>
    8d83:	pxor   xmm0,xmm0
    8d87:	cvtsi2sd xmm0,rsi
    8d8c:	pxor   xmm2,xmm2
    8d90:	mov    edx,DWORD PTR [r12]
    8d94:	mov    edi,0x1
    8d99:	lea    rsi,[rip+0x17ab0]        # 20850 <_IO_stdin_used+0x2850>
    8da0:	cvtsi2sd xmm2,QWORD PTR [rip+0x22307]        # 2b0b0 <opt+0x10>
    8da9:	mov    eax,0x2
    8dae:	divsd  xmm0,xmm2
    8db2:	call   5200 <__printf_chk@plt>
    8db7:	jmp    8866 <hvm_summary.part.19+0x196>
    8dbc:	lea    rsi,[rip+0x153f7]        # 1e1ba <_IO_stdin_used+0x1ba>
    8dc3:	mov    edx,ebp
    8dc5:	mov    edi,0x1
    8dca:	xor    eax,eax
    8dcc:	call   5200 <__printf_chk@plt>
    8dd1:	mov    eax,DWORD PTR [r12+0x4]
    8dd6:	mov    rsi,QWORD PTR [r12+0x10]
    8ddb:	test   eax,eax
    8ddd:	je     8d52 <hvm_summary.part.19+0x682>
    8de3:	movsxd rcx,eax
    8de6:	xor    edx,edx
    8de8:	mov    rax,rsi
    8deb:	div    rcx
    8dee:	mov    rcx,rax
    8df1:	jmp    8d54 <hvm_summary.part.19+0x684>
    8df6:	xor    r15d,r15d
    8df9:	xor    ebx,ebx
    8dfb:	xor    r14d,r14d
    8dfe:	jmp    87bc <hvm_summary.part.19+0xec>
    8e03:	mov    rax,rsi
    8e06:	and    esi,0x1
    8e09:	pxor   xmm0,xmm0
    8e0d:	shr    rax,1
    8e10:	or     rax,rsi
    8e13:	cvtsi2sd xmm0,rax
    8e18:	addsd  xmm0,xmm0
    8e1c:	jmp    8d8c <hvm_summary.part.19+0x6bc>
    8e21:	xor    edx,edx
    8e23:	lea    rdi,[rip+0x153ce]        # 1e1f8 <_IO_stdin_used+0x1f8>
    8e2a:	movabs rax,0x1000000000000
    8e34:	div    QWORD PTR [rip+0x2228d]        # 2b0c8 <opt+0x28>
    8e3b:	mov    rbx,rax
    8e3e:	call   5090 <puts@plt>
    8e43:	test   ebx,ebx
    8e45:	je     8b77 <hvm_summary.part.19+0x4a7>
    8e4b:	lea    r14d,[rbx-0x1]
    8e4f:	lea    r12,[rip+0x153bb]        # 1e211 <_IO_stdin_used+0x211>
    8e56:	xor    ebx,ebx
    8e58:	jmp    8e6c <hvm_summary.part.19+0x79c>
    8e5a:	nop    WORD PTR [rax+rax*1+0x0]
    8e60:	cmp    r14,rbx
    8e63:	je     8b77 <hvm_summary.part.19+0x4a7>
    8e69:	mov    rbx,rbp
    8e6c:	mov    rax,QWORD PTR [r13+0x10470]
    8e73:	lea    rbp,[rbx+0x1]
    8e77:	mov    r8d,DWORD PTR [rax+rbx*4]
    8e7b:	test   r8d,r8d
    8e7e:	je     8e60 <hvm_summary.part.19+0x790>
    8e80:	mov    rax,QWORD PTR [rip+0x22241]        # 2b0c8 <opt+0x28>
    8e87:	mov    rdx,rbp
    8e8a:	mov    rsi,r12
    8e8d:	mov    edi,0x1
    8e92:	imul   rdx,rax
    8e96:	lea    rcx,[rdx-0x1]
    8e9a:	sub    rdx,rax
    8e9d:	xor    eax,eax
    8e9f:	call   5200 <__printf_chk@plt>
    8ea4:	jmp    8e60 <hvm_summary.part.19+0x790>
    8ea6:	mov    edx,0x15e
    8eab:	lea    rsi,[rip+0x1533a]        # 1e1ec <_IO_stdin_used+0x1ec>
    8eb2:	mov    edi,0x1
    8eb7:	xor    eax,eax
    8eb9:	call   5200 <__printf_chk@plt>
    8ebe:	jmp    8b6a <hvm_summary.part.19+0x49a>
    8ec3:	xor    r15d,r15d
    8ec6:	xor    ebx,ebx
    8ec8:	xor    r14d,r14d
    8ecb:	jmp    8b05 <hvm_summary.part.19+0x435>
    8ed0:	movsxd rcx,eax
    8ed3:	xor    edx,edx
    8ed5:	mov    rax,rsi
    8ed8:	div    rcx
    8edb:	mov    rcx,rax
    8ede:	jmp    8c18 <hvm_summary.part.19+0x548>
    8ee3:	mov    rdx,rsi
    8ee6:	and    esi,0x1
    8ee9:	pxor   xmm0,xmm0
    8eed:	shr    rdx,1
    8ef0:	or     rdx,rsi
    8ef3:	cvtsi2sd xmm0,rdx
    8ef8:	addsd  xmm0,xmm0
    8efc:	jmp    8c50 <hvm_summary.part.19+0x580>
    8f01:	lea    rdi,[rip+0x1531a]        # 1e222 <_IO_stdin_used+0x222>
    8f08:	call   5090 <puts@plt>
    8f0d:	movsxd rcx,DWORD PTR [r13+0x27f04]
    8f14:	mov    rsi,QWORD PTR [r13+0x27f10]
    8f1b:	test   ecx,ecx
    8f1d:	jne    8f94 <hvm_summary.part.19+0x8c4>
    8f1f:	xor    ecx,ecx
    8f21:	lea    rax,[rsi+rsi*4]
    8f25:	pxor   xmm1,xmm1
    8f29:	pxor   xmm0,xmm0
    8f2d:	cvtsi2sd xmm0,QWORD PTR [rip+0x2629a]        # 2f1d0 <P+0x30>
    8f36:	lea    rdx,[rax+rax*4]
    8f3a:	shl    rdx,0x2
    8f3e:	cvtsi2sd xmm1,rdx
    8f43:	divsd  xmm1,xmm0
    8f47:	test   rsi,rsi
    8f4a:	js     8fa1 <hvm_summary.part.19+0x8d1>
    8f4c:	pxor   xmm0,xmm0
    8f50:	cvtsi2sd xmm0,rsi
    8f55:	pxor   xmm2,xmm2
    8f59:	mov    edi,0x1
    8f5e:	mov    eax,0x2
    8f63:	mov    edx,DWORD PTR [r13+0x27f00]
    8f6a:	cvtsi2sd xmm2,QWORD PTR [rip+0x2213d]        # 2b0b0 <opt+0x10>
    8f73:	lea    rsi,[rip+0x178d6]        # 20850 <_IO_stdin_used+0x2850>
    8f7a:	divsd  xmm0,xmm2
    8f7e:	call   5200 <__printf_chk@plt>
    8f83:	jmp    8c8b <hvm_summary.part.19+0x5bb>
    8f88:	xor    ebx,ebx
    8f8a:	xor    ebp,ebp
    8f8c:	xor    r12d,r12d
    8f8f:	jmp    8bf4 <hvm_summary.part.19+0x524>
    8f94:	mov    rax,rsi
    8f97:	xor    edx,edx
    8f99:	div    rcx
    8f9c:	mov    rcx,rax
    8f9f:	jmp    8f21 <hvm_summary.part.19+0x851>
    8fa1:	mov    rdx,rsi
    8fa4:	and    esi,0x1
    8fa7:	pxor   xmm0,xmm0
    8fab:	shr    rdx,1
    8fae:	or     rdx,rsi
    8fb1:	cvtsi2sd xmm0,rdx
    8fb6:	addsd  xmm0,xmm0
    8fba:	jmp    8f55 <hvm_summary.part.19+0x885>
    8fbc:	call   50d0 <__stack_chk_fail@plt>
    8fc1:	data16 nop WORD PTR cs:[rax+rax*1+0x0]
    8fcc:	nop    DWORD PTR [rax+0x0]

0000000000008fd0 <__interval_cycle_percent_output>:
    8fd0:	push   rbx
    8fd1:	mov    rax,QWORD PTR [rdi+0x8]
    8fd5:	pxor   xmm0,xmm0
    8fd9:	pxor   xmm1,xmm1
    8fdd:	cvtsi2sd xmm1,rsi
    8fe2:	mov    rbx,rdi
    8fe5:	lea    rsi,[rip+0x15269]        # 1e255 <_IO_stdin_used+0x255>
    8fec:	mov    edi,0x1
    8ff1:	lea    rax,[rax+rax*4]
    8ff5:	lea    rax,[rax+rax*4]
    8ff9:	shl    rax,0x2
    8ffd:	cvtsi2sd xmm0,rax
    9002:	mov    eax,0x1
    9007:	divsd  xmm0,xmm1
    900b:	call   5200 <__printf_chk@plt>
    9010:	mov    QWORD PTR [rbx+0x8],0x0
    9018:	mov    DWORD PTR [rbx],0x0
    901e:	mov    QWORD PTR [rbx+0x10],0x0
    9026:	pop    rbx
    9027:	ret    
    9028:	nop    DWORD PTR [rax+rax*1+0x0]

0000000000009030 <interval_cycle_percent_output>:
    9030:	push   rbx
    9031:	mov    rax,QWORD PTR [rdi+0x8]
    9035:	pxor   xmm0,xmm0
    9039:	pxor   xmm1,xmm1
    903d:	cvtsi2sd xmm1,QWORD PTR [rip+0x220a2]        # 2b0e8 <opt+0x48>
    9046:	mov    rbx,rdi
    9049:	lea    rsi,[rip+0x15205]        # 1e255 <_IO_stdin_used+0x255>
    9050:	mov    edi,0x1
    9055:	lea    rax,[rax+rax*4]
    9059:	lea    rax,[rax+rax*4]
    905d:	shl    rax,0x2
    9061:	cvtsi2sd xmm0,rax
    9066:	mov    eax,0x1
    906b:	divsd  xmm0,xmm1
    906f:	call   5200 <__printf_chk@plt>
    9074:	mov    QWORD PTR [rbx+0x8],0x0
    907c:	mov    DWORD PTR [rbx],0x0
    9082:	mov    QWORD PTR [rbx+0x10],0x0
    908a:	pop    rbx
    908b:	ret    
    908c:	nop    DWORD PTR [rax+0x0]

0000000000009090 <interval_time_output>:
    9090:	mov    rax,QWORD PTR [rip+0x5e161]        # 671f8 <P+0x38058>
    9097:	mov    rdx,QWORD PTR [rip+0x26122]        # 2f1c0 <P+0x20>
    909e:	cmp    rax,rdx
    90a1:	jbe    90f8 <interval_time_output+0x68>
    90a3:	sub    rax,rdx
    90a6:	xor    edx,edx
    90a8:	mov    rcx,rax
    90ab:	shl    rcx,0xa
    90af:	mov    rax,rcx
    90b2:	div    QWORD PTR [rip+0x21fef]        # 2b0a8 <opt+0x8>
    90b9:	movabs rdx,0x44b82fa09b5a53
    90c3:	mov    rcx,rax
    90c6:	shr    rax,0x9
    90ca:	mul    rdx
    90cd:	mov    rax,rdx
    90d0:	shr    rax,0xb
    90d4:	mov    edx,eax
    90d6:	imul   eax,eax,0x3b9aca00
    90dc:	sub    ecx,eax
    90de:	lea    rsi,[rip+0x15178]        # 1e25d <_IO_stdin_used+0x25d>
    90e5:	mov    edi,0x1
    90ea:	xor    eax,eax
    90ec:	jmp    5200 <__printf_chk@plt>
    90f1:	nop    DWORD PTR [rax+0x0]
    90f8:	xor    ecx,ecx
    90fa:	xor    edx,edx
    90fc:	jmp    90de <interval_time_output+0x4e>
    90fe:	xchg   ax,ax

0000000000009100 <interval_table_output>:
    9100:	push   rbp
    9101:	push   rbx
    9102:	sub    rsp,0x8
    9106:	call   9090 <interval_time_output>
    910b:	mov    eax,DWORD PTR [rip+0x21fe7]        # 2b0f8 <opt+0x58>
    9111:	cmp    eax,0x1
    9114:	je     9158 <interval_table_output+0x58>
    9116:	cmp    eax,0x2
    9119:	je     9130 <interval_table_output+0x30>
    911b:	add    rsp,0x8
    911f:	mov    edi,0xa
    9124:	pop    rbx
    9125:	pop    rbp
    9126:	jmp    5050 <putchar@plt>
    912b:	nop    DWORD PTR [rax+rax*1+0x0]
    9130:	mov    rbx,QWORD PTR [rip+0x5e0c9]        # 67200 <P+0x38060>
    9137:	test   rbx,rbx
    913a:	je     911b <interval_table_output+0x1b>
    913c:	nop    DWORD PTR [rax+0x0]
    9140:	mov    rdi,QWORD PTR [rbx]
    9143:	call   9030 <interval_cycle_percent_output>
    9148:	mov    rbx,QWORD PTR [rbx+0x8]
    914c:	test   rbx,rbx
    914f:	jne    9140 <interval_table_output+0x40>
    9151:	jmp    911b <interval_table_output+0x1b>
    9153:	nop    DWORD PTR [rax+rax*1+0x0]
    9158:	mov    eax,DWORD PTR [rip+0x5e0aa]        # 67208 <P+0x38068>
    915e:	test   eax,eax
    9160:	jle    911b <interval_table_output+0x1b>
    9162:	xor    ebx,ebx
    9164:	lea    rbp,[rip+0x150fa]        # 1e265 <_IO_stdin_used+0x265>
    916b:	jmp    9181 <interval_table_output+0x81>
    916d:	nop    DWORD PTR [rax]
    9170:	call   9030 <interval_cycle_percent_output>
    9175:	add    rbx,0x1
    9179:	cmp    DWORD PTR [rip+0x5e089],ebx        # 67208 <P+0x38068>
    917f:	jle    911b <interval_table_output+0x1b>
    9181:	mov    rax,QWORD PTR [rip+0x5e078]        # 67200 <P+0x38060>
    9188:	mov    rdi,QWORD PTR [rax+rbx*8]
    918c:	test   rdi,rdi
    918f:	jne    9170 <interval_table_output+0x70>
    9191:	mov    rsi,rbp
    9194:	mov    edi,0x1
    9199:	xor    eax,eax
    919b:	call   5200 <__printf_chk@plt>
    91a0:	jmp    9175 <interval_table_output+0x75>
    91a2:	data16 nop WORD PTR cs:[rax+rax*1+0x0]
    91ad:	nop    DWORD PTR [rax]

00000000000091b0 <interval_table_tail>:
    91b0:	push   rbp
    91b1:	lea    rsi,[rip+0x16112]        # 1f2ca <_IO_stdin_used+0x12ca>
    91b8:	mov    edi,0x1
    91bd:	xor    eax,eax
    91bf:	push   rbx
    91c0:	sub    rsp,0x8
    91c4:	call   5200 <__printf_chk@plt>
    91c9:	mov    rbx,QWORD PTR [rip+0x5e030]        # 67200 <P+0x38060>
    91d0:	test   rbx,rbx
    91d3:	je     91fc <interval_table_tail+0x4c>
    91d5:	lea    rbp,[rip+0x14ff5]        # 1e1d1 <_IO_stdin_used+0x1d1>
    91dc:	nop    DWORD PTR [rax+0x0]
    91e0:	lea    rdx,[rbx+0x10]
    91e4:	mov    rsi,rbp
    91e7:	mov    edi,0x1
    91ec:	xor    eax,eax
    91ee:	call   5200 <__printf_chk@plt>
    91f3:	mov    rbx,QWORD PTR [rbx+0x8]
    91f7:	test   rbx,rbx
    91fa:	jne    91e0 <interval_table_tail+0x30>
    91fc:	add    rsp,0x8
    9200:	mov    edi,0xa
    9205:	pop    rbx
    9206:	pop    rbp
    9207:	jmp    5050 <putchar@plt>
    920c:	nop    DWORD PTR [rax+0x0]

0000000000009210 <interval_table_alloc>:
    9210:	push   rbx
    9211:	mov    DWORD PTR [rip+0x5dff1],edi        # 67208 <P+0x38068>
    9217:	movsxd rdi,edi
    921a:	lea    rbx,[rdi*8+0x0]
    9222:	mov    rdi,rbx
    9225:	call   51a0 <malloc@plt>
    922a:	mov    QWORD PTR [rip+0x5dfcf],rax        # 67200 <P+0x38060>
    9231:	test   rax,rax
    9234:	je     9248 <interval_table_alloc+0x38>
    9236:	mov    rdx,rbx
    9239:	xor    esi,esi
    923b:	mov    rdi,rax
    923e:	pop    rbx
    923f:	jmp    5130 <memset@plt>
    9244:	nop    DWORD PTR [rax+0x0]
    9248:	mov    rcx,QWORD PTR [rip+0x251f1]        # 2e440 <stderr@@GLIBC_2.2.5>
    924f:	mov    edx,0xf
    9254:	mov    esi,0x1
    9259:	lea    rdi,[rip+0x15122]        # 1e382 <_IO_stdin_used+0x382>
    9260:	call   5260 <fwrite@plt>
    9265:	cmp    DWORD PTR [rip+0x21e74],0x7        # 2b0e0 <opt+0x40>
    926c:	jbe    9283 <interval_table_alloc+0x73>
    926e:	mov    rax,QWORD PTR [rip+0x5df8b]        # 67200 <P+0x38060>
    9275:	mov    rdx,rbx
    9278:	xor    esi,esi
    927a:	pop    rbx
    927b:	mov    rdi,rax
    927e:	jmp    5130 <memset@plt>
    9283:	mov    edi,0x1
    9288:	call   5250 <exit@plt>
    928d:	nop    DWORD PTR [rax]

0000000000009290 <interval_list_add>:
    9290:	push   r12
    9292:	mov    r12,rdi
    9295:	mov    rdi,QWORD PTR [rip+0x5dfbc]        # 67258 <warn>
    929c:	mov    r8,rsi
    929f:	push   rbp
    92a0:	lea    rcx,[rip+0x1b5c9]        # 24870 <__func__.5963>
    92a7:	mov    rbp,rsi
    92aa:	xor    eax,eax
    92ac:	push   rbx
    92ad:	lea    rdx,[rip+0x14fb6]        # 1e26a <_IO_stdin_used+0x26a>
    92b4:	mov    esi,0x1
    92b9:	call   5270 <__fprintf_chk@plt>
    92be:	mov    edi,0x30
    92c3:	call   51a0 <malloc@plt>
    92c8:	mov    rbx,rax
    92cb:	test   rax,rax
    92ce:	je     9320 <interval_list_add+0x90>
    92d0:	pxor   xmm0,xmm0
    92d4:	lea    rdi,[rbx+0x10]
    92d8:	mov    edx,0x1f
    92dd:	mov    rsi,rbp
    92e0:	movups XMMWORD PTR [rbx+0x10],xmm0
    92e4:	movups XMMWORD PTR [rdi+0x10],xmm0
    92e8:	mov    QWORD PTR [rbx],r12
    92eb:	call   5070 <strncpy@plt>
    92f0:	cmp    QWORD PTR [rip+0x5df08],0x0        # 67200 <P+0x38060>
    92f8:	mov    QWORD PTR [rbx+0x8],0x0
    9300:	je     9350 <interval_list_add+0xc0>
    9302:	mov    rax,QWORD PTR [rip+0x5deff]        # 67208 <P+0x38068>
    9309:	mov    QWORD PTR [rax],rbx
    930c:	add    rbx,0x8
    9310:	mov    QWORD PTR [rip+0x5def1],rbx        # 67208 <P+0x38068>
    9317:	pop    rbx
    9318:	pop    rbp
    9319:	pop    r12
    931b:	ret    
    931c:	nop    DWORD PTR [rax+0x0]
    9320:	mov    rcx,QWORD PTR [rip+0x25119]        # 2e440 <stderr@@GLIBC_2.2.5>
    9327:	mov    edx,0x11
    932c:	mov    esi,0x1
    9331:	lea    rdi,[rip+0x14f4b]        # 1e283 <_IO_stdin_used+0x283>
    9338:	call   5260 <fwrite@plt>
    933d:	cmp    DWORD PTR [rip+0x21d9c],0x7        # 2b0e0 <opt+0x40>
    9344:	ja     92d0 <interval_list_add+0x40>
    9346:	mov    edi,0x1
    934b:	call   5250 <exit@plt>
    9350:	mov    QWORD PTR [rip+0x5dea9],rbx        # 67200 <P+0x38060>
    9357:	add    rbx,0x8
    935b:	mov    QWORD PTR [rip+0x5dea6],rbx        # 67208 <P+0x38068>
    9362:	pop    rbx
    9363:	pop    rbp
    9364:	pop    r12
    9366:	ret    
    9367:	nop    WORD PTR [rax+rax*1+0x0]

0000000000009370 <interval_cr3_schedule_time_header>:
    9370:	cmp    DWORD PTR [rip+0x21d81],0x1        # 2b0f8 <opt+0x58>
    9377:	je     9380 <interval_cr3_schedule_time_header+0x10>
    9379:	ret    
    937a:	nop    WORD PTR [rax+rax*1+0x0]
    9380:	push   rbp
    9381:	lea    rsi,[rip+0x15f42]        # 1f2ca <_IO_stdin_used+0x12ca>
    9388:	mov    edi,0x1
    938d:	xor    eax,eax
    938f:	push   rbx
    9390:	sub    rsp,0x8
    9394:	call   5200 <__printf_chk@plt>
    9399:	mov    eax,DWORD PTR [rip+0x21d69]        # 2b108 <opt+0x68>
    939f:	test   eax,eax
    93a1:	jle    93d6 <interval_cr3_schedule_time_header+0x66>
    93a3:	xor    ebx,ebx
    93a5:	lea    rbp,[rip+0x14ffe]        # 1e3aa <_IO_stdin_used+0x3aa>
    93ac:	nop    DWORD PTR [rax+0x0]
    93b0:	mov    rax,QWORD PTR [rip+0x21d49]        # 2b100 <opt+0x60>
    93b7:	mov    rsi,rbp
    93ba:	mov    edi,0x1
    93bf:	mov    rdx,QWORD PTR [rax+rbx*8]
    93c3:	xor    eax,eax
    93c5:	add    rbx,0x1
    93c9:	call   5200 <__printf_chk@plt>
    93ce:	cmp    DWORD PTR [rip+0x21d34],ebx        # 2b108 <opt+0x68>
    93d4:	jg     93b0 <interval_cr3_schedule_time_header+0x40>
    93d6:	add    rsp,0x8
    93da:	mov    edi,0xa
    93df:	pop    rbx
    93e0:	pop    rbp
    93e1:	jmp    5050 <putchar@plt>
    93e6:	nop    WORD PTR cs:[rax+rax*1+0x0]

00000000000093f0 <interval_cr3_value_check>:
    93f0:	push   r13
    93f2:	push   r12
    93f4:	push   rbp
    93f5:	mov    rbp,rdi
    93f8:	push   rbx
    93f9:	sub    rsp,0x38
    93fd:	mov    rax,QWORD PTR fs:0x28
    9406:	mov    QWORD PTR [rsp+0x28],rax
    940b:	xor    eax,eax
    940d:	mov    eax,DWORD PTR [rip+0x21ce5]        # 2b0f8 <opt+0x58>
    9413:	cmp    eax,0x1
    9416:	je     9458 <interval_cr3_value_check+0x68>
    9418:	mov    r9,QWORD PTR [rdi+0x10]
    941c:	cmp    eax,0x2
    941f:	je     9518 <interval_cr3_value_check+0x128>
    9425:	mov    rax,QWORD PTR [rip+0x21cd4]        # 2b100 <opt+0x60>
    942c:	cmp    QWORD PTR [rax],r9
    942f:	je     9508 <interval_cr3_value_check+0x118>
    9435:	mov    rax,QWORD PTR [rsp+0x28]
    943a:	xor    rax,QWORD PTR fs:0x28
    9443:	jne    954c <interval_cr3_value_check+0x15c>
    9449:	add    rsp,0x38
    944d:	pop    rbx
    944e:	pop    rbp
    944f:	pop    r12
    9451:	pop    r13
    9453:	ret    
    9454:	nop    DWORD PTR [rax+0x0]
    9458:	mov    eax,DWORD PTR [rip+0x21caa]        # 2b108 <opt+0x68>
    945e:	xor    ebx,ebx
    9460:	lea    r13,[rdi+0x58]
    9464:	test   eax,eax
    9466:	jg     947c <interval_cr3_value_check+0x8c>
    9468:	jmp    9435 <interval_cr3_value_check+0x45>
    946a:	nop    WORD PTR [rax+rax*1+0x0]
    9470:	add    rbx,0x1
    9474:	cmp    DWORD PTR [rip+0x21c8e],ebx        # 2b108 <opt+0x68>
    947a:	jle    9435 <interval_cr3_value_check+0x45>
    947c:	mov    rax,QWORD PTR [rip+0x21c7d]        # 2b100 <opt+0x60>
    9483:	mov    r8,QWORD PTR [rbp+0x10]
    9487:	lea    r12,[rbx*8+0x0]
    948f:	cmp    r8,QWORD PTR [rax+rbx*8]
    9493:	jne    9470 <interval_cr3_value_check+0x80>
    9495:	mov    rax,QWORD PTR [rip+0x5dd64]        # 67200 <P+0x38060>
    949c:	mov    rdi,QWORD PTR [rip+0x24f9d]        # 2e440 <stderr@@GLIBC_2.2.5>
    94a3:	cmp    QWORD PTR [rax+rbx*8],0x0
    94a8:	je     94d8 <interval_cr3_value_check+0xe8>
    94aa:	xor    eax,eax
    94ac:	mov    rcx,r8
    94af:	mov    esi,0x1
    94b4:	lea    rdx,[rip+0x174ed]        # 209a8 <_IO_stdin_used+0x29a8>
    94bb:	call   5270 <__fprintf_chk@plt>
    94c0:	cmp    DWORD PTR [rip+0x21c19],0x6        # 2b0e0 <opt+0x40>
    94c7:	jbe    9551 <interval_cr3_value_check+0x161>
    94cd:	mov    r8,QWORD PTR [rbp+0x10]
    94d1:	mov    rdi,QWORD PTR [rip+0x24f68]        # 2e440 <stderr@@GLIBC_2.2.5>
    94d8:	lea    rcx,[rip+0x1b371]        # 24850 <__func__.5975>
    94df:	lea    rdx,[rip+0x14daf]        # 1e295 <_IO_stdin_used+0x295>
    94e6:	mov    esi,0x1
    94eb:	xor    eax,eax
    94ed:	call   5270 <__fprintf_chk@plt>
    94f2:	mov    rax,QWORD PTR [rip+0x5dd07]        # 67200 <P+0x38060>
    94f9:	mov    QWORD PTR [rax+r12*1],r13
    94fd:	jmp    9470 <interval_cr3_value_check+0x80>
    9502:	nop    WORD PTR [rax+rax*1+0x0]
    9508:	mov    QWORD PTR [rip+0x5dcf1],rdi        # 67200 <P+0x38060>
    950f:	jmp    9435 <interval_cr3_value_check+0x45>
    9514:	nop    DWORD PTR [rax+0x0]
    9518:	mov    rbx,rsp
    951b:	mov    ecx,0x20
    9520:	mov    edx,0x1
    9525:	xor    eax,eax
    9527:	mov    rdi,rbx
    952a:	lea    r8,[rip+0x14e7a]        # 1e3ab <_IO_stdin_used+0x3ab>
    9531:	mov    esi,0x20
    9536:	call   5030 <__snprintf_chk@plt>
    953b:	lea    rdi,[rbp+0x58]
    953f:	mov    rsi,rbx
    9542:	call   9290 <interval_list_add>
    9547:	jmp    9435 <interval_cr3_value_check+0x45>
    954c:	call   50d0 <__stack_chk_fail@plt>
    9551:	mov    edi,0x1
    9556:	call   5250 <exit@plt>
    955b:	nop    DWORD PTR [rax+rax*1+0x0]

0000000000009560 <interval_cr3_schedule_ordered_output>:
    9560:	push   r14
    9562:	push   r13
    9564:	push   r12
    9566:	push   rbp
    9567:	push   rbx
    9568:	mov    rbx,QWORD PTR [rip+0x5dc79]        # 671e8 <P+0x38048>
    956f:	test   rbx,rbx
    9572:	je     9670 <interval_cr3_schedule_ordered_output+0x110>
    9578:	mov    rax,rbx
    957b:	xor    r13d,r13d
    957e:	jmp    9583 <interval_cr3_schedule_ordered_output+0x23>
    9580:	movsxd r13,esi
    9583:	mov    rax,QWORD PTR [rax+0x8]
    9587:	lea    esi,[r13+0x1]
    958b:	test   rax,rax
    958e:	jne    9580 <interval_cr3_schedule_ordered_output+0x20>
    9590:	movsxd rbp,esi
    9593:	lea    rdi,[rbp*8+0x0]
    959b:	call   51a0 <malloc@plt>
    95a0:	mov    r12,rax
    95a3:	mov    r14,rax
    95a6:	mov    QWORD PTR [rax],rbx
    95a9:	mov    rbx,QWORD PTR [rbx+0x8]
    95ad:	add    rax,0x8
    95b1:	test   rbx,rbx
    95b4:	jne    95a6 <interval_cr3_schedule_ordered_output+0x46>
    95b6:	mov    rsi,rbp
    95b9:	mov    edx,0x8
    95be:	lea    rbp,[r12+r13*8+0x8]
    95c3:	mov    rdi,r12
    95c6:	lea    rcx,[rip+0xffffffffffffbf83]        # 5550 <cr3_time_compare>
    95cd:	lea    r13,[rip+0x14cd6]        # 1e2aa <_IO_stdin_used+0x2aa>
    95d4:	call   50a0 <qsort@plt>
    95d9:	call   9090 <interval_time_output>
    95de:	xchg   ax,ax
    95e0:	mov    rbx,QWORD PTR [r14]
    95e3:	mov    rax,QWORD PTR [rbx+0x60]
    95e7:	test   rax,rax
    95ea:	jle    963b <interval_cr3_schedule_ordered_output+0xdb>
    95ec:	lea    rax,[rax+rax*4]
    95f0:	mov    rdi,QWORD PTR [rbx+0x20]
    95f4:	pxor   xmm0,xmm0
    95f8:	pxor   xmm1,xmm1
    95fc:	cmp    QWORD PTR [rip+0x5dbf5],rdi        # 671f8 <P+0x38058>
    9603:	lea    rax,[rax+rax*4]
    9607:	mov    rdx,QWORD PTR [rbx+0x10]
    960b:	mov    rsi,r13
    960e:	cvtsi2sd xmm1,QWORD PTR [rip+0x21ad1]        # 2b0e8 <opt+0x48>
    9617:	sbb    ecx,ecx
    9619:	shl    rax,0x2
    961d:	mov    edi,0x1
    9622:	cvtsi2sd xmm0,rax
    9627:	and    ecx,0xa
    962a:	mov    eax,0x1
    962f:	add    ecx,0x20
    9632:	divsd  xmm0,xmm1
    9636:	call   5200 <__printf_chk@plt>
    963b:	add    r14,0x8
    963f:	mov    QWORD PTR [rbx+0x60],0x0
    9647:	mov    DWORD PTR [rbx+0x58],0x0
    964e:	mov    QWORD PTR [rbx+0x68],0x0
    9656:	cmp    r14,rbp
    9659:	jne    95e0 <interval_cr3_schedule_ordered_output+0x80>
    965b:	pop    rbx
    965c:	mov    rdi,r12
    965f:	pop    rbp
    9660:	pop    r12
    9662:	pop    r13
    9664:	pop    r14
    9666:	jmp    5040 <free@plt>
    966b:	nop    DWORD PTR [rax+rax*1+0x0]
    9670:	pop    rbx
    9671:	pop    rbp
    9672:	pop    r12
    9674:	pop    r13
    9676:	pop    r14
    9678:	ret    
    9679:	nop    DWORD PTR [rax+0x0]

0000000000009680 <interval_cr3_short_summary_header>:
    9680:	push   r12
    9682:	lea    rsi,[rip+0x14c34]        # 1e2bd <_IO_stdin_used+0x2bd>
    9689:	mov    edi,0x1
    968e:	xor    eax,eax
    9690:	push   rbp
    9691:	lea    rbp,[rip+0x14b39]        # 1e1d1 <_IO_stdin_used+0x1d1>
    9698:	push   rbx
    9699:	lea    rbx,[rip+0x21e60]        # 2b500 <hvm_short_summary_name>
    96a0:	lea    r12,[rbx+0x50]
    96a4:	call   5200 <__printf_chk@plt>
    96a9:	nop    DWORD PTR [rax+0x0]
    96b0:	mov    rdx,QWORD PTR [rbx]
    96b3:	mov    rsi,rbp
    96b6:	mov    edi,0x1
    96bb:	xor    eax,eax
    96bd:	add    rbx,0x8
    96c1:	call   5200 <__printf_chk@plt>
    96c6:	cmp    rbx,r12
    96c9:	jne    96b0 <interval_cr3_short_summary_header+0x30>
    96cb:	pop    rbx
    96cc:	mov    edi,0xa
    96d1:	pop    rbp
    96d2:	pop    r12
    96d4:	jmp    5050 <putchar@plt>
    96d9:	nop    DWORD PTR [rax+0x0]

00000000000096e0 <interval_cr3_short_summary_output>:
    96e0:	push   r13
    96e2:	push   r12
    96e4:	push   rbp
    96e5:	push   rbx
    96e6:	sub    rsp,0x8
    96ea:	mov    rbp,QWORD PTR [rip+0x5db0f]        # 67200 <P+0x38060>
    96f1:	test   rbp,rbp
    96f4:	je     97e0 <interval_cr3_short_summary_output+0x100>
    96fa:	call   9090 <interval_time_output>
    96ff:	mov    rax,QWORD PTR [rbp+0x60]
    9703:	pxor   xmm0,xmm0
    9707:	pxor   xmm1,xmm1
    970b:	cvtsi2sd xmm1,QWORD PTR [rip+0x219d4]        # 2b0e8 <opt+0x48>
    9714:	lea    rsi,[rip+0x14b3a]        # 1e255 <_IO_stdin_used+0x255>
    971b:	mov    edi,0x1
    9720:	lea    rax,[rax+rax*4]
    9724:	lea    rbx,[rbp+0x108]
    972b:	lea    rax,[rax+rax*4]
    972f:	lea    r13,[rbp+0x338]
    9736:	shl    rax,0x2
    973a:	lea    r12,[rip+0x14b14]        # 1e255 <_IO_stdin_used+0x255>
    9741:	cvtsi2sd xmm0,rax
    9746:	mov    eax,0x1
    974b:	divsd  xmm0,xmm1
    974f:	call   5200 <__printf_chk@plt>
    9754:	nop    DWORD PTR [rax+0x0]
    9758:	mov    rax,QWORD PTR [rbx+0x8]
    975c:	pxor   xmm0,xmm0
    9760:	pxor   xmm1,xmm1
    9764:	mov    rsi,r12
    9767:	cvtsi2sd xmm1,QWORD PTR [rbp+0x60]
    976d:	mov    edi,0x1
    9772:	add    rbx,0x38
    9776:	lea    rax,[rax+rax*4]
    977a:	lea    rax,[rax+rax*4]
    977e:	shl    rax,0x2
    9782:	cvtsi2sd xmm0,rax
    9787:	mov    eax,0x1
    978c:	divsd  xmm0,xmm1
    9790:	call   5200 <__printf_chk@plt>
    9795:	mov    QWORD PTR [rbx-0x30],0x0
    979d:	mov    DWORD PTR [rbx-0x38],0x0
    97a4:	mov    QWORD PTR [rbx-0x28],0x0
    97ac:	cmp    r13,rbx
    97af:	jne    9758 <interval_cr3_short_summary_output+0x78>
    97b1:	mov    QWORD PTR [rbp+0x60],0x0
    97b9:	mov    edi,0xa
    97be:	mov    DWORD PTR [rbp+0x58],0x0
    97c5:	mov    QWORD PTR [rbp+0x68],0x0
    97cd:	add    rsp,0x8
    97d1:	pop    rbx
    97d2:	pop    rbp
    97d3:	pop    r12
    97d5:	pop    r13
    97d7:	jmp    5050 <putchar@plt>
    97dc:	nop    DWORD PTR [rax+0x0]
    97e0:	add    rsp,0x8
    97e4:	pop    rbx
    97e5:	pop    rbp
    97e6:	pop    r12
    97e8:	pop    r13
    97ea:	ret    
    97eb:	nop    DWORD PTR [rax+rax*1+0x0]

00000000000097f0 <interval_domain_value_check>:
    97f0:	push   r13
    97f2:	push   r12
    97f4:	mov    r12,rdi
    97f7:	push   rbp
    97f8:	push   rbx
    97f9:	sub    rsp,0x38
    97fd:	mov    rax,QWORD PTR fs:0x28
    9806:	mov    QWORD PTR [rsp+0x28],rax
    980b:	xor    eax,eax
    980d:	mov    eax,DWORD PTR [rip+0x218e5]        # 2b0f8 <opt+0x58>
    9813:	cmp    eax,0x1
    9816:	je     9858 <interval_domain_value_check+0x68>
    9818:	movsxd r9,DWORD PTR [rdi+0x8]
    981c:	cmp    eax,0x2
    981f:	je     98f0 <interval_domain_value_check+0x100>
    9825:	mov    rax,QWORD PTR [rip+0x218d4]        # 2b100 <opt+0x60>
    982c:	cmp    r9,QWORD PTR [rax]
    982f:	je     98e0 <interval_domain_value_check+0xf0>
    9835:	mov    rax,QWORD PTR [rsp+0x28]
    983a:	xor    rax,QWORD PTR fs:0x28
    9843:	jne    9928 <interval_domain_value_check+0x138>
    9849:	add    rsp,0x38
    984d:	pop    rbx
    984e:	pop    rbp
    984f:	pop    r12
    9851:	pop    r13
    9853:	ret    
    9854:	nop    DWORD PTR [rax+0x0]
    9858:	mov    eax,DWORD PTR [rip+0x218aa]        # 2b108 <opt+0x68>
    985e:	xor    ebx,ebx
    9860:	lea    r13,[rdi+0x840]
    9867:	test   eax,eax
    9869:	jg     987c <interval_domain_value_check+0x8c>
    986b:	jmp    9835 <interval_domain_value_check+0x45>
    986d:	nop    DWORD PTR [rax]
    9870:	add    rbx,0x1
    9874:	cmp    DWORD PTR [rip+0x2188e],ebx        # 2b108 <opt+0x68>
    987a:	jle    9835 <interval_domain_value_check+0x45>
    987c:	movsxd rdx,DWORD PTR [r12+0x8]
    9881:	mov    rax,QWORD PTR [rip+0x21878]        # 2b100 <opt+0x60>
    9888:	lea    rbp,[rbx*8+0x0]
    9890:	mov    rcx,rdx
    9893:	cmp    rdx,QWORD PTR [rax+rbx*8]
    9897:	jne    9870 <interval_domain_value_check+0x80>
    9899:	mov    rax,QWORD PTR [rip+0x5d960]        # 67200 <P+0x38060>
    98a0:	add    rax,rbp
    98a3:	cmp    QWORD PTR [rax],0x0
    98a7:	je     98d6 <interval_domain_value_check+0xe6>
    98a9:	mov    rdi,QWORD PTR [rip+0x24b90]        # 2e440 <stderr@@GLIBC_2.2.5>
    98b0:	xor    eax,eax
    98b2:	mov    esi,0x1
    98b7:	lea    rdx,[rip+0x17112]        # 209d0 <_IO_stdin_used+0x29d0>
    98be:	call   5270 <__fprintf_chk@plt>
    98c3:	cmp    DWORD PTR [rip+0x21816],0x6        # 2b0e0 <opt+0x40>
    98ca:	jbe    992d <interval_domain_value_check+0x13d>
    98cc:	mov    rax,QWORD PTR [rip+0x5d92d]        # 67200 <P+0x38060>
    98d3:	add    rax,rbp
    98d6:	mov    QWORD PTR [rax],r13
    98d9:	jmp    9870 <interval_domain_value_check+0x80>
    98db:	nop    DWORD PTR [rax+rax*1+0x0]
    98e0:	mov    QWORD PTR [rip+0x5d919],rdi        # 67200 <P+0x38060>
    98e7:	jmp    9835 <interval_domain_value_check+0x45>
    98ec:	nop    DWORD PTR [rax+0x0]
    98f0:	mov    rbx,rsp
    98f3:	mov    ecx,0x20
    98f8:	mov    edx,0x1
    98fd:	xor    eax,eax
    98ff:	mov    rdi,rbx
    9902:	lea    r8,[rip+0x14c22]        # 1e52b <_IO_stdin_used+0x52b>
    9909:	mov    esi,0x20
    990e:	call   5030 <__snprintf_chk@plt>
    9913:	lea    rdi,[r12+0x840]
    991b:	mov    rsi,rbx
    991e:	call   9290 <interval_list_add>
    9923:	jmp    9835 <interval_domain_value_check+0x45>
    9928:	call   50d0 <__stack_chk_fail@plt>
    992d:	mov    edi,0x1
    9932:	call   5250 <exit@plt>
    9937:	nop    WORD PTR [rax+rax*1+0x0]

0000000000009940 <interval_domain_short_summary_header>:
    9940:	push   r12
    9942:	lea    rsi,[rip+0x1497f]        # 1e2c8 <_IO_stdin_used+0x2c8>
    9949:	mov    edi,0x1
    994e:	xor    eax,eax
    9950:	push   rbp
    9951:	lea    rbp,[rip+0x14879]        # 1e1d1 <_IO_stdin_used+0x1d1>
    9958:	push   rbx
    9959:	lea    rbx,[rip+0x21ba0]        # 2b500 <hvm_short_summary_name>
    9960:	lea    r12,[rbx+0x50]
    9964:	call   5200 <__printf_chk@plt>
    9969:	nop    DWORD PTR [rax+0x0]
    9970:	mov    rdx,QWORD PTR [rbx]
    9973:	mov    rsi,rbp
    9976:	mov    edi,0x1
    997b:	xor    eax,eax
    997d:	add    rbx,0x8
    9981:	call   5200 <__printf_chk@plt>
    9986:	cmp    rbx,r12
    9989:	jne    9970 <interval_domain_short_summary_header+0x30>
    998b:	pop    rbx
    998c:	mov    edi,0xa
    9991:	pop    rbp
    9992:	pop    r12
    9994:	jmp    5050 <putchar@plt>
    9999:	nop    DWORD PTR [rax+0x0]

00000000000099a0 <interval_domain_short_summary_output>:
    99a0:	push   rbp
    99a1:	push   rbx
    99a2:	sub    rsp,0x8
    99a6:	mov    rbp,QWORD PTR [rip+0x5d853]        # 67200 <P+0x38060>
    99ad:	test   rbp,rbp
    99b0:	je     9a00 <interval_domain_short_summary_output+0x60>
    99b2:	call   9090 <interval_time_output>
    99b7:	lea    rdi,[rbp+0x840]
    99be:	lea    rbx,[rbp+0xf98]
    99c5:	add    rbp,0x11c8
    99cc:	call   9030 <interval_cycle_percent_output>
    99d1:	nop    DWORD PTR [rax+0x0]
    99d8:	mov    rdi,rbx
    99db:	add    rbx,0x38
    99df:	call   9030 <interval_cycle_percent_output>
    99e4:	cmp    rbx,rbp
    99e7:	jne    99d8 <interval_domain_short_summary_output+0x38>
    99e9:	add    rsp,0x8
    99ed:	mov    edi,0xa
    99f2:	pop    rbx
    99f3:	pop    rbp
    99f4:	jmp    5050 <putchar@plt>
    99f9:	nop    DWORD PTR [rax+0x0]
    9a00:	add    rsp,0x8
    9a04:	pop    rbx
    9a05:	pop    rbp
    9a06:	ret    
    9a07:	nop    WORD PTR [rax+rax*1+0x0]

0000000000009a10 <interval_domain_guest_interrupt>:
    9a10:	mov    rax,QWORD PTR [rdi+0x10]
    9a14:	lea    rcx,[rip+0x5d7ed]        # 67208 <P+0x38068>
    9a1b:	mov    r8,QWORD PTR [rax+0x8]
    9a1f:	xor    eax,eax
    9a21:	nop    DWORD PTR [rax+0x0]
    9a28:	mov    edx,DWORD PTR [rcx+rax*4]
    9a2b:	movsxd rdi,eax
    9a2e:	test   edx,edx
    9a30:	je     9a78 <interval_domain_guest_interrupt+0x68>
    9a32:	cmp    edx,esi
    9a34:	je     9a86 <interval_domain_guest_interrupt+0x76>
    9a36:	add    rax,0x1
    9a3a:	cmp    rax,0xa
    9a3e:	jne    9a28 <interval_domain_guest_interrupt+0x18>
    9a40:	sub    rsp,0x8
    9a44:	xor    eax,eax
    9a46:	mov    ecx,0xa
    9a4b:	mov    esi,0x1
    9a50:	mov    rdi,QWORD PTR [rip+0x249e9]        # 2e440 <stderr@@GLIBC_2.2.5>
    9a57:	lea    rdx,[rip+0x16f9a]        # 209f8 <_IO_stdin_used+0x29f8>
    9a5e:	call   5270 <__fprintf_chk@plt>
    9a63:	cmp    DWORD PTR [rip+0x21676],0x5        # 2b0e0 <opt+0x40>
    9a6a:	jbe    9a93 <interval_domain_guest_interrupt+0x83>
    9a6c:	add    rsp,0x8
    9a70:	ret    
    9a71:	nop    DWORD PTR [rax+0x0]
    9a78:	lea    rax,[rip+0x25721]        # 2f1a0 <P>
    9a7f:	mov    DWORD PTR [rax+rdi*4+0x38068],esi
    9a86:	movsxd rsi,esi
    9a89:	add    DWORD PTR [r8+rsi*4+0x9f8],0x1
    9a92:	ret    
    9a93:	mov    edi,0x1
    9a98:	call   5250 <exit@plt>
    9a9d:	nop    DWORD PTR [rax]

0000000000009aa0 <interval_domain_guest_interrupt_tail>:
    9aa0:	push   r12
    9aa2:	lea    rsi,[rip+0x1481f]        # 1e2c8 <_IO_stdin_used+0x2c8>
    9aa9:	mov    edi,0x1
    9aae:	xor    eax,eax
    9ab0:	push   rbp
    9ab1:	lea    rbp,[rip+0x14a72]        # 1e52a <_IO_stdin_used+0x52a>
    9ab8:	push   rbx
    9ab9:	lea    rbx,[rip+0x5d748]        # 67208 <P+0x38068>
    9ac0:	lea    r12,[rbx+0x28]
    9ac4:	call   5200 <__printf_chk@plt>
    9ac9:	nop    DWORD PTR [rax+0x0]
    9ad0:	mov    edx,DWORD PTR [rbx]
    9ad2:	test   edx,edx
    9ad4:	je     9aee <interval_domain_guest_interrupt_tail+0x4e>
    9ad6:	mov    rsi,rbp
    9ad9:	mov    edi,0x1
    9ade:	xor    eax,eax
    9ae0:	add    rbx,0x4
    9ae4:	call   5200 <__printf_chk@plt>
    9ae9:	cmp    rbx,r12
    9aec:	jne    9ad0 <interval_domain_guest_interrupt_tail+0x30>
    9aee:	pop    rbx
    9aef:	mov    edi,0xa
    9af4:	pop    rbp
    9af5:	pop    r12
    9af7:	jmp    5050 <putchar@plt>
    9afc:	nop    DWORD PTR [rax+0x0]

0000000000009b00 <interval_domain_guest_interrupt_output>:
    9b00:	push   r14
    9b02:	push   r13
    9b04:	push   r12
    9b06:	push   rbp
    9b07:	mov    rbp,QWORD PTR [rip+0x5d6f2]        # 67200 <P+0x38060>
    9b0e:	push   rbx
    9b0f:	test   rbp,rbp
    9b12:	je     9b80 <interval_domain_guest_interrupt_output+0x80>
    9b14:	lea    rbx,[rip+0x5d6ed]        # 67208 <P+0x38068>
    9b1b:	lea    r12,[rip+0x14a08]        # 1e52a <_IO_stdin_used+0x52a>
    9b22:	call   9090 <interval_time_output>
    9b27:	lea    r13,[rbx+0x28]
    9b2b:	nop    DWORD PTR [rax+rax*1+0x0]
    9b30:	movsxd rax,DWORD PTR [rbx]
    9b33:	test   eax,eax
    9b35:	je     9b66 <interval_domain_guest_interrupt_output+0x66>
    9b37:	lea    r14,[rbp+rax*4+0x0]
    9b3c:	mov    rsi,r12
    9b3f:	mov    edi,0x1
    9b44:	xor    eax,eax
    9b46:	mov    edx,DWORD PTR [r14+0x9f8]
    9b4d:	add    rbx,0x4
    9b51:	call   5200 <__printf_chk@plt>
    9b56:	mov    DWORD PTR [r14+0x9f8],0x0
    9b61:	cmp    rbx,r13
    9b64:	jne    9b30 <interval_domain_guest_interrupt_output+0x30>
    9b66:	pop    rbx
    9b67:	mov    edi,0xa
    9b6c:	pop    rbp
    9b6d:	pop    r12
    9b6f:	pop    r13
    9b71:	pop    r14
    9b73:	jmp    5050 <putchar@plt>
    9b78:	nop    DWORD PTR [rax+rax*1+0x0]
    9b80:	pop    rbx
    9b81:	pop    rbp
    9b82:	pop    r12
    9b84:	pop    r13
    9b86:	pop    r14
    9b88:	ret    
    9b89:	nop    DWORD PTR [rax+0x0]

0000000000009b90 <interval_domain_grant_maps_output>:
    9b90:	push   rbx
    9b91:	mov    rbx,QWORD PTR [rip+0x5d668]        # 67200 <P+0x38060>
    9b98:	test   rbx,rbx
    9b9b:	je     9bd0 <interval_domain_grant_maps_output+0x40>
    9b9d:	call   9090 <interval_time_output>
    9ba2:	mov    edx,DWORD PTR [rbx+0x1290]
    9ba8:	mov    edi,0x1
    9bad:	xor    eax,eax
    9baf:	lea    rsi,[rip+0x14974]        # 1e52a <_IO_stdin_used+0x52a>
    9bb6:	call   5200 <__printf_chk@plt>
    9bbb:	mov    edi,0xa
    9bc0:	mov    DWORD PTR [rbx+0x1290],0x0
    9bca:	pop    rbx
    9bcb:	jmp    5050 <putchar@plt>
    9bd0:	pop    rbx
    9bd1:	ret    
    9bd2:	data16 nop WORD PTR cs:[rax+rax*1+0x0]
    9bdd:	nop    DWORD PTR [rax]

0000000000009be0 <interval_callback>:
    9be0:	mov    eax,DWORD PTR [rip+0x21512]        # 2b0f8 <opt+0x58>
    9be6:	sub    eax,0x1
    9be9:	cmp    eax,0x1
    9bec:	jbe    9c10 <interval_callback+0x30>
    9bee:	cmp    DWORD PTR [rip+0x214ff],0x6        # 2b0f4 <opt+0x54>
    9bf5:	ja     9c40 <interval_callback+0x60>
    9bf7:	mov    eax,DWORD PTR [rip+0x214f7]        # 2b0f4 <opt+0x54>
    9bfd:	lea    rdx,[rip+0x1a37c]        # 23f80 <_IO_stdin_used+0x5f80>
    9c04:	movsxd rax,DWORD PTR [rdx+rax*4]
    9c08:	add    rax,rdx
    9c0b:	jmp    rax
    9c0d:	nop    DWORD PTR [rax]
    9c10:	jmp    9100 <interval_table_output>
    9c15:	nop    DWORD PTR [rax]
    9c18:	jmp    9b90 <interval_domain_grant_maps_output>
    9c1d:	nop    DWORD PTR [rax]
    9c20:	jmp    9560 <interval_cr3_schedule_ordered_output>
    9c25:	nop    DWORD PTR [rax]
    9c28:	jmp    96e0 <interval_cr3_short_summary_output>
    9c2d:	nop    DWORD PTR [rax]
    9c30:	jmp    99a0 <interval_domain_short_summary_output>
    9c35:	nop    DWORD PTR [rax]
    9c38:	jmp    9b00 <interval_domain_guest_interrupt_output>
    9c3d:	nop    DWORD PTR [rax]
    9c40:	ret    
    9c41:	data16 nop WORD PTR cs:[rax+rax*1+0x0]
    9c4c:	nop    DWORD PTR [rax+0x0]

0000000000009c50 <interval_header>:
    9c50:	mov    eax,DWORD PTR [rip+0x2149e]        # 2b0f4 <opt+0x54>
    9c56:	cmp    eax,0x2
    9c59:	je     9c70 <interval_header+0x20>
    9c5b:	cmp    eax,0x4
    9c5e:	jne    9c68 <interval_header+0x18>
    9c60:	jmp    9940 <interval_domain_short_summary_header>
    9c65:	nop    DWORD PTR [rax]
    9c68:	ret    
    9c69:	nop    DWORD PTR [rax+0x0]
    9c70:	jmp    9680 <interval_cr3_short_summary_header>
    9c75:	data16 nop WORD PTR cs:[rax+rax*1+0x0]

0000000000009c80 <interval_tail>:
    9c80:	cmp    DWORD PTR [rip+0x21471],0x2        # 2b0f8 <opt+0x58>
    9c87:	je     9ca0 <interval_tail+0x20>
    9c89:	cmp    DWORD PTR [rip+0x21464],0x5        # 2b0f4 <opt+0x54>
    9c90:	je     9c98 <interval_tail+0x18>
    9c92:	ret    
    9c93:	nop    DWORD PTR [rax+rax*1+0x0]
    9c98:	jmp    9aa0 <interval_domain_guest_interrupt_tail>
    9c9d:	nop    DWORD PTR [rax]
    9ca0:	jmp    91b0 <interval_table_tail>
    9ca5:	data16 nop WORD PTR cs:[rax+rax*1+0x0]

0000000000009cb0 <update_eip>:
    9cb0:	push   r15
    9cb2:	mov    r15d,ecx
    9cb5:	push   r14
    9cb7:	mov    r14,rdx
    9cba:	push   r13
    9cbc:	push   r12
    9cbe:	mov    r12,rsi
    9cc1:	push   rbp
    9cc2:	mov    rbp,rdi
    9cc5:	push   rbx
    9cc6:	sub    rsp,0x18
    9cca:	mov    rbx,QWORD PTR [rdi]
    9ccd:	test   rbx,rbx
    9cd0:	je     9cf8 <update_eip+0x48>
    9cd2:	mov    rax,QWORD PTR [rbx+0x8]
    9cd6:	cmp    rsi,rax
    9cd9:	ja     9ced <update_eip+0x3d>
    9cdb:	jmp    9da0 <update_eip+0xf0>
    9ce0:	mov    rax,QWORD PTR [rbx+0x8]
    9ce4:	cmp    rax,r12
    9ce7:	jae    9da0 <update_eip+0xf0>
    9ced:	mov    rbp,rbx
    9cf0:	mov    rbx,QWORD PTR [rbx]
    9cf3:	test   rbx,rbx
    9cf6:	jne    9ce0 <update_eip+0x30>
    9cf8:	mov    edi,0x58
    9cfd:	mov    QWORD PTR [rsp+0x8],r8
    9d02:	call   51a0 <malloc@plt>
    9d07:	mov    r8,QWORD PTR [rsp+0x8]
    9d0c:	test   rax,rax
    9d0f:	mov    r13,rax
    9d12:	mov    rbx,rax
    9d15:	je     9e80 <update_eip+0x1d0>
    9d1b:	xor    eax,eax
    9d1d:	mov    ecx,0xb
    9d22:	mov    rdi,r13
    9d25:	movsxd rdx,r15d
    9d28:	rep stos QWORD PTR es:[rdi],rax
    9d2b:	lea    rdx,[rdx+rdx*2]
    9d2f:	lea    rax,[rip+0x5d50a]        # 67240 <eip_list_type>
    9d36:	mov    QWORD PTR [r13+0x8],r12
    9d3a:	mov    rax,QWORD PTR [rax+rdx*8+0x8]
    9d3f:	mov    DWORD PTR [r13+0x48],r15d
    9d43:	test   rax,rax
    9d46:	je     9d50 <update_eip+0xa0>
    9d48:	mov    rsi,r8
    9d4b:	mov    rdi,r13
    9d4e:	call   rax
    9d50:	mov    rax,QWORD PTR [rbp+0x0]
    9d54:	mov    QWORD PTR [r13+0x0],rax
    9d58:	mov    QWORD PTR [rbp+0x0],r13
    9d5c:	add    DWORD PTR [rbx+0x10],0x1
    9d60:	test   r14,r14
    9d63:	je     9d87 <update_eip+0xd7>
    9d65:	movsxd rcx,DWORD PTR [rbx+0x14]
    9d69:	mov    edx,DWORD PTR [rip+0x21369]        # 2b0d8 <opt+0x38>
    9d6f:	mov    eax,ecx
    9d71:	test   edx,edx
    9d73:	jne    9de0 <update_eip+0x130>
    9d75:	add    eax,0x1
    9d78:	add    QWORD PTR [rbx+0x20],r14
    9d7c:	add    DWORD PTR [rbx+0x30],0x1
    9d80:	add    QWORD PTR [rbx+0x38],r14
    9d84:	mov    DWORD PTR [rbx+0x14],eax
    9d87:	add    rsp,0x18
    9d8b:	pop    rbx
    9d8c:	pop    rbp
    9d8d:	pop    r12
    9d8f:	pop    r13
    9d91:	pop    r14
    9d93:	pop    r15
    9d95:	ret    
    9d96:	nop    WORD PTR cs:[rax+rax*1+0x0]
    9da0:	cmp    r12,rax
    9da3:	jne    9cf8 <update_eip+0x48>
    9da9:	mov    ecx,DWORD PTR [rbx+0x48]
    9dac:	cmp    ecx,r15d
    9daf:	jne    9ec0 <update_eip+0x210>
    9db5:	movsxd rdx,r15d
    9db8:	lea    rax,[rip+0x5d481]        # 67240 <eip_list_type>
    9dbf:	lea    rdx,[rdx+rdx*2]
    9dc3:	mov    rax,QWORD PTR [rax+rdx*8]
    9dc7:	test   rax,rax
    9dca:	je     9d5c <update_eip+0xac>
    9dcc:	mov    rsi,r8
    9dcf:	mov    rdi,rbx
    9dd2:	call   rax
    9dd4:	jmp    9d5c <update_eip+0xac>
    9dd6:	nop    WORD PTR cs:[rax+rax*1+0x0]
    9de0:	mov    eax,DWORD PTR [rbx+0x18]
    9de3:	cmp    eax,ecx
    9de5:	jg     9eb0 <update_eip+0x200>
    9deb:	mov    ebp,DWORD PTR [rip+0x212eb]        # 2b0dc <opt+0x3c>
    9df1:	test   ecx,ecx
    9df3:	je     9e01 <update_eip+0x151>
    9df5:	test   ebp,ebp
    9df7:	je     9e01 <update_eip+0x151>
    9df9:	cmp    eax,ebp
    9dfb:	jge    9ee2 <update_eip+0x232>
    9e01:	add    eax,eax
    9e03:	cmove  eax,edx
    9e06:	test   ebp,ebp
    9e08:	je     9ef1 <update_eip+0x241>
    9e0e:	cmp    eax,ebp
    9e10:	jle    9ef1 <update_eip+0x241>
    9e16:	movsxd rsi,ebp
    9e19:	mov    rdi,QWORD PTR [rbx+0x28]
    9e1d:	shl    rsi,0x3
    9e21:	call   51d0 <realloc@plt>
    9e26:	test   rax,rax
    9e29:	je     9ee9 <update_eip+0x239>
    9e2f:	mov    QWORD PTR [rbx+0x28],rax
    9e33:	mov    DWORD PTR [rbx+0x18],ebp
    9e36:	movsxd rcx,DWORD PTR [rbx+0x14]
    9e3a:	cmp    ecx,ebp
    9e3c:	jl     9eb0 <update_eip+0x200>
    9e3e:	mov    eax,ecx
    9e40:	cdq    
    9e41:	idiv   ebp
    9e43:	lea    esi,[rax+0x1]
    9e46:	movsxd rdi,edx
    9e49:	mov    edx,0x55555556
    9e4e:	mov    eax,esi
    9e50:	imul   edx
    9e52:	mov    eax,esi
    9e54:	sar    eax,0x1f
    9e57:	sub    eax,edx
    9e59:	add    eax,edi
    9e5b:	cdq    
    9e5c:	idiv   esi
    9e5e:	mov    eax,ecx
    9e60:	test   edx,edx
    9e62:	jne    9d75 <update_eip+0xc5>
    9e68:	mov    rax,QWORD PTR [rbx+0x28]
    9e6c:	mov    QWORD PTR [rax+rdi*8],r14
    9e70:	mov    eax,DWORD PTR [rbx+0x14]
    9e73:	jmp    9d75 <update_eip+0xc5>
    9e78:	nop    DWORD PTR [rax+rax*1+0x0]
    9e80:	lea    rdi,[rip+0x1444e]        # 1e2d5 <_IO_stdin_used+0x2d5>
    9e87:	call   5240 <perror@plt>
    9e8c:	cmp    DWORD PTR [rip+0x2124d],0x7        # 2b0e0 <opt+0x40>
    9e93:	mov    r8,QWORD PTR [rsp+0x8]
    9e98:	ja     9d1b <update_eip+0x6b>
    9e9e:	mov    edi,0x1
    9ea3:	call   5250 <exit@plt>
    9ea8:	nop    DWORD PTR [rax+rax*1+0x0]
    9eb0:	mov    rax,QWORD PTR [rbx+0x28]
    9eb4:	mov    QWORD PTR [rax+rcx*8],r14
    9eb8:	mov    eax,DWORD PTR [rbx+0x14]
    9ebb:	jmp    9d75 <update_eip+0xc5>
    9ec0:	mov    rdi,QWORD PTR [rip+0x24579]        # 2e440 <stderr@@GLIBC_2.2.5>
    9ec7:	mov    r8d,r15d
    9eca:	mov    esi,0x1
    9ecf:	xor    eax,eax
    9ed1:	lea    rdx,[rip+0x1440b]        # 1e2e3 <_IO_stdin_used+0x2e3>
    9ed8:	call   5270 <__fprintf_chk@plt>
    9edd:	jmp    9d5c <update_eip+0xac>
    9ee2:	mov    ebp,eax
    9ee4:	jmp    9e3e <update_eip+0x18e>
    9ee9:	mov    ebp,DWORD PTR [rbx+0x18]
    9eec:	jmp    9e36 <update_eip+0x186>
    9ef1:	mov    ebp,eax
    9ef3:	jmp    9e16 <update_eip+0x166>
    9ef8:	nop    DWORD PTR [rax+rax*1+0x0]

0000000000009f00 <dump_eip>:
    9f00:	test   rdi,rdi
    9f03:	je     a170 <dump_eip+0x270>
    9f09:	push   r15
    9f0b:	mov    rax,rdi
    9f0e:	xor    r15d,r15d
    9f11:	xor    edx,edx
    9f13:	push   r14
    9f15:	push   r13
    9f17:	push   r12
    9f19:	mov    r12,rdi
    9f1c:	push   rbp
    9f1d:	push   rbx
    9f1e:	sub    rsp,0x28
    9f22:	jmp    9f2b <dump_eip+0x2b>
    9f24:	nop    DWORD PTR [rax+0x0]
    9f28:	movsxd r15,esi
    9f2b:	mov    ebx,DWORD PTR [rax+0x14]
    9f2e:	mov    rax,QWORD PTR [rax]
    9f31:	lea    esi,[r15+0x1]
    9f35:	add    ebx,edx
    9f37:	mov    edx,ebx
    9f39:	test   rax,rax
    9f3c:	jne    9f28 <dump_eip+0x28>
    9f3e:	movsxd r13,esi
    9f41:	lea    rdi,[r13*8+0x0]
    9f49:	call   51a0 <malloc@plt>
    9f4e:	mov    r14,rax
    9f51:	mov    rbp,rax
    9f54:	mov    QWORD PTR [rax],r12
    9f57:	mov    r12,QWORD PTR [r12]
    9f5b:	add    rax,0x8
    9f5f:	test   r12,r12
    9f62:	jne    9f54 <dump_eip+0x54>
    9f64:	mov    rsi,r13
    9f67:	mov    edx,0x8
    9f6c:	lea    r13,[r14+r15*8+0x8]
    9f71:	mov    rdi,r14
    9f74:	lea    rcx,[rip+0xffffffffffffb615]        # 5590 <eip_compare>
    9f7b:	lea    r12,[rip+0x5d2be]        # 67240 <eip_list_type>
    9f82:	call   50a0 <qsort@plt>
    9f87:	mov    edx,ebx
    9f89:	lea    rsi,[rip+0x14370]        # 1e300 <_IO_stdin_used+0x300>
    9f90:	xor    eax,eax
    9f92:	mov    edi,0x1
    9f97:	call   5200 <__printf_chk@plt>
    9f9c:	jmp    a102 <dump_eip+0x202>
    9fa1:	nop    DWORD PTR [rax+0x0]
    9fa8:	mov    esi,DWORD PTR [r15+0x10]
    9fac:	test   esi,esi
    9fae:	je     a0e2 <dump_eip+0x1e2>
    9fb4:	mov    ecx,DWORD PTR [rip+0x2111e]        # 2b0d8 <opt+0x38>
    9fba:	test   ecx,ecx
    9fbc:	je     a190 <dump_eip+0x290>
    9fc2:	mov    ecx,DWORD PTR [r15+0x14]
    9fc6:	cmp    DWORD PTR [r15+0x18],ecx
    9fca:	cmovle ecx,DWORD PTR [r15+0x18]
    9fcf:	test   ecx,ecx
    9fd1:	je     a260 <dump_eip+0x360>
    9fd7:	mov    rdi,QWORD PTR [r15+0x28]
    9fdb:	mov    esi,ecx
    9fdd:	mov    edx,0x32
    9fe2:	mov    DWORD PTR [rsp+0x8],ecx
    9fe6:	call   57f0 <percentile.part.6>
    9feb:	mov    ecx,DWORD PTR [rsp+0x8]
    9fef:	mov    rdi,QWORD PTR [r15+0x28]
    9ff3:	mov    edx,0x5
    9ff8:	mov    QWORD PTR [rsp+0x10],rax
    9ffd:	mov    esi,ecx
    9fff:	mov    DWORD PTR [rsp+0x18],ecx
    a003:	call   57f0 <percentile.part.6>
    a008:	mov    ecx,DWORD PTR [rsp+0x18]
    a00c:	mov    rdi,QWORD PTR [r15+0x28]
    a010:	mov    edx,0x5f
    a015:	mov    QWORD PTR [rsp+0x8],rax
    a01a:	mov    esi,ecx
    a01c:	call   57f0 <percentile.part.6>
    a021:	mov    r8,rax
    a024:	mov    rdi,QWORD PTR [r15+0x8]
    a028:	mov    QWORD PTR [rsp+0x18],r8
    a02d:	call   7ee0 <find_symbol>
    a032:	mov    rdx,QWORD PTR [r15+0x8]
    a036:	mov    edi,0x1
    a03b:	lea    rsi,[rip+0x142d4]        # 1e316 <_IO_stdin_used+0x316>
    a042:	mov    rcx,rax
    a045:	xor    eax,eax
    a047:	call   5200 <__printf_chk@plt>
    a04c:	mov    eax,DWORD PTR [r15+0x14]
    a050:	xor    ecx,ecx
    a052:	mov    rsi,QWORD PTR [r15+0x20]
    a056:	mov    r8,QWORD PTR [rsp+0x18]
    a05b:	test   eax,eax
    a05d:	je     a06d <dump_eip+0x16d>
    a05f:	movsxd rcx,eax
    a062:	xor    edx,edx
    a064:	mov    rax,rsi
    a067:	div    rcx
    a06a:	mov    rcx,rax
    a06d:	lea    rax,[rsi+rsi*4]
    a071:	pxor   xmm1,xmm1
    a075:	pxor   xmm0,xmm0
    a079:	cvtsi2sd xmm0,QWORD PTR [rip+0x2514e]        # 2f1d0 <P+0x30>
    a082:	lea    rdx,[rax+rax*4]
    a086:	shl    rdx,0x2
    a08a:	cvtsi2sd xmm1,rdx
    a08f:	divsd  xmm1,xmm0
    a093:	test   rsi,rsi
    a096:	js     a240 <dump_eip+0x340>
    a09c:	pxor   xmm0,xmm0
    a0a0:	cvtsi2sd xmm0,rsi
    a0a5:	pxor   xmm2,xmm2
    a0a9:	sub    rsp,0x8
    a0ad:	mov    edx,DWORD PTR [r15+0x10]
    a0b1:	lea    rsi,[rip+0x16760]        # 20818 <_IO_stdin_used+0x2818>
    a0b8:	cvtsi2sd xmm2,QWORD PTR [rip+0x20fef]        # 2b0b0 <opt+0x10>
    a0c1:	push   r8
    a0c3:	mov    r9,QWORD PTR [rsp+0x20]
    a0c8:	mov    edi,0x1
    a0cd:	mov    r8,QWORD PTR [rsp+0x18]
    a0d2:	mov    eax,0x2
    a0d7:	divsd  xmm0,xmm2
    a0db:	call   5200 <__printf_chk@plt>
    a0e0:	pop    rax
    a0e1:	pop    rdx
    a0e2:	movsxd rax,DWORD PTR [r15+0x48]
    a0e6:	lea    rax,[rax+rax*2]
    a0ea:	mov    rax,QWORD PTR [r12+rax*8+0x10]
    a0ef:	test   rax,rax
    a0f2:	je     a0f9 <dump_eip+0x1f9>
    a0f4:	mov    rdi,r15
    a0f7:	call   rax
    a0f9:	add    rbp,0x8
    a0fd:	cmp    r13,rbp
    a100:	je     a178 <dump_eip+0x278>
    a102:	mov    r15,QWORD PTR [rbp+0x0]
    a106:	cmp    QWORD PTR [r15+0x20],0x0
    a10b:	jne    9fa8 <dump_eip+0xa8>
    a111:	mov    rdi,QWORD PTR [r15+0x8]
    a115:	call   7ee0 <find_symbol>
    a11a:	mov    rdx,QWORD PTR [r15+0x8]
    a11e:	mov    edi,0x1
    a123:	lea    rsi,[rip+0x141ec]        # 1e316 <_IO_stdin_used+0x316>
    a12a:	mov    rcx,rax
    a12d:	xor    eax,eax
    a12f:	call   5200 <__printf_chk@plt>
    a134:	mov    edx,DWORD PTR [r15+0x14]
    a138:	pxor   xmm0,xmm0
    a13c:	pxor   xmm1,xmm1
    a140:	cvtsi2sd xmm1,ebx
    a144:	mov    edi,0x1
    a149:	mov    eax,0x1
    a14e:	cvtsi2sd xmm0,edx
    a152:	mulsd  xmm0,QWORD PTR [rip+0x1a78e]        # 248e8 <__PRETTY_FUNCTION__.5821+0x18>
    a15a:	lea    rsi,[rip+0x141c6]        # 1e327 <_IO_stdin_used+0x327>
    a161:	divsd  xmm0,xmm1
    a165:	call   5200 <__printf_chk@plt>
    a16a:	jmp    a0e2 <dump_eip+0x1e2>
    a16f:	nop
    a170:	ret    
    a171:	nop    DWORD PTR [rax+0x0]
    a178:	add    rsp,0x28
    a17c:	mov    rdi,r14
    a17f:	pop    rbx
    a180:	pop    rbp
    a181:	pop    r12
    a183:	pop    r13
    a185:	pop    r14
    a187:	pop    r15
    a189:	jmp    5040 <free@plt>
    a18e:	xchg   ax,ax
    a190:	mov    rdi,QWORD PTR [r15+0x8]
    a194:	call   7ee0 <find_symbol>
    a199:	mov    rdx,QWORD PTR [r15+0x8]
    a19d:	mov    edi,0x1
    a1a2:	lea    rsi,[rip+0x1416d]        # 1e316 <_IO_stdin_used+0x316>
    a1a9:	mov    rcx,rax
    a1ac:	xor    eax,eax
    a1ae:	call   5200 <__printf_chk@plt>
    a1b3:	mov    eax,DWORD PTR [r15+0x14]
    a1b7:	mov    rsi,QWORD PTR [r15+0x20]
    a1bb:	xor    ecx,ecx
    a1bd:	test   eax,eax
    a1bf:	je     a1cf <dump_eip+0x2cf>
    a1c1:	movsxd rcx,eax
    a1c4:	xor    edx,edx
    a1c6:	mov    rax,rsi
    a1c9:	div    rcx
    a1cc:	mov    rcx,rax
    a1cf:	lea    rdx,[rsi+rsi*4]
    a1d3:	pxor   xmm1,xmm1
    a1d7:	pxor   xmm0,xmm0
    a1db:	cvtsi2sd xmm0,QWORD PTR [rip+0x24fec]        # 2f1d0 <P+0x30>
    a1e4:	lea    rdx,[rdx+rdx*4]
    a1e8:	shl    rdx,0x2
    a1ec:	cvtsi2sd xmm1,rdx
    a1f1:	divsd  xmm1,xmm0
    a1f5:	test   rsi,rsi
    a1f8:	js     a280 <dump_eip+0x380>
    a1fe:	pxor   xmm0,xmm0
    a202:	cvtsi2sd xmm0,rsi
    a207:	pxor   xmm2,xmm2
    a20b:	mov    edx,DWORD PTR [r15+0x10]
    a20f:	mov    edi,0x1
    a214:	lea    rsi,[rip+0x16635]        # 20850 <_IO_stdin_used+0x2850>
    a21b:	cvtsi2sd xmm2,QWORD PTR [rip+0x20e8c]        # 2b0b0 <opt+0x10>
    a224:	mov    eax,0x2
    a229:	divsd  xmm0,xmm2
    a22d:	call   5200 <__printf_chk@plt>
    a232:	jmp    a0e2 <dump_eip+0x1e2>
    a237:	nop    WORD PTR [rax+rax*1+0x0]
    a240:	mov    rax,rsi
    a243:	and    esi,0x1
    a246:	pxor   xmm0,xmm0
    a24a:	shr    rax,1
    a24d:	or     rax,rsi
    a250:	cvtsi2sd xmm0,rax
    a255:	addsd  xmm0,xmm0
    a259:	jmp    a0a5 <dump_eip+0x1a5>
    a25e:	xchg   ax,ax
    a260:	mov    QWORD PTR [rsp+0x8],0x0
    a269:	xor    r8d,r8d
    a26c:	mov    QWORD PTR [rsp+0x10],0x0
    a275:	jmp    a024 <dump_eip+0x124>
    a27a:	nop    WORD PTR [rax+rax*1+0x0]
    a280:	mov    rax,rsi
    a283:	and    esi,0x1
    a286:	pxor   xmm0,xmm0
    a28a:	shr    rax,1
    a28d:	or     rax,rsi
    a290:	cvtsi2sd xmm0,rax
    a295:	addsd  xmm0,xmm0
    a299:	jmp    a207 <dump_eip+0x307>
    a29e:	xchg   ax,ax

000000000000a2a0 <hvm_update_short_summary>:
    a2a0:	push   r15
    a2a2:	push   r14
    a2a4:	push   r13
    a2a6:	push   r12
    a2a8:	mov    r12,rdi
    a2ab:	push   rbp
    a2ac:	push   rbx
    a2ad:	movsxd rbx,esi
    a2b0:	sub    rsp,0x18
    a2b4:	mov    r14,QWORD PTR [rdi+0x10]
    a2b8:	mov    rbp,QWORD PTR [rdi+0x283e8]
    a2bf:	mov    r13,QWORD PTR [r14+0x70]
    a2c3:	test   r13,r13
    a2c6:	je     a416 <hvm_update_short_summary+0x176>
    a2cc:	lea    rax,[rbx*8+0x0]
    a2d4:	sub    rax,rbx
    a2d7:	lea    rdx,[r13+rax*8+0x0]
    a2dc:	add    DWORD PTR [rdx+0xe8],0x1
    a2e3:	test   rbp,rbp
    a2e6:	je     a40e <hvm_update_short_summary+0x16e>
    a2ec:	mov    ecx,DWORD PTR [rip+0x20de6]        # 2b0d8 <opt+0x38>
    a2f2:	movsxd rax,DWORD PTR [rdx+0xec]
    a2f9:	test   ecx,ecx
    a2fb:	je     a3e0 <hvm_update_short_summary+0x140>
    a301:	mov    edx,DWORD PTR [rdx+0xf0]
    a307:	cmp    edx,eax
    a309:	jg     a590 <hvm_update_short_summary+0x2f0>
    a30f:	mov    r15d,DWORD PTR [rip+0x20dc6]        # 2b0dc <opt+0x3c>
    a316:	test   eax,eax
    a318:	je     a330 <hvm_update_short_summary+0x90>
    a31a:	test   r15d,r15d
    a31d:	je     a330 <hvm_update_short_summary+0x90>
    a31f:	cmp    edx,r15d
    a322:	jl     a330 <hvm_update_short_summary+0x90>
    a324:	mov    r15d,edx
    a327:	jmp    a3a7 <hvm_update_short_summary+0x107>
    a329:	nop    DWORD PTR [rax+0x0]
    a330:	add    edx,edx
    a332:	cmove  edx,ecx
    a335:	test   r15d,r15d
    a338:	je     a640 <hvm_update_short_summary+0x3a0>
    a33e:	cmp    edx,r15d
    a341:	jle    a640 <hvm_update_short_summary+0x3a0>
    a347:	lea    rax,[rbx*8+0x0]
    a34f:	movsxd rsi,r15d
    a352:	sub    rax,rbx
    a355:	shl    rsi,0x3
    a359:	lea    rdx,[r13+rax*8+0x0]
    a35e:	mov    rdi,QWORD PTR [rdx+0x100]
    a365:	mov    QWORD PTR [rsp+0x8],rdx
    a36a:	call   51d0 <realloc@plt>
    a36f:	mov    rdx,QWORD PTR [rsp+0x8]
    a374:	test   rax,rax
    a377:	je     a630 <hvm_update_short_summary+0x390>
    a37d:	mov    QWORD PTR [rdx+0x100],rax
    a384:	mov    DWORD PTR [rdx+0xf0],r15d
    a38b:	lea    rax,[rbx*8+0x0]
    a393:	sub    rax,rbx
    a396:	movsxd rax,DWORD PTR [r13+rax*8+0xec]
    a39e:	cmp    eax,r15d
    a3a1:	jl     a590 <hvm_update_short_summary+0x2f0>
    a3a7:	cdq    
    a3a8:	idiv   r15d
    a3ab:	lea    ecx,[rax+0x1]
    a3ae:	mov    esi,edx
    a3b0:	mov    edx,0x55555556
    a3b5:	mov    eax,ecx
    a3b7:	imul   edx
    a3b9:	mov    eax,ecx
    a3bb:	sar    eax,0x1f
    a3be:	sub    eax,edx
    a3c0:	add    eax,esi
    a3c2:	cdq    
    a3c3:	idiv   ecx
    a3c5:	lea    rax,[rbx*8+0x0]
    a3cd:	sub    rax,rbx
    a3d0:	test   edx,edx
    a3d2:	je     a5e0 <hvm_update_short_summary+0x340>
    a3d8:	mov    eax,DWORD PTR [r13+rax*8+0xec]
    a3e0:	lea    rdx,[rbx*8+0x0]
    a3e8:	add    eax,0x1
    a3eb:	sub    rdx,rbx
    a3ee:	lea    rdx,[r13+rdx*8+0x0]
    a3f3:	add    QWORD PTR [rdx+0xf8],rbp
    a3fa:	add    DWORD PTR [rdx+0x108],0x1
    a401:	add    QWORD PTR [rdx+0x110],rbp
    a408:	mov    DWORD PTR [rdx+0xec],eax
    a40e:	mov    rbp,QWORD PTR [r12+0x283e8]
    a416:	mov    r13,QWORD PTR [r14+0x8]
    a41a:	lea    rax,[rbx*8+0x0]
    a422:	sub    rax,rbx
    a425:	lea    rdx,[r13+rax*8+0x0]
    a42a:	add    DWORD PTR [rdx+0xf78],0x1
    a431:	test   rbp,rbp
    a434:	je     a475 <hvm_update_short_summary+0x1d5>
    a436:	mov    ecx,DWORD PTR [rip+0x20c9c]        # 2b0d8 <opt+0x38>
    a43c:	movsxd rax,DWORD PTR [rdx+0xf7c]
    a443:	test   ecx,ecx
    a445:	jne    a490 <hvm_update_short_summary+0x1f0>
    a447:	lea    rdx,[rbx*8+0x0]
    a44f:	add    eax,0x1
    a452:	sub    rdx,rbx
    a455:	lea    rdx,[r13+rdx*8+0x0]
    a45a:	add    QWORD PTR [rdx+0xf88],rbp
    a461:	add    DWORD PTR [rdx+0xf98],0x1
    a468:	add    QWORD PTR [rdx+0xfa0],rbp
    a46f:	mov    DWORD PTR [rdx+0xf7c],eax
    a475:	or     BYTE PTR [r12+0x28408],0x1
    a47e:	add    rsp,0x18
    a482:	pop    rbx
    a483:	pop    rbp
    a484:	pop    r12
    a486:	pop    r13
    a488:	pop    r14
    a48a:	pop    r15
    a48c:	ret    
    a48d:	nop    DWORD PTR [rax]
    a490:	mov    edx,DWORD PTR [rdx+0xf80]
    a496:	cmp    edx,eax
    a498:	jg     a560 <hvm_update_short_summary+0x2c0>
    a49e:	mov    r14d,DWORD PTR [rip+0x20c37]        # 2b0dc <opt+0x3c>
    a4a5:	test   eax,eax
    a4a7:	je     a4b7 <hvm_update_short_summary+0x217>
    a4a9:	test   r14d,r14d
    a4ac:	je     a4b7 <hvm_update_short_summary+0x217>
    a4ae:	cmp    edx,r14d
    a4b1:	jge    a600 <hvm_update_short_summary+0x360>
    a4b7:	add    edx,edx
    a4b9:	cmove  edx,ecx
    a4bc:	cmp    edx,r14d
    a4bf:	jle    a620 <hvm_update_short_summary+0x380>
    a4c5:	test   r14d,r14d
    a4c8:	je     a620 <hvm_update_short_summary+0x380>
    a4ce:	lea    rax,[rbx*8+0x0]
    a4d6:	movsxd rsi,r14d
    a4d9:	sub    rax,rbx
    a4dc:	shl    rsi,0x3
    a4e0:	lea    r15,[r13+rax*8+0x0]
    a4e5:	mov    rdi,QWORD PTR [r15+0xf90]
    a4ec:	call   51d0 <realloc@plt>
    a4f1:	test   rax,rax
    a4f4:	je     a610 <hvm_update_short_summary+0x370>
    a4fa:	mov    QWORD PTR [r15+0xf90],rax
    a501:	mov    DWORD PTR [r15+0xf80],r14d
    a508:	lea    rax,[rbx*8+0x0]
    a510:	sub    rax,rbx
    a513:	movsxd rax,DWORD PTR [r13+rax*8+0xf7c]
    a51b:	cmp    eax,r14d
    a51e:	jl     a560 <hvm_update_short_summary+0x2c0>
    a520:	cdq    
    a521:	idiv   r14d
    a524:	lea    ecx,[rax+0x1]
    a527:	mov    esi,edx
    a529:	mov    edx,0x55555556
    a52e:	mov    eax,ecx
    a530:	imul   edx
    a532:	mov    eax,ecx
    a534:	sar    eax,0x1f
    a537:	sub    eax,edx
    a539:	add    eax,esi
    a53b:	cdq    
    a53c:	idiv   ecx
    a53e:	lea    rax,[rbx*8+0x0]
    a546:	sub    rax,rbx
    a549:	test   edx,edx
    a54b:	je     a5c0 <hvm_update_short_summary+0x320>
    a54d:	mov    eax,DWORD PTR [r13+rax*8+0xf7c]
    a555:	jmp    a447 <hvm_update_short_summary+0x1a7>
    a55a:	nop    WORD PTR [rax+rax*1+0x0]
    a560:	lea    rdx,[rbx*8+0x0]
    a568:	sub    rdx,rbx
    a56b:	lea    rdx,[r13+rdx*8+0x0]
    a570:	mov    rcx,QWORD PTR [rdx+0xf90]
    a577:	mov    QWORD PTR [rcx+rax*8],rbp
    a57b:	mov    eax,DWORD PTR [rdx+0xf7c]
    a581:	jmp    a447 <hvm_update_short_summary+0x1a7>
    a586:	nop    WORD PTR cs:[rax+rax*1+0x0]
    a590:	lea    rdx,[rbx*8+0x0]
    a598:	sub    rdx,rbx
    a59b:	lea    rdx,[r13+rdx*8+0x0]
    a5a0:	mov    rcx,QWORD PTR [rdx+0x100]
    a5a7:	mov    QWORD PTR [rcx+rax*8],rbp
    a5ab:	mov    eax,DWORD PTR [rdx+0xec]
    a5b1:	jmp    a3e0 <hvm_update_short_summary+0x140>
    a5b6:	nop    WORD PTR cs:[rax+rax*1+0x0]
    a5c0:	lea    rdx,[r13+rax*8+0x0]
    a5c5:	movsxd rax,esi
    a5c8:	mov    rcx,QWORD PTR [rdx+0xf90]
    a5cf:	mov    QWORD PTR [rcx+rax*8],rbp
    a5d3:	mov    eax,DWORD PTR [rdx+0xf7c]
    a5d9:	jmp    a447 <hvm_update_short_summary+0x1a7>
    a5de:	xchg   ax,ax
    a5e0:	lea    rdx,[r13+rax*8+0x0]
    a5e5:	movsxd rax,esi
    a5e8:	mov    rcx,QWORD PTR [rdx+0x100]
    a5ef:	mov    QWORD PTR [rcx+rax*8],rbp
    a5f3:	mov    eax,DWORD PTR [rdx+0xec]
    a5f9:	jmp    a3e0 <hvm_update_short_summary+0x140>
    a5fe:	xchg   ax,ax
    a600:	mov    r14d,edx
    a603:	jmp    a520 <hvm_update_short_summary+0x280>
    a608:	nop    DWORD PTR [rax+rax*1+0x0]
    a610:	mov    r14d,DWORD PTR [r15+0xf80]
    a617:	jmp    a508 <hvm_update_short_summary+0x268>
    a61c:	nop    DWORD PTR [rax+0x0]
    a620:	mov    r14d,edx
    a623:	jmp    a4ce <hvm_update_short_summary+0x22e>
    a628:	nop    DWORD PTR [rax+rax*1+0x0]
    a630:	mov    r15d,DWORD PTR [rdx+0xf0]
    a637:	jmp    a38b <hvm_update_short_summary+0xeb>
    a63c:	nop    DWORD PTR [rax+0x0]
    a640:	mov    r15d,edx
    a643:	jmp    a347 <hvm_update_short_summary+0xa7>
    a648:	nop    DWORD PTR [rax+rax*1+0x0]

000000000000a650 <shadow_fixup_postprocess>:
    a650:	mov    eax,DWORD PTR [rip+0x20a4e]        # 2b0a4 <opt+0x4>
    a656:	push   r12
    a658:	push   rbp
    a659:	push   rbx
    a65a:	mov    rbx,rdi
    a65d:	test   eax,eax
    a65f:	je     ae25 <shadow_fixup_postprocess+0x7d5>
    a665:	mov    rbp,QWORD PTR [rdi+0x283e8]
    a66c:	add    DWORD PTR [rdi+0x10a28],0x1
    a673:	test   rbp,rbp
    a676:	je     a74e <shadow_fixup_postprocess+0xfe>
    a67c:	movsxd rcx,DWORD PTR [rdi+0x10a2c]
    a683:	mov    edx,DWORD PTR [rip+0x20a4f]        # 2b0d8 <opt+0x38>
    a689:	mov    eax,ecx
    a68b:	test   edx,edx
    a68d:	je     a730 <shadow_fixup_postprocess+0xe0>
    a693:	mov    eax,DWORD PTR [rdi+0x10a30]
    a699:	cmp    eax,ecx
    a69b:	jg     afb8 <shadow_fixup_postprocess+0x968>
    a6a1:	mov    r12d,DWORD PTR [rip+0x20a34]        # 2b0dc <opt+0x3c>
    a6a8:	test   ecx,ecx
    a6aa:	jne    b0b0 <shadow_fixup_postprocess+0xa60>
    a6b0:	add    eax,eax
    a6b2:	cmove  eax,edx
    a6b5:	cmp    eax,r12d
    a6b8:	jle    b1c0 <shadow_fixup_postprocess+0xb70>
    a6be:	test   r12d,r12d
    a6c1:	je     b1c0 <shadow_fixup_postprocess+0xb70>
    a6c7:	movsxd rsi,r12d
    a6ca:	mov    rdi,QWORD PTR [rbx+0x10a40]
    a6d1:	shl    rsi,0x3
    a6d5:	call   51d0 <realloc@plt>
    a6da:	test   rax,rax
    a6dd:	je     b130 <shadow_fixup_postprocess+0xae0>
    a6e3:	mov    QWORD PTR [rbx+0x10a40],rax
    a6ea:	mov    DWORD PTR [rbx+0x10a30],r12d
    a6f1:	movsxd rcx,DWORD PTR [rbx+0x10a2c]
    a6f8:	cmp    ecx,r12d
    a6fb:	jl     afb8 <shadow_fixup_postprocess+0x968>
    a701:	mov    eax,ecx
    a703:	cdq    
    a704:	idiv   r12d
    a707:	lea    esi,[rax+0x1]
    a70a:	movsxd rdi,edx
    a70d:	mov    edx,0x55555556
    a712:	mov    eax,esi
    a714:	imul   edx
    a716:	mov    eax,esi
    a718:	sar    eax,0x1f
    a71b:	sub    eax,edx
    a71d:	add    eax,edi
    a71f:	cdq    
    a720:	idiv   esi
    a722:	mov    eax,ecx
    a724:	test   edx,edx
    a726:	je     b0d0 <shadow_fixup_postprocess+0xa80>
    a72c:	nop    DWORD PTR [rax+0x0]
    a730:	add    eax,0x1
    a733:	add    QWORD PTR [rbx+0x10a38],rbp
    a73a:	add    DWORD PTR [rbx+0x10a48],0x1
    a741:	add    QWORD PTR [rbx+0x10a50],rbp
    a748:	mov    DWORD PTR [rbx+0x10a2c],eax
    a74e:	test   BYTE PTR [rbx+0x28408],0x2
    a755:	je     a85e <shadow_fixup_postprocess+0x20e>
    a75b:	mov    rbp,QWORD PTR [rbx+0x283e8]
    a762:	add    DWORD PTR [rbx+0x110f0],0x1
    a769:	test   rbp,rbp
    a76c:	je     a85e <shadow_fixup_postprocess+0x20e>
    a772:	movsxd rcx,DWORD PTR [rbx+0x110f4]
    a779:	mov    edx,DWORD PTR [rip+0x20959]        # 2b0d8 <opt+0x38>
    a77f:	mov    eax,ecx
    a781:	test   edx,edx
    a783:	je     a840 <shadow_fixup_postprocess+0x1f0>
    a789:	mov    eax,DWORD PTR [rbx+0x110f8]
    a78f:	cmp    eax,ecx
    a791:	jg     b0f0 <shadow_fixup_postprocess+0xaa0>
    a797:	mov    r12d,DWORD PTR [rip+0x2093e]        # 2b0dc <opt+0x3c>
    a79e:	test   ecx,ecx
    a7a0:	je     a7b0 <shadow_fixup_postprocess+0x160>
    a7a2:	cmp    eax,r12d
    a7a5:	jl     a7b0 <shadow_fixup_postprocess+0x160>
    a7a7:	test   r12d,r12d
    a7aa:	jne    b27c <shadow_fixup_postprocess+0xc2c>
    a7b0:	add    eax,eax
    a7b2:	cmove  eax,edx
    a7b5:	test   r12d,r12d
    a7b8:	je     b22c <shadow_fixup_postprocess+0xbdc>
    a7be:	cmp    eax,r12d
    a7c1:	jle    b22c <shadow_fixup_postprocess+0xbdc>
    a7c7:	movsxd rsi,r12d
    a7ca:	mov    rdi,QWORD PTR [rbx+0x11108]
    a7d1:	shl    rsi,0x3
    a7d5:	call   51d0 <realloc@plt>
    a7da:	test   rax,rax
    a7dd:	je     b220 <shadow_fixup_postprocess+0xbd0>
    a7e3:	mov    QWORD PTR [rbx+0x11108],rax
    a7ea:	mov    DWORD PTR [rbx+0x110f8],r12d
    a7f1:	movsxd rcx,DWORD PTR [rbx+0x110f4]
    a7f8:	cmp    ecx,r12d
    a7fb:	jl     b0f0 <shadow_fixup_postprocess+0xaa0>
    a801:	mov    eax,ecx
    a803:	cdq    
    a804:	idiv   r12d
    a807:	lea    esi,[rax+0x1]
    a80a:	movsxd rdi,edx
    a80d:	mov    edx,0x55555556
    a812:	mov    eax,esi
    a814:	imul   edx
    a816:	mov    eax,esi
    a818:	sar    eax,0x1f
    a81b:	sub    eax,edx
    a81d:	add    eax,edi
    a81f:	cdq    
    a820:	idiv   esi
    a822:	mov    eax,ecx
    a824:	test   edx,edx
    a826:	jne    a840 <shadow_fixup_postprocess+0x1f0>
    a828:	mov    rax,QWORD PTR [rbx+0x11108]
    a82f:	mov    QWORD PTR [rax+rdi*8],rbp
    a833:	mov    eax,DWORD PTR [rbx+0x110f4]
    a839:	nop    DWORD PTR [rax+0x0]
    a840:	add    eax,0x1
    a843:	add    QWORD PTR [rbx+0x11100],rbp
    a84a:	add    DWORD PTR [rbx+0x11110],0x1
    a851:	add    QWORD PTR [rbx+0x11118],rbp
    a858:	mov    DWORD PTR [rbx+0x110f4],eax
    a85e:	movzx  edx,BYTE PTR [rbx+0x28352]
    a865:	mov    eax,edx
    a867:	test   dl,0x4
    a86a:	je     a9a1 <shadow_fixup_postprocess+0x351>
    a870:	mov    rbp,QWORD PTR [rbx+0x283e8]
    a877:	add    DWORD PTR [rbx+0x11160],0x1
    a87e:	test   rbp,rbp
    a881:	je     af38 <shadow_fixup_postprocess+0x8e8>
    a887:	movsxd rcx,DWORD PTR [rbx+0x11164]
    a88e:	mov    edx,DWORD PTR [rip+0x20844]        # 2b0d8 <opt+0x38>
    a894:	mov    rsi,rbp
    a897:	mov    eax,ecx
    a899:	test   edx,edx
    a89b:	je     a950 <shadow_fixup_postprocess+0x300>
    a8a1:	mov    eax,DWORD PTR [rbx+0x11168]
    a8a7:	cmp    eax,ecx
    a8a9:	jg     b010 <shadow_fixup_postprocess+0x9c0>
    a8af:	mov    r12d,DWORD PTR [rip+0x20826]        # 2b0dc <opt+0x3c>
    a8b6:	test   ecx,ecx
    a8b8:	je     a8c8 <shadow_fixup_postprocess+0x278>
    a8ba:	test   r12d,r12d
    a8bd:	je     a8c8 <shadow_fixup_postprocess+0x278>
    a8bf:	cmp    eax,r12d
    a8c2:	jge    b25c <shadow_fixup_postprocess+0xc0c>
    a8c8:	add    eax,eax
    a8ca:	cmove  eax,edx
    a8cd:	test   r12d,r12d
    a8d0:	je     b254 <shadow_fixup_postprocess+0xc04>
    a8d6:	cmp    eax,r12d
    a8d9:	jle    b254 <shadow_fixup_postprocess+0xc04>
    a8df:	movsxd rsi,r12d
    a8e2:	mov    rdi,QWORD PTR [rbx+0x11178]
    a8e9:	shl    rsi,0x3
    a8ed:	call   51d0 <realloc@plt>
    a8f2:	test   rax,rax
    a8f5:	je     b1d0 <shadow_fixup_postprocess+0xb80>
    a8fb:	mov    QWORD PTR [rbx+0x11178],rax
    a902:	mov    DWORD PTR [rbx+0x11168],r12d
    a909:	movsxd rcx,DWORD PTR [rbx+0x11164]
    a910:	cmp    ecx,r12d
    a913:	jl     b010 <shadow_fixup_postprocess+0x9c0>
    a919:	mov    eax,ecx
    a91b:	cdq    
    a91c:	idiv   r12d
    a91f:	lea    esi,[rax+0x1]
    a922:	movsxd rdi,edx
    a925:	mov    edx,0x55555556
    a92a:	mov    eax,esi
    a92c:	imul   edx
    a92e:	mov    eax,esi
    a930:	sar    eax,0x1f
    a933:	sub    eax,edx
    a935:	add    eax,edi
    a937:	cdq    
    a938:	idiv   esi
    a93a:	test   edx,edx
    a93c:	je     b140 <shadow_fixup_postprocess+0xaf0>
    a942:	mov    rsi,QWORD PTR [rbx+0x283e8]
    a949:	mov    eax,ecx
    a94b:	nop    DWORD PTR [rax+rax*1+0x0]
    a950:	add    eax,0x1
    a953:	add    QWORD PTR [rbx+0x11170],rbp
    a95a:	mov    DWORD PTR [rbx+0x11164],eax
    a960:	movsxd rax,DWORD PTR [rbx+0x283d0]
    a967:	add    DWORD PTR [rbx+0x11180],0x1
    a96e:	add    QWORD PTR [rbx+0x11188],rbp
    a975:	cmp    eax,0x1
    a978:	jle    afd0 <shadow_fixup_postprocess+0x980>
    a97e:	add    DWORD PTR [rbx+0x11358],0x1
    a985:	test   rsi,rsi
    a988:	je     b28c <shadow_fixup_postprocess+0xc3c>
    a98e:	lea    rdi,[rbx+0x11358]
    a995:	call   56e0 <update_cycles.part.5>
    a99a:	movzx  eax,BYTE PTR [rbx+0x28352]
    a9a1:	test   al,0x8
    a9a3:	je     aaa6 <shadow_fixup_postprocess+0x456>
    a9a9:	mov    rbp,QWORD PTR [rbx+0x283e8]
    a9b0:	add    DWORD PTR [rbx+0x11198],0x1
    a9b7:	test   rbp,rbp
    a9ba:	je     aaa6 <shadow_fixup_postprocess+0x456>
    a9c0:	movsxd rcx,DWORD PTR [rbx+0x1119c]
    a9c7:	mov    esi,DWORD PTR [rip+0x2070b]        # 2b0d8 <opt+0x38>
    a9cd:	mov    edx,ecx
    a9cf:	test   esi,esi
    a9d1:	je     aa88 <shadow_fixup_postprocess+0x438>
    a9d7:	mov    eax,DWORD PTR [rbx+0x111a0]
    a9dd:	cmp    eax,ecx
    a9df:	jg     b030 <shadow_fixup_postprocess+0x9e0>
    a9e5:	mov    r12d,DWORD PTR [rip+0x206f0]        # 2b0dc <opt+0x3c>
    a9ec:	test   ecx,ecx
    a9ee:	je     a9fe <shadow_fixup_postprocess+0x3ae>
    a9f0:	test   r12d,r12d
    a9f3:	je     a9fe <shadow_fixup_postprocess+0x3ae>
    a9f5:	cmp    eax,r12d
    a9f8:	jge    b26c <shadow_fixup_postprocess+0xc1c>
    a9fe:	add    eax,eax
    aa00:	cmove  eax,esi
    aa03:	test   r12d,r12d
    aa06:	je     b244 <shadow_fixup_postprocess+0xbf4>
    aa0c:	cmp    eax,r12d
    aa0f:	jle    b244 <shadow_fixup_postprocess+0xbf4>
    aa15:	movsxd rsi,r12d
    aa18:	mov    rdi,QWORD PTR [rbx+0x111b0]
    aa1f:	shl    rsi,0x3
    aa23:	call   51d0 <realloc@plt>
    aa28:	test   rax,rax
    aa2b:	je     b1e0 <shadow_fixup_postprocess+0xb90>
    aa31:	mov    QWORD PTR [rbx+0x111b0],rax
    aa38:	mov    DWORD PTR [rbx+0x111a0],r12d
    aa3f:	movsxd rcx,DWORD PTR [rbx+0x1119c]
    aa46:	cmp    ecx,r12d
    aa49:	jl     b030 <shadow_fixup_postprocess+0x9e0>
    aa4f:	mov    eax,ecx
    aa51:	cdq    
    aa52:	idiv   r12d
    aa55:	lea    esi,[rax+0x1]
    aa58:	movsxd rdi,edx
    aa5b:	mov    edx,0x55555556
    aa60:	mov    eax,esi
    aa62:	imul   edx
    aa64:	mov    eax,esi
    aa66:	sar    eax,0x1f
    aa69:	sub    eax,edx
    aa6b:	add    eax,edi
    aa6d:	cdq    
    aa6e:	idiv   esi
    aa70:	test   edx,edx
    aa72:	je     b180 <shadow_fixup_postprocess+0xb30>
    aa78:	movzx  eax,BYTE PTR [rbx+0x28352]
    aa7f:	mov    edx,ecx
    aa81:	nop    DWORD PTR [rax+0x0]
    aa88:	add    edx,0x1
    aa8b:	add    QWORD PTR [rbx+0x111a8],rbp
    aa92:	add    DWORD PTR [rbx+0x111b8],0x1
    aa99:	add    QWORD PTR [rbx+0x111c0],rbp
    aaa0:	mov    DWORD PTR [rbx+0x1119c],edx
    aaa6:	test   al,0x10
    aaa8:	je     abae <shadow_fixup_postprocess+0x55e>
    aaae:	mov    rbp,QWORD PTR [rbx+0x283e8]
    aab5:	add    DWORD PTR [rbx+0x111d0],0x1
    aabc:	test   rbp,rbp
    aabf:	je     abae <shadow_fixup_postprocess+0x55e>
    aac5:	movsxd rcx,DWORD PTR [rbx+0x111d4]
    aacc:	mov    edx,DWORD PTR [rip+0x20606]        # 2b0d8 <opt+0x38>
    aad2:	mov    eax,ecx
    aad4:	test   edx,edx
    aad6:	je     ab90 <shadow_fixup_postprocess+0x540>
    aadc:	mov    eax,DWORD PTR [rbx+0x111d8]
    aae2:	cmp    eax,ecx
    aae4:	jg     b050 <shadow_fixup_postprocess+0xa00>
    aaea:	mov    r12d,DWORD PTR [rip+0x205eb]        # 2b0dc <opt+0x3c>
    aaf1:	test   ecx,ecx
    aaf3:	je     ab03 <shadow_fixup_postprocess+0x4b3>
    aaf5:	cmp    eax,r12d
    aaf8:	jl     ab03 <shadow_fixup_postprocess+0x4b3>
    aafa:	test   r12d,r12d
    aafd:	jne    b284 <shadow_fixup_postprocess+0xc34>
    ab03:	add    eax,eax
    ab05:	cmove  eax,edx
    ab08:	cmp    eax,r12d
    ab0b:	jle    b24c <shadow_fixup_postprocess+0xbfc>
    ab11:	test   r12d,r12d
    ab14:	je     b24c <shadow_fixup_postprocess+0xbfc>
    ab1a:	movsxd rsi,r12d
    ab1d:	mov    rdi,QWORD PTR [rbx+0x111e8]
    ab24:	shl    rsi,0x3
    ab28:	call   51d0 <realloc@plt>
    ab2d:	test   rax,rax
    ab30:	je     b1f0 <shadow_fixup_postprocess+0xba0>
    ab36:	mov    QWORD PTR [rbx+0x111e8],rax
    ab3d:	mov    DWORD PTR [rbx+0x111d8],r12d
    ab44:	movsxd rcx,DWORD PTR [rbx+0x111d4]
    ab4b:	cmp    ecx,r12d
    ab4e:	jl     b050 <shadow_fixup_postprocess+0xa00>
    ab54:	mov    eax,ecx
    ab56:	cdq    
    ab57:	idiv   r12d
    ab5a:	lea    esi,[rax+0x1]
    ab5d:	movsxd rdi,edx
    ab60:	mov    edx,0x55555556
    ab65:	mov    eax,esi
    ab67:	imul   edx
    ab69:	mov    eax,esi
    ab6b:	sar    eax,0x1f
    ab6e:	sub    eax,edx
    ab70:	add    eax,edi
    ab72:	cdq    
    ab73:	idiv   esi
    ab75:	mov    eax,ecx
    ab77:	test   edx,edx
    ab79:	jne    ab90 <shadow_fixup_postprocess+0x540>
    ab7b:	mov    rax,QWORD PTR [rbx+0x111e8]
    ab82:	mov    QWORD PTR [rax+rdi*8],rbp
    ab86:	mov    eax,DWORD PTR [rbx+0x111d4]
    ab8c:	nop    DWORD PTR [rax+0x0]
    ab90:	add    eax,0x1
    ab93:	add    QWORD PTR [rbx+0x111e0],rbp
    ab9a:	add    DWORD PTR [rbx+0x111f0],0x1
    aba1:	add    QWORD PTR [rbx+0x111f8],rbp
    aba8:	mov    DWORD PTR [rbx+0x111d4],eax
    abae:	movzx  eax,BYTE PTR [rbx+0x28351]
    abb5:	mov    edx,eax
    abb7:	test   al,0x2
    abb9:	je     acbe <shadow_fixup_postprocess+0x66e>
    abbf:	mov    rbp,QWORD PTR [rbx+0x283e8]
    abc6:	add    DWORD PTR [rbx+0x11208],0x1
    abcd:	test   rbp,rbp
    abd0:	je     ae80 <shadow_fixup_postprocess+0x830>
    abd6:	movsxd rcx,DWORD PTR [rbx+0x1120c]
    abdd:	mov    edi,DWORD PTR [rip+0x204f5]        # 2b0d8 <opt+0x38>
    abe3:	mov    esi,ecx
    abe5:	test   edi,edi
    abe7:	je     aca0 <shadow_fixup_postprocess+0x650>
    abed:	mov    eax,DWORD PTR [rbx+0x11210]
    abf3:	cmp    eax,ecx
    abf5:	jg     b090 <shadow_fixup_postprocess+0xa40>
    abfb:	mov    r12d,DWORD PTR [rip+0x204da]        # 2b0dc <opt+0x3c>
    ac02:	test   ecx,ecx
    ac04:	je     ac14 <shadow_fixup_postprocess+0x5c4>
    ac06:	test   r12d,r12d
    ac09:	je     ac14 <shadow_fixup_postprocess+0x5c4>
    ac0b:	cmp    eax,r12d
    ac0e:	jge    b264 <shadow_fixup_postprocess+0xc14>
    ac14:	add    eax,eax
    ac16:	cmove  eax,edi
    ac19:	test   r12d,r12d
    ac1c:	je     b23c <shadow_fixup_postprocess+0xbec>
    ac22:	cmp    eax,r12d
    ac25:	jle    b23c <shadow_fixup_postprocess+0xbec>
    ac2b:	movsxd rsi,r12d
    ac2e:	mov    rdi,QWORD PTR [rbx+0x11220]
    ac35:	shl    rsi,0x3
    ac39:	call   51d0 <realloc@plt>
    ac3e:	test   rax,rax
    ac41:	je     b210 <shadow_fixup_postprocess+0xbc0>
    ac47:	mov    QWORD PTR [rbx+0x11220],rax
    ac4e:	mov    DWORD PTR [rbx+0x11210],r12d
    ac55:	movsxd rcx,DWORD PTR [rbx+0x1120c]
    ac5c:	cmp    ecx,r12d
    ac5f:	jl     b090 <shadow_fixup_postprocess+0xa40>
    ac65:	mov    eax,ecx
    ac67:	cdq    
    ac68:	idiv   r12d
    ac6b:	lea    esi,[rax+0x1]
    ac6e:	movsxd rdi,edx
    ac71:	mov    edx,0x55555556
    ac76:	mov    eax,esi
    ac78:	imul   edx
    ac7a:	mov    eax,esi
    ac7c:	sar    eax,0x1f
    ac7f:	sub    eax,edx
    ac81:	add    eax,edi
    ac83:	cdq    
    ac84:	idiv   esi
    ac86:	test   edx,edx
    ac88:	je     b160 <shadow_fixup_postprocess+0xb10>
    ac8e:	movzx  eax,BYTE PTR [rbx+0x28351]
    ac95:	mov    esi,ecx
    ac97:	mov    edx,eax
    ac99:	nop    DWORD PTR [rax+0x0]
    aca0:	add    esi,0x1
    aca3:	add    QWORD PTR [rbx+0x11218],rbp
    acaa:	add    DWORD PTR [rbx+0x11228],0x1
    acb1:	add    QWORD PTR [rbx+0x11230],rbp
    acb8:	mov    DWORD PTR [rbx+0x1120c],esi
    acbe:	test   al,0x4
    acc0:	je     ae90 <shadow_fixup_postprocess+0x840>
    acc6:	mov    rbp,QWORD PTR [rbx+0x283e8]
    accd:	add    DWORD PTR [rbx+0x11278],0x1
    acd4:	test   rbp,rbp
    acd7:	je     af7f <shadow_fixup_postprocess+0x92f>
    acdd:	movsxd rcx,DWORD PTR [rbx+0x1127c]
    ace4:	mov    esi,DWORD PTR [rip+0x203ee]        # 2b0d8 <opt+0x38>
    acea:	mov    edx,ecx
    acec:	test   esi,esi
    acee:	je     ada0 <shadow_fixup_postprocess+0x750>
    acf4:	mov    eax,DWORD PTR [rbx+0x11280]
    acfa:	cmp    eax,ecx
    acfc:	jg     b070 <shadow_fixup_postprocess+0xa20>
    ad02:	mov    r12d,DWORD PTR [rip+0x203d3]        # 2b0dc <opt+0x3c>
    ad09:	test   ecx,ecx
    ad0b:	je     ad1b <shadow_fixup_postprocess+0x6cb>
    ad0d:	test   r12d,r12d
    ad10:	je     ad1b <shadow_fixup_postprocess+0x6cb>
    ad12:	cmp    eax,r12d
    ad15:	jge    b274 <shadow_fixup_postprocess+0xc24>
    ad1b:	add    eax,eax
    ad1d:	cmove  eax,esi
    ad20:	cmp    eax,r12d
    ad23:	jle    b234 <shadow_fixup_postprocess+0xbe4>
    ad29:	test   r12d,r12d
    ad2c:	je     b234 <shadow_fixup_postprocess+0xbe4>
    ad32:	movsxd rsi,r12d
    ad35:	mov    rdi,QWORD PTR [rbx+0x11290]
    ad3c:	shl    rsi,0x3
    ad40:	call   51d0 <realloc@plt>
    ad45:	test   rax,rax
    ad48:	je     b200 <shadow_fixup_postprocess+0xbb0>
    ad4e:	mov    QWORD PTR [rbx+0x11290],rax
    ad55:	mov    DWORD PTR [rbx+0x11280],r12d
    ad5c:	movsxd rcx,DWORD PTR [rbx+0x1127c]
    ad63:	cmp    ecx,r12d
    ad66:	jl     b070 <shadow_fixup_postprocess+0xa20>
    ad6c:	mov    eax,ecx
    ad6e:	cdq    
    ad6f:	idiv   r12d
    ad72:	lea    esi,[rax+0x1]
    ad75:	movsxd rdi,edx
    ad78:	mov    edx,0x55555556
    ad7d:	mov    eax,esi
    ad7f:	imul   edx
    ad81:	mov    eax,esi
    ad83:	sar    eax,0x1f
    ad86:	sub    eax,edx
    ad88:	add    eax,edi
    ad8a:	cdq    
    ad8b:	idiv   esi
    ad8d:	test   edx,edx
    ad8f:	je     b1a0 <shadow_fixup_postprocess+0xb50>
    ad95:	movzx  eax,BYTE PTR [rbx+0x28351]
    ad9c:	mov    edx,ecx
    ad9e:	xchg   ax,ax
    ada0:	add    edx,0x1
    ada3:	add    QWORD PTR [rbx+0x11288],rbp
    adaa:	mov    DWORD PTR [rbx+0x1127c],edx
    adb0:	add    DWORD PTR [rbx+0x11298],0x1
    adb7:	add    QWORD PTR [rbx+0x112a0],rbp
    adbe:	test   al,0x10
    adc0:	jne    adcf <shadow_fixup_postprocess+0x77f>
    adc2:	test   BYTE PTR [rbx+0x28408],0x4
    adc9:	je     af93 <shadow_fixup_postprocess+0x943>
    adcf:	mov    rsi,QWORD PTR [rbx+0x283e8]
    add6:	lea    rdi,[rbx+0x112b0]
    addd:	add    DWORD PTR [rbx+0x112b0],0x1
    ade4:	test   rsi,rsi
    ade7:	je     af93 <shadow_fixup_postprocess+0x943>
    aded:	call   56e0 <update_cycles.part.5>
    adf2:	movzx  edx,BYTE PTR [rbx+0x28351]
    adf9:	movzx  eax,BYTE PTR [rbx+0x28352]
    ae00:	and    eax,0x4
    ae03:	and    edx,0x2
    ae06:	je     aed4 <shadow_fixup_postprocess+0x884>
    ae0c:	nop    DWORD PTR [rax+0x0]
    ae10:	test   al,al
    ae12:	je     afa0 <shadow_fixup_postprocess+0x950>
    ae18:	mov    esi,0x1
    ae1d:	mov    rdi,rbx
    ae20:	call   a2a0 <hvm_update_short_summary>
    ae25:	test   BYTE PTR [rip+0x20274],0x2        # 2b0a0 <opt>
    ae2c:	je     ae78 <shadow_fixup_postprocess+0x828>
    ae2e:	test   BYTE PTR [rbx+0x28408],0x2
    ae35:	jne    af20 <shadow_fixup_postprocess+0x8d0>
    ae3b:	test   BYTE PTR [rbx+0x28351],0x2
    ae42:	je     ae78 <shadow_fixup_postprocess+0x828>
    ae44:	test   BYTE PTR [rip+0x20257],0x20        # 2b0a2 <opt+0x2>
    ae4b:	je     af60 <shadow_fixup_postprocess+0x910>
    ae51:	mov    rax,QWORD PTR [rbx+0x10]
    ae55:	mov    rax,QWORD PTR [rax+0x70]
    ae59:	test   rax,rax
    ae5c:	je     ae78 <shadow_fixup_postprocess+0x828>
    ae5e:	mov    rdi,QWORD PTR [rbx+0x283e0]
    ae65:	movsxd rsi,DWORD PTR [rax+0x18]
    ae69:	pop    rbx
    ae6a:	pop    rbp
    ae6b:	pop    r12
    ae6d:	jmp    8200 <scatterplot_vs_time>
    ae72:	nop    WORD PTR [rax+rax*1+0x0]
    ae78:	pop    rbx
    ae79:	pop    rbp
    ae7a:	pop    r12
    ae7c:	ret    
    ae7d:	nop    DWORD PTR [rax]
    ae80:	test   al,0x4
    ae82:	jne    af78 <shadow_fixup_postprocess+0x928>
    ae88:	nop    DWORD PTR [rax+rax*1+0x0]
    ae90:	test   al,0x10
    ae92:	jne    ae9d <shadow_fixup_postprocess+0x84d>
    ae94:	test   BYTE PTR [rbx+0x28408],0x4
    ae9b:	je     aec1 <shadow_fixup_postprocess+0x871>
    ae9d:	mov    rcx,QWORD PTR [rip+0x5c3b4]        # 67258 <warn>
    aea4:	mov    edx,0x21
    aea9:	mov    esi,0x1
    aeae:	lea    rdi,[rip+0x15b73]        # 20a28 <_IO_stdin_used+0x2a28>
    aeb5:	call   5260 <fwrite@plt>
    aeba:	movzx  edx,BYTE PTR [rbx+0x28351]
    aec1:	movzx  eax,BYTE PTR [rbx+0x28352]
    aec8:	and    eax,0x4
    aecb:	and    edx,0x2
    aece:	jne    ae10 <shadow_fixup_postprocess+0x7c0>
    aed4:	test   BYTE PTR [rbx+0x28408],0x2
    aedb:	jne    ae10 <shadow_fixup_postprocess+0x7c0>
    aee1:	test   al,al
    aee3:	jne    ae18 <shadow_fixup_postprocess+0x7c8>
    aee9:	mov    rsi,QWORD PTR [rbx+0x283e8]
    aef0:	add    DWORD PTR [rbx+0x11240],0x1
    aef7:	test   rsi,rsi
    aefa:	je     afa0 <shadow_fixup_postprocess+0x950>
    af00:	lea    rdi,[rbx+0x11240]
    af07:	call   56e0 <update_cycles.part.5>
    af0c:	movzx  eax,BYTE PTR [rbx+0x28352]
    af13:	and    eax,0x4
    af16:	jmp    ae10 <shadow_fixup_postprocess+0x7c0>
    af1b:	nop    DWORD PTR [rax+rax*1+0x0]
    af20:	mov    rdi,QWORD PTR [rbx+0x283e0]
    af27:	xor    esi,esi
    af29:	call   8200 <scatterplot_vs_time>
    af2e:	jmp    ae3b <shadow_fixup_postprocess+0x7eb>
    af33:	nop    DWORD PTR [rax+rax*1+0x0]
    af38:	movsxd rcx,DWORD PTR [rbx+0x283d0]
    af3f:	cmp    ecx,0x1
    af42:	jle    b110 <shadow_fixup_postprocess+0xac0>
    af48:	add    DWORD PTR [rbx+0x11358],0x1
    af4f:	mov    eax,edx
    af51:	jmp    a9a1 <shadow_fixup_postprocess+0x351>
    af56:	nop    WORD PTR cs:[rax+rax*1+0x0]
    af60:	mov    rdi,QWORD PTR [rbx+0x283e0]
    af67:	mov    esi,0x2
    af6c:	pop    rbx
    af6d:	pop    rbp
    af6e:	pop    r12
    af70:	jmp    8200 <scatterplot_vs_time>
    af75:	nop    DWORD PTR [rax]
    af78:	add    DWORD PTR [rbx+0x11278],0x1
    af7f:	test   al,0x10
    af81:	jne    b000 <shadow_fixup_postprocess+0x9b0>
    af83:	test   BYTE PTR [rbx+0x28408],0x4
    af8a:	je     af93 <shadow_fixup_postprocess+0x943>
    af8c:	add    DWORD PTR [rbx+0x112b0],0x1
    af93:	mov    edx,eax
    af95:	jmp    aec1 <shadow_fixup_postprocess+0x871>
    af9a:	nop    WORD PTR [rax+rax*1+0x0]
    afa0:	mov    esi,0x2
    afa5:	mov    rdi,rbx
    afa8:	call   a2a0 <hvm_update_short_summary>
    afad:	jmp    ae25 <shadow_fixup_postprocess+0x7d5>
    afb2:	nop    WORD PTR [rax+rax*1+0x0]
    afb8:	mov    rax,QWORD PTR [rbx+0x10a40]
    afbf:	mov    QWORD PTR [rax+rcx*8],rbp
    afc3:	mov    eax,DWORD PTR [rbx+0x10a2c]
    afc9:	jmp    a730 <shadow_fixup_postprocess+0xe0>
    afce:	xchg   ax,ax
    afd0:	lea    rdx,[rax*8+0x0]
    afd8:	sub    rdx,rax
    afdb:	mov    rax,rdx
    afde:	shl    rax,0x3
    afe2:	lea    rdi,[rbx+rax*1+0x112e8]
    afea:	add    DWORD PTR [rbx+rax*1+0x112e8],0x1
    aff2:	test   rsi,rsi
    aff5:	jne    a995 <shadow_fixup_postprocess+0x345>
    affb:	jmp    a99a <shadow_fixup_postprocess+0x34a>
    b000:	add    DWORD PTR [rbx+0x112b0],0x1
    b007:	jmp    aec1 <shadow_fixup_postprocess+0x871>
    b00c:	nop    DWORD PTR [rax+0x0]
    b010:	mov    rax,QWORD PTR [rbx+0x11178]
    b017:	mov    QWORD PTR [rax+rcx*8],rbp
    b01b:	mov    rsi,QWORD PTR [rbx+0x283e8]
    b022:	mov    eax,DWORD PTR [rbx+0x11164]
    b028:	jmp    a950 <shadow_fixup_postprocess+0x300>
    b02d:	nop    DWORD PTR [rax]
    b030:	mov    rax,QWORD PTR [rbx+0x111b0]
    b037:	mov    QWORD PTR [rax+rcx*8],rbp
    b03b:	mov    edx,DWORD PTR [rbx+0x1119c]
    b041:	movzx  eax,BYTE PTR [rbx+0x28352]
    b048:	jmp    aa88 <shadow_fixup_postprocess+0x438>
    b04d:	nop    DWORD PTR [rax]
    b050:	mov    rax,QWORD PTR [rbx+0x111e8]
    b057:	mov    QWORD PTR [rax+rcx*8],rbp
    b05b:	mov    eax,DWORD PTR [rbx+0x111d4]
    b061:	jmp    ab90 <shadow_fixup_postprocess+0x540>
    b066:	nop    WORD PTR cs:[rax+rax*1+0x0]
    b070:	mov    rax,QWORD PTR [rbx+0x11290]
    b077:	mov    QWORD PTR [rax+rcx*8],rbp
    b07b:	movzx  eax,BYTE PTR [rbx+0x28351]
    b082:	mov    edx,DWORD PTR [rbx+0x1127c]
    b088:	jmp    ada0 <shadow_fixup_postprocess+0x750>
    b08d:	nop    DWORD PTR [rax]
    b090:	mov    rax,QWORD PTR [rbx+0x11220]
    b097:	mov    QWORD PTR [rax+rcx*8],rbp
    b09b:	movzx  eax,BYTE PTR [rbx+0x28351]
    b0a2:	mov    esi,DWORD PTR [rbx+0x1120c]
    b0a8:	mov    edx,eax
    b0aa:	jmp    aca0 <shadow_fixup_postprocess+0x650>
    b0af:	nop
    b0b0:	cmp    eax,r12d
    b0b3:	jl     a6b0 <shadow_fixup_postprocess+0x60>
    b0b9:	test   r12d,r12d
    b0bc:	je     a6b0 <shadow_fixup_postprocess+0x60>
    b0c2:	mov    r12d,eax
    b0c5:	jmp    a701 <shadow_fixup_postprocess+0xb1>
    b0ca:	nop    WORD PTR [rax+rax*1+0x0]
    b0d0:	mov    rax,QWORD PTR [rbx+0x10a40]
    b0d7:	mov    QWORD PTR [rax+rdi*8],rbp
    b0db:	mov    eax,DWORD PTR [rbx+0x10a2c]
    b0e1:	jmp    a730 <shadow_fixup_postprocess+0xe0>
    b0e6:	nop    WORD PTR cs:[rax+rax*1+0x0]
    b0f0:	mov    rax,QWORD PTR [rbx+0x11108]
    b0f7:	mov    QWORD PTR [rax+rcx*8],rbp
    b0fb:	mov    eax,DWORD PTR [rbx+0x110f4]
    b101:	jmp    a840 <shadow_fixup_postprocess+0x1f0>
    b106:	nop    WORD PTR cs:[rax+rax*1+0x0]
    b110:	lea    rdx,[rcx*8+0x0]
    b118:	sub    rdx,rcx
    b11b:	add    DWORD PTR [rbx+rdx*8+0x112e8],0x1
    b123:	jmp    a9a1 <shadow_fixup_postprocess+0x351>
    b128:	nop    DWORD PTR [rax+rax*1+0x0]
    b130:	mov    r12d,DWORD PTR [rbx+0x10a30]
    b137:	jmp    a6f1 <shadow_fixup_postprocess+0xa1>
    b13c:	nop    DWORD PTR [rax+0x0]
    b140:	mov    rax,QWORD PTR [rbx+0x11178]
    b147:	mov    QWORD PTR [rax+rdi*8],rbp
    b14b:	mov    rsi,QWORD PTR [rbx+0x283e8]
    b152:	mov    eax,DWORD PTR [rbx+0x11164]
    b158:	jmp    a950 <shadow_fixup_postprocess+0x300>
    b15d:	nop    DWORD PTR [rax]
    b160:	mov    rax,QWORD PTR [rbx+0x11220]
    b167:	mov    QWORD PTR [rax+rdi*8],rbp
    b16b:	movzx  eax,BYTE PTR [rbx+0x28351]
    b172:	mov    esi,DWORD PTR [rbx+0x1120c]
    b178:	mov    edx,eax
    b17a:	jmp    aca0 <shadow_fixup_postprocess+0x650>
    b17f:	nop
    b180:	mov    rax,QWORD PTR [rbx+0x111b0]
    b187:	mov    QWORD PTR [rax+rdi*8],rbp
    b18b:	mov    edx,DWORD PTR [rbx+0x1119c]
    b191:	movzx  eax,BYTE PTR [rbx+0x28352]
    b198:	jmp    aa88 <shadow_fixup_postprocess+0x438>
    b19d:	nop    DWORD PTR [rax]
    b1a0:	mov    rax,QWORD PTR [rbx+0x11290]
    b1a7:	mov    QWORD PTR [rax+rdi*8],rbp
    b1ab:	movzx  eax,BYTE PTR [rbx+0x28351]
    b1b2:	mov    edx,DWORD PTR [rbx+0x1127c]
    b1b8:	jmp    ada0 <shadow_fixup_postprocess+0x750>
    b1bd:	nop    DWORD PTR [rax]
    b1c0:	mov    r12d,eax
    b1c3:	jmp    a6c7 <shadow_fixup_postprocess+0x77>
    b1c8:	nop    DWORD PTR [rax+rax*1+0x0]
    b1d0:	mov    r12d,DWORD PTR [rbx+0x11168]
    b1d7:	jmp    a909 <shadow_fixup_postprocess+0x2b9>
    b1dc:	nop    DWORD PTR [rax+0x0]
    b1e0:	mov    r12d,DWORD PTR [rbx+0x111a0]
    b1e7:	jmp    aa3f <shadow_fixup_postprocess+0x3ef>
    b1ec:	nop    DWORD PTR [rax+0x0]
    b1f0:	mov    r12d,DWORD PTR [rbx+0x111d8]
    b1f7:	jmp    ab44 <shadow_fixup_postprocess+0x4f4>
    b1fc:	nop    DWORD PTR [rax+0x0]
    b200:	mov    r12d,DWORD PTR [rbx+0x11280]
    b207:	jmp    ad5c <shadow_fixup_postprocess+0x70c>
    b20c:	nop    DWORD PTR [rax+0x0]
    b210:	mov    r12d,DWORD PTR [rbx+0x11210]
    b217:	jmp    ac55 <shadow_fixup_postprocess+0x605>
    b21c:	nop    DWORD PTR [rax+0x0]
    b220:	mov    r12d,DWORD PTR [rbx+0x110f8]
    b227:	jmp    a7f1 <shadow_fixup_postprocess+0x1a1>
    b22c:	mov    r12d,eax
    b22f:	jmp    a7c7 <shadow_fixup_postprocess+0x177>
    b234:	mov    r12d,eax
    b237:	jmp    ad32 <shadow_fixup_postprocess+0x6e2>
    b23c:	mov    r12d,eax
    b23f:	jmp    ac2b <shadow_fixup_postprocess+0x5db>
    b244:	mov    r12d,eax
    b247:	jmp    aa15 <shadow_fixup_postprocess+0x3c5>
    b24c:	mov    r12d,eax
    b24f:	jmp    ab1a <shadow_fixup_postprocess+0x4ca>
    b254:	mov    r12d,eax
    b257:	jmp    a8df <shadow_fixup_postprocess+0x28f>
    b25c:	mov    r12d,eax
    b25f:	jmp    a919 <shadow_fixup_postprocess+0x2c9>
    b264:	mov    r12d,eax
    b267:	jmp    ac65 <shadow_fixup_postprocess+0x615>
    b26c:	mov    r12d,eax
    b26f:	jmp    aa4f <shadow_fixup_postprocess+0x3ff>
    b274:	mov    r12d,eax
    b277:	jmp    ad6c <shadow_fixup_postprocess+0x71c>
    b27c:	mov    r12d,eax
    b27f:	jmp    a801 <shadow_fixup_postprocess+0x1b1>
    b284:	mov    r12d,eax
    b287:	jmp    ab54 <shadow_fixup_postprocess+0x504>
    b28c:	movzx  edx,BYTE PTR [rbx+0x28352]
    b293:	mov    eax,edx
    b295:	jmp    a9a1 <shadow_fixup_postprocess+0x351>
    b29a:	nop    WORD PTR [rax+rax*1+0x0]

000000000000b2a0 <shadow_propagate_postprocess>:
    b2a0:	mov    eax,DWORD PTR [rip+0x1fdfe]        # 2b0a4 <opt+0x4>
    b2a6:	test   eax,eax
    b2a8:	je     b410 <shadow_propagate_postprocess+0x170>
    b2ae:	push   r14
    b2b0:	push   r13
    b2b2:	push   r12
    b2b4:	push   rbp
    b2b5:	push   rbx
    b2b6:	movsxd rbp,DWORD PTR [rdi+0x28358]
    b2bd:	mov    rbx,rdi
    b2c0:	test   ebp,ebp
    b2c2:	je     b418 <shadow_propagate_postprocess+0x178>
    b2c8:	lea    rax,[rbp*8+0x0]
    b2d0:	mov    r12,QWORD PTR [rdi+0x283e8]
    b2d7:	sub    rax,rbp
    b2da:	lea    rdx,[rdi+rax*8]
    b2de:	add    DWORD PTR [rdx+0x108d8],0x1
    b2e5:	test   r12,r12
    b2e8:	je     b3f5 <shadow_propagate_postprocess+0x155>
    b2ee:	mov    ecx,DWORD PTR [rip+0x1fde4]        # 2b0d8 <opt+0x38>
    b2f4:	movsxd rax,DWORD PTR [rdx+0x108dc]
    b2fb:	test   ecx,ecx
    b2fd:	je     b3c8 <shadow_propagate_postprocess+0x128>
    b303:	mov    edx,DWORD PTR [rdx+0x108e0]
    b309:	cmp    edx,eax
    b30b:	jg     b440 <shadow_propagate_postprocess+0x1a0>
    b311:	mov    r13d,DWORD PTR [rip+0x1fdc4]        # 2b0dc <opt+0x3c>
    b318:	test   eax,eax
    b31a:	jne    b468 <shadow_propagate_postprocess+0x1c8>
    b320:	add    edx,edx
    b322:	cmove  edx,ecx
    b325:	test   r13d,r13d
    b328:	je     b4b8 <shadow_propagate_postprocess+0x218>
    b32e:	cmp    edx,r13d
    b331:	jle    b4b8 <shadow_propagate_postprocess+0x218>
    b337:	lea    rax,[rbp*8+0x0]
    b33f:	movsxd rsi,r13d
    b342:	sub    rax,rbp
    b345:	shl    rsi,0x3
    b349:	lea    r14,[rbx+rax*8]
    b34d:	mov    rdi,QWORD PTR [r14+0x108f0]
    b354:	call   51d0 <realloc@plt>
    b359:	test   rax,rax
    b35c:	je     b4a8 <shadow_propagate_postprocess+0x208>
    b362:	mov    QWORD PTR [r14+0x108f0],rax
    b369:	mov    DWORD PTR [r14+0x108e0],r13d
    b370:	lea    rax,[rbp*8+0x0]
    b378:	sub    rax,rbp
    b37b:	movsxd rax,DWORD PTR [rbx+rax*8+0x108dc]
    b383:	cmp    eax,r13d
    b386:	jl     b440 <shadow_propagate_postprocess+0x1a0>
    b38c:	cdq    
    b38d:	idiv   r13d
    b390:	lea    ecx,[rax+0x1]
    b393:	mov    esi,edx
    b395:	mov    edx,0x55555556
    b39a:	mov    eax,ecx
    b39c:	imul   edx
    b39e:	mov    eax,ecx
    b3a0:	sar    eax,0x1f
    b3a3:	sub    eax,edx
    b3a5:	add    eax,esi
    b3a7:	cdq    
    b3a8:	idiv   ecx
    b3aa:	lea    rax,[rbp*8+0x0]
    b3b2:	sub    rax,rbp
    b3b5:	test   edx,edx
    b3b7:	je     b488 <shadow_propagate_postprocess+0x1e8>
    b3bd:	mov    eax,DWORD PTR [rbx+rax*8+0x108dc]
    b3c4:	nop    DWORD PTR [rax+0x0]
    b3c8:	lea    rdx,[rbp*8+0x0]
    b3d0:	add    eax,0x1
    b3d3:	sub    rdx,rbp
    b3d6:	lea    rdx,[rbx+rdx*8]
    b3da:	add    QWORD PTR [rdx+0x108e8],r12
    b3e1:	add    DWORD PTR [rdx+0x108f8],0x1
    b3e8:	add    QWORD PTR [rdx+0x10900],r12
    b3ef:	mov    DWORD PTR [rdx+0x108dc],eax
    b3f5:	mov    rdi,rbx
    b3f8:	mov    esi,0x4
    b3fd:	pop    rbx
    b3fe:	pop    rbp
    b3ff:	pop    r12
    b401:	pop    r13
    b403:	pop    r14
    b405:	jmp    a2a0 <hvm_update_short_summary>
    b40a:	nop    WORD PTR [rax+rax*1+0x0]
    b410:	ret    
    b411:	nop    DWORD PTR [rax+0x0]
    b418:	mov    rcx,QWORD PTR [rip+0x5be39]        # 67258 <warn>
    b41f:	mov    edx,0x14
    b424:	mov    esi,0x1
    b429:	lea    rdi,[rip+0x12f06]        # 1e336 <_IO_stdin_used+0x336>
    b430:	call   5260 <fwrite@plt>
    b435:	jmp    b3f5 <shadow_propagate_postprocess+0x155>
    b437:	nop    WORD PTR [rax+rax*1+0x0]
    b440:	lea    rdx,[rbp*8+0x0]
    b448:	sub    rdx,rbp
    b44b:	lea    rdx,[rbx+rdx*8]
    b44f:	mov    rcx,QWORD PTR [rdx+0x108f0]
    b456:	mov    QWORD PTR [rcx+rax*8],r12
    b45a:	mov    eax,DWORD PTR [rdx+0x108dc]
    b460:	jmp    b3c8 <shadow_propagate_postprocess+0x128>
    b465:	nop    DWORD PTR [rax]
    b468:	cmp    edx,r13d
    b46b:	jl     b320 <shadow_propagate_postprocess+0x80>
    b471:	test   r13d,r13d
    b474:	je     b320 <shadow_propagate_postprocess+0x80>
    b47a:	mov    r13d,edx
    b47d:	jmp    b38c <shadow_propagate_postprocess+0xec>
    b482:	nop    WORD PTR [rax+rax*1+0x0]
    b488:	lea    rdx,[rbx+rax*8]
    b48c:	movsxd rax,esi
    b48f:	mov    rcx,QWORD PTR [rdx+0x108f0]
    b496:	mov    QWORD PTR [rcx+rax*8],r12
    b49a:	mov    eax,DWORD PTR [rdx+0x108dc]
    b4a0:	jmp    b3c8 <shadow_propagate_postprocess+0x128>
    b4a5:	nop    DWORD PTR [rax]
    b4a8:	mov    r13d,DWORD PTR [r14+0x108e0]
    b4af:	jmp    b370 <shadow_propagate_postprocess+0xd0>
    b4b4:	nop    DWORD PTR [rax+0x0]
    b4b8:	mov    r13d,edx
    b4bb:	jmp    b337 <shadow_propagate_postprocess+0x97>

000000000000b4c0 <shadow_fault_generic_postprocess>:
    b4c0:	mov    r8d,DWORD PTR [rdi+0x28358]
    b4c7:	lea    eax,[r8-0x1]
    b4cb:	cmp    eax,0xa
    b4ce:	ja     b648 <shadow_fault_generic_postprocess+0x188>
    b4d4:	mov    eax,DWORD PTR [rip+0x1fbca]        # 2b0a4 <opt+0x4>
    b4da:	test   eax,eax
    b4dc:	je     b550 <shadow_fault_generic_postprocess+0x90>
    b4de:	push   r14
    b4e0:	push   r13
    b4e2:	push   r12
    b4e4:	push   rbp
    b4e5:	mov    rbp,rdi
    b4e8:	push   rbx
    b4e9:	movsxd rbx,r8d
    b4ec:	mov    r12,QWORD PTR [rdi+0x283e8]
    b4f3:	lea    rax,[rbx*8+0x0]
    b4fb:	sub    rax,rbx
    b4fe:	lea    rdx,[rdi+rax*8]
    b502:	add    DWORD PTR [rdx+0x108d8],0x1
    b509:	test   r12,r12
    b50c:	je     b62e <shadow_fault_generic_postprocess+0x16e>
    b512:	mov    ecx,DWORD PTR [rip+0x1fbc0]        # 2b0d8 <opt+0x38>
    b518:	movsxd rax,DWORD PTR [rdx+0x108dc]
    b51f:	test   ecx,ecx
    b521:	je     b600 <shadow_fault_generic_postprocess+0x140>
    b527:	mov    edx,DWORD PTR [rdx+0x108e0]
    b52d:	cmp    edx,eax
    b52f:	jg     b670 <shadow_fault_generic_postprocess+0x1b0>
    b535:	mov    r13d,DWORD PTR [rip+0x1fba0]        # 2b0dc <opt+0x3c>
    b53c:	test   eax,eax
    b53e:	je     b558 <shadow_fault_generic_postprocess+0x98>
    b540:	cmp    edx,r13d
    b543:	jl     b558 <shadow_fault_generic_postprocess+0x98>
    b545:	test   r13d,r13d
    b548:	je     b558 <shadow_fault_generic_postprocess+0x98>
    b54a:	mov    r13d,edx
    b54d:	jmp    b5c0 <shadow_fault_generic_postprocess+0x100>
    b54f:	nop
    b550:	ret    
    b551:	nop    DWORD PTR [rax+0x0]
    b558:	add    edx,edx
    b55a:	cmove  edx,ecx
    b55d:	test   r13d,r13d
    b560:	je     b567 <shadow_fault_generic_postprocess+0xa7>
    b562:	cmp    edx,r13d
    b565:	jg     b56a <shadow_fault_generic_postprocess+0xaa>
    b567:	mov    r13d,edx
    b56a:	lea    rax,[rbx*8+0x0]
    b572:	movsxd rsi,r13d
    b575:	sub    rax,rbx
    b578:	shl    rsi,0x3
    b57c:	lea    r14,[rbp+rax*8+0x0]
    b581:	mov    rdi,QWORD PTR [r14+0x108f0]
    b588:	call   51d0 <realloc@plt>
    b58d:	test   rax,rax
    b590:	je     b6a0 <shadow_fault_generic_postprocess+0x1e0>
    b596:	mov    QWORD PTR [r14+0x108f0],rax
    b59d:	mov    DWORD PTR [r14+0x108e0],r13d
    b5a4:	lea    rax,[rbx*8+0x0]
    b5ac:	sub    rax,rbx
    b5af:	movsxd rax,DWORD PTR [rbp+rax*8+0x108dc]
    b5b7:	cmp    eax,r13d
    b5ba:	jl     b670 <shadow_fault_generic_postprocess+0x1b0>
    b5c0:	cdq    
    b5c1:	idiv   r13d
    b5c4:	lea    ecx,[rax+0x1]
    b5c7:	mov    esi,edx
    b5c9:	mov    edx,0x55555556
    b5ce:	mov    eax,ecx
    b5d0:	imul   edx
    b5d2:	mov    eax,ecx
    b5d4:	sar    eax,0x1f
    b5d7:	sub    eax,edx
    b5d9:	add    eax,esi
    b5db:	cdq    
    b5dc:	idiv   ecx
    b5de:	lea    rax,[rbx*8+0x0]
    b5e6:	sub    rax,rbx
    b5e9:	test   edx,edx
    b5eb:	je     b6b0 <shadow_fault_generic_postprocess+0x1f0>
    b5f1:	mov    eax,DWORD PTR [rbp+rax*8+0x108dc]
    b5f8:	nop    DWORD PTR [rax+rax*1+0x0]
    b600:	lea    rdx,[rbx*8+0x0]
    b608:	add    eax,0x1
    b60b:	sub    rdx,rbx
    b60e:	lea    rdx,[rbp+rdx*8+0x0]
    b613:	add    QWORD PTR [rdx+0x108e8],r12
    b61a:	add    DWORD PTR [rdx+0x108f8],0x1
    b621:	add    QWORD PTR [rdx+0x10900],r12
    b628:	mov    DWORD PTR [rdx+0x108dc],eax
    b62e:	pop    rbx
    b62f:	mov    rdi,rbp
    b632:	mov    esi,0x4
    b637:	pop    rbp
    b638:	pop    r12
    b63a:	pop    r13
    b63c:	pop    r14
    b63e:	jmp    a2a0 <hvm_update_short_summary>
    b643:	nop    DWORD PTR [rax+rax*1+0x0]
    b648:	mov    rdi,QWORD PTR [rip+0x5bc09]        # 67258 <warn>
    b64f:	lea    rcx,[rip+0x18e6a]        # 244c0 <__func__.7239>
    b656:	lea    rdx,[rip+0x153f3]        # 20a50 <_IO_stdin_used+0x2a50>
    b65d:	xor    eax,eax
    b65f:	mov    esi,0x1
    b664:	jmp    5270 <__fprintf_chk@plt>
    b669:	nop    DWORD PTR [rax+0x0]
    b670:	lea    rdx,[rbx*8+0x0]
    b678:	sub    rdx,rbx
    b67b:	lea    rdx,[rbp+rdx*8+0x0]
    b680:	mov    rcx,QWORD PTR [rdx+0x108f0]
    b687:	mov    QWORD PTR [rcx+rax*8],r12
    b68b:	mov    eax,DWORD PTR [rdx+0x108dc]
    b691:	jmp    b600 <shadow_fault_generic_postprocess+0x140>
    b696:	nop    WORD PTR cs:[rax+rax*1+0x0]
    b6a0:	mov    r13d,DWORD PTR [r14+0x108e0]
    b6a7:	jmp    b5a4 <shadow_fault_generic_postprocess+0xe4>
    b6ac:	nop    DWORD PTR [rax+0x0]
    b6b0:	lea    rdx,[rbp+rax*8+0x0]
    b6b5:	movsxd rax,esi
    b6b8:	mov    rcx,QWORD PTR [rdx+0x108f0]
    b6bf:	mov    QWORD PTR [rcx+rax*8],r12
    b6c3:	mov    eax,DWORD PTR [rdx+0x108dc]
    b6c9:	jmp    b600 <shadow_fault_generic_postprocess+0x140>
    b6ce:	xchg   ax,ax

000000000000b6d0 <shadow_emulate_postprocess>:
    b6d0:	push   r15
    b6d2:	push   r14
    b6d4:	push   r13
    b6d6:	push   r12
    b6d8:	push   rbp
    b6d9:	push   rbx
    b6da:	mov    rbx,rdi
    b6dd:	sub    rsp,0x8
    b6e1:	mov    eax,DWORD PTR [rip+0x1f9bd]        # 2b0a4 <opt+0x4>
    b6e7:	test   eax,eax
    b6e9:	jne    b760 <shadow_emulate_postprocess+0x90>
    b6eb:	test   BYTE PTR [rip+0x1f9ae],0x2        # 2b0a0 <opt>
    b6f2:	je     b750 <shadow_emulate_postprocess+0x80>
    b6f4:	test   BYTE PTR [rbx+0x28351],0x20
    b6fb:	jne    b8e0 <shadow_emulate_postprocess+0x210>
    b701:	test   BYTE PTR [rbx+0x28408],0x2
    b708:	jne    b900 <shadow_emulate_postprocess+0x230>
    b70e:	test   BYTE PTR [rbx+0x28351],0x2
    b715:	je     b750 <shadow_emulate_postprocess+0x80>
    b717:	test   BYTE PTR [rip+0x1f984],0x20        # 2b0a2 <opt+0x2>
    b71e:	je     b9c0 <shadow_emulate_postprocess+0x2f0>
    b724:	mov    rax,QWORD PTR [rbx+0x10]
    b728:	mov    rax,QWORD PTR [rax+0x70]
    b72c:	test   rax,rax
    b72f:	je     b750 <shadow_emulate_postprocess+0x80>
    b731:	movsxd rsi,DWORD PTR [rax+0x18]
    b735:	mov    rdi,QWORD PTR [rbx+0x283e0]
    b73c:	add    rsp,0x8
    b740:	pop    rbx
    b741:	pop    rbp
    b742:	pop    r12
    b744:	pop    r13
    b746:	pop    r14
    b748:	pop    r15
    b74a:	jmp    8200 <scatterplot_vs_time>
    b74f:	nop
    b750:	add    rsp,0x8
    b754:	pop    rbx
    b755:	pop    rbp
    b756:	pop    r12
    b758:	pop    r13
    b75a:	pop    r14
    b75c:	pop    r15
    b75e:	ret    
    b75f:	nop
    b760:	mov    rax,QWORD PTR [rdi+0x10]
    b764:	mov    rdx,QWORD PTR [rdi+0x283e8]
    b76b:	xor    r8d,r8d
    b76e:	xor    ecx,ecx
    b770:	mov    rsi,QWORD PTR [rdi+0x283f8]
    b777:	mov    rdi,QWORD PTR [rax+0x8]
    b77b:	add    rdi,0x9e8
    b782:	call   9cb0 <update_eip>
    b787:	mov    rbp,QWORD PTR [rbx+0x283e8]
    b78e:	add    DWORD PTR [rbx+0x10a98],0x1
    b795:	test   rbp,rbp
    b798:	je     b9d8 <shadow_emulate_postprocess+0x308>
    b79e:	movsxd rcx,DWORD PTR [rbx+0x10a9c]
    b7a5:	mov    edx,DWORD PTR [rip+0x1f92d]        # 2b0d8 <opt+0x38>
    b7ab:	mov    eax,ecx
    b7ad:	test   edx,edx
    b7af:	jne    b918 <shadow_emulate_postprocess+0x248>
    b7b5:	mov    r13,rbp
    b7b8:	mov    r14,rbp
    b7bb:	movsxd r12,DWORD PTR [rbx+0x283a0]
    b7c2:	add    eax,0x1
    b7c5:	add    QWORD PTR [rbx+0x10aa8],rbp
    b7cc:	mov    DWORD PTR [rbx+0x10a9c],eax
    b7d2:	lea    rax,[r12*8+0x0]
    b7da:	add    DWORD PTR [rbx+0x10ab8],0x1
    b7e1:	sub    rax,r12
    b7e4:	add    QWORD PTR [rbx+0x10ac0],rbp
    b7eb:	lea    rdx,[rbx+rax*8]
    b7ef:	add    DWORD PTR [rdx+0x10be8],0x1
    b7f6:	test   r13,r13
    b7f9:	je     c10b <shadow_emulate_postprocess+0xa3b>
    b7ff:	mov    ecx,DWORD PTR [rip+0x1f8d3]        # 2b0d8 <opt+0x38>
    b805:	movsxd rax,DWORD PTR [rdx+0x10bec]
    b80c:	test   ecx,ecx
    b80e:	je     bdb0 <shadow_emulate_postprocess+0x6e0>
    b814:	mov    edx,DWORD PTR [rdx+0x10bf0]
    b81a:	cmp    edx,eax
    b81c:	jg     bf10 <shadow_emulate_postprocess+0x840>
    b822:	mov    ebp,DWORD PTR [rip+0x1f8b4]        # 2b0dc <opt+0x3c>
    b828:	test   eax,eax
    b82a:	jne    bf50 <shadow_emulate_postprocess+0x880>
    b830:	add    edx,edx
    b832:	cmove  edx,ecx
    b835:	cmp    edx,ebp
    b837:	jle    c0b0 <shadow_emulate_postprocess+0x9e0>
    b83d:	test   ebp,ebp
    b83f:	je     c0b0 <shadow_emulate_postprocess+0x9e0>
    b845:	lea    rax,[r12*8+0x0]
    b84d:	movsxd rsi,ebp
    b850:	sub    rax,r12
    b853:	shl    rsi,0x3
    b857:	lea    r15,[rbx+rax*8]
    b85b:	mov    rdi,QWORD PTR [r15+0x10c00]
    b862:	call   51d0 <realloc@plt>
    b867:	test   rax,rax
    b86a:	je     c030 <shadow_emulate_postprocess+0x960>
    b870:	mov    QWORD PTR [r15+0x10c00],rax
    b877:	mov    DWORD PTR [r15+0x10bf0],ebp
    b87e:	lea    rax,[r12*8+0x0]
    b886:	sub    rax,r12
    b889:	movsxd rax,DWORD PTR [rbx+rax*8+0x10bec]
    b891:	cmp    eax,ebp
    b893:	jl     bf10 <shadow_emulate_postprocess+0x840>
    b899:	cdq    
    b89a:	idiv   ebp
    b89c:	lea    ecx,[rax+0x1]
    b89f:	mov    esi,edx
    b8a1:	mov    edx,0x55555556
    b8a6:	mov    eax,ecx
    b8a8:	imul   edx
    b8aa:	mov    eax,ecx
    b8ac:	sar    eax,0x1f
    b8af:	sub    eax,edx
    b8b1:	add    eax,esi
    b8b3:	cdq    
    b8b4:	idiv   ecx
    b8b6:	lea    rax,[r12*8+0x0]
    b8be:	sub    rax,r12
    b8c1:	test   edx,edx
    b8c3:	je     bff0 <shadow_emulate_postprocess+0x920>
    b8c9:	mov    r15,QWORD PTR [rbx+0x283e8]
    b8d0:	mov    eax,DWORD PTR [rbx+rax*8+0x10bec]
    b8d7:	mov    rbp,r15
    b8da:	jmp    bdb6 <shadow_emulate_postprocess+0x6e6>
    b8df:	nop
    b8e0:	mov    rdi,QWORD PTR [rbx+0x283e0]
    b8e7:	mov    rsi,0xfffffffffffffff6
    b8ee:	call   8200 <scatterplot_vs_time>
    b8f3:	test   BYTE PTR [rbx+0x28408],0x2
    b8fa:	je     b70e <shadow_emulate_postprocess+0x3e>
    b900:	mov    rdi,QWORD PTR [rbx+0x283e0]
    b907:	xor    esi,esi
    b909:	call   8200 <scatterplot_vs_time>
    b90e:	jmp    b70e <shadow_emulate_postprocess+0x3e>
    b913:	nop    DWORD PTR [rax+rax*1+0x0]
    b918:	mov    eax,DWORD PTR [rbx+0x10aa0]
    b91e:	cmp    eax,ecx
    b920:	jg     bef0 <shadow_emulate_postprocess+0x820>
    b926:	mov    r12d,DWORD PTR [rip+0x1f7af]        # 2b0dc <opt+0x3c>
    b92d:	test   ecx,ecx
    b92f:	jne    bf90 <shadow_emulate_postprocess+0x8c0>
    b935:	add    eax,eax
    b937:	cmove  eax,edx
    b93a:	cmp    eax,r12d
    b93d:	jle    c0a0 <shadow_emulate_postprocess+0x9d0>
    b943:	test   r12d,r12d
    b946:	je     c0a0 <shadow_emulate_postprocess+0x9d0>
    b94c:	movsxd rsi,r12d
    b94f:	mov    rdi,QWORD PTR [rbx+0x10ab0]
    b956:	shl    rsi,0x3
    b95a:	call   51d0 <realloc@plt>
    b95f:	test   rax,rax
    b962:	je     c020 <shadow_emulate_postprocess+0x950>
    b968:	mov    QWORD PTR [rbx+0x10ab0],rax
    b96f:	mov    DWORD PTR [rbx+0x10aa0],r12d
    b976:	movsxd rcx,DWORD PTR [rbx+0x10a9c]
    b97d:	cmp    ecx,r12d
    b980:	jl     bef0 <shadow_emulate_postprocess+0x820>
    b986:	mov    eax,ecx
    b988:	cdq    
    b989:	idiv   r12d
    b98c:	lea    esi,[rax+0x1]
    b98f:	movsxd rdi,edx
    b992:	mov    edx,0x55555556
    b997:	mov    eax,esi
    b999:	imul   edx
    b99b:	mov    eax,esi
    b99d:	sar    eax,0x1f
    b9a0:	sub    eax,edx
    b9a2:	add    eax,edi
    b9a4:	cdq    
    b9a5:	idiv   esi
    b9a7:	test   edx,edx
    b9a9:	je     c000 <shadow_emulate_postprocess+0x930>
    b9af:	mov    r14,QWORD PTR [rbx+0x283e8]
    b9b6:	mov    eax,ecx
    b9b8:	mov    r13,r14
    b9bb:	jmp    b7bb <shadow_emulate_postprocess+0xeb>
    b9c0:	mov    rdi,QWORD PTR [rbx+0x283e0]
    b9c7:	mov    esi,0x2
    b9cc:	jmp    b73c <shadow_emulate_postprocess+0x6c>
    b9d1:	nop    DWORD PTR [rax+0x0]
    b9d8:	movsxd rdx,DWORD PTR [rbx+0x283a0]
    b9df:	xor    r15d,r15d
    b9e2:	lea    rax,[rdx*8+0x0]
    b9ea:	sub    rax,rdx
    b9ed:	add    DWORD PTR [rbx+rax*8+0x10be8],0x1
    b9f5:	xor    ebp,ebp
    b9f7:	test   BYTE PTR [rbx+0x28408],0x2
    b9fe:	je     bc1a <shadow_emulate_postprocess+0x54a>
    ba04:	add    DWORD PTR [rbx+0x10e88],0x1
    ba0b:	xor    ebp,ebp
    ba0d:	test   BYTE PTR [rbx+0x28352],0x2
    ba14:	jne    bd30 <shadow_emulate_postprocess+0x660>
    ba1a:	nop    WORD PTR [rax+rax*1+0x0]
    ba20:	test   BYTE PTR [rbx+0x28351],0x20
    ba27:	je     ba4f <shadow_emulate_postprocess+0x37f>
    ba29:	add    DWORD PTR [rbx+0x10d00],0x1
    ba30:	test   rbp,rbp
    ba33:	je     bed7 <shadow_emulate_postprocess+0x807>
    ba39:	mov    rsi,rbp
    ba3c:	lea    rdi,[rbx+0x10d00]
    ba43:	call   56e0 <update_cycles.part.5>
    ba48:	mov    rbp,QWORD PTR [rbx+0x283e8]
    ba4f:	movzx  eax,BYTE PTR [rbx+0x28350]
    ba56:	test   al,0x20
    ba58:	je     bd58 <shadow_emulate_postprocess+0x688>
    ba5e:	add    DWORD PTR [rbx+0x10d38],0x1
    ba65:	test   rbp,rbp
    ba68:	je     ba80 <shadow_emulate_postprocess+0x3b0>
    ba6a:	lea    rdi,[rbx+0x10d38]
    ba71:	mov    rsi,rbp
    ba74:	call   56e0 <update_cycles.part.5>
    ba79:	movzx  eax,BYTE PTR [rbx+0x28350]
    ba80:	test   al,0x40
    ba82:	je     baaa <shadow_emulate_postprocess+0x3da>
    ba84:	mov    rsi,QWORD PTR [rbx+0x283e8]
    ba8b:	add    DWORD PTR [rbx+0x10da8],0x1
    ba92:	test   rsi,rsi
    ba95:	je     baaa <shadow_emulate_postprocess+0x3da>
    ba97:	lea    rdi,[rbx+0x10da8]
    ba9e:	call   56e0 <update_cycles.part.5>
    baa3:	movzx  eax,BYTE PTR [rbx+0x28350]
    baaa:	test   al,al
    baac:	js     bd88 <shadow_emulate_postprocess+0x6b8>
    bab2:	movzx  eax,BYTE PTR [rbx+0x28351]
    bab9:	test   al,0x2
    babb:	je     bbbe <shadow_emulate_postprocess+0x4ee>
    bac1:	mov    rbp,QWORD PTR [rbx+0x283e8]
    bac8:	add    DWORD PTR [rbx+0x10e18],0x1
    bacf:	test   rbp,rbp
    bad2:	je     bbbe <shadow_emulate_postprocess+0x4ee>
    bad8:	movsxd rcx,DWORD PTR [rbx+0x10e1c]
    badf:	mov    esi,DWORD PTR [rip+0x1f5f3]        # 2b0d8 <opt+0x38>
    bae5:	mov    edx,ecx
    bae7:	test   esi,esi
    bae9:	je     bba0 <shadow_emulate_postprocess+0x4d0>
    baef:	mov    eax,DWORD PTR [rbx+0x10e20]
    baf5:	cmp    eax,ecx
    baf7:	jg     bfb0 <shadow_emulate_postprocess+0x8e0>
    bafd:	mov    r12d,DWORD PTR [rip+0x1f5d8]        # 2b0dc <opt+0x3c>
    bb04:	test   ecx,ecx
    bb06:	je     bb16 <shadow_emulate_postprocess+0x446>
    bb08:	cmp    eax,r12d
    bb0b:	jl     bb16 <shadow_emulate_postprocess+0x446>
    bb0d:	test   r12d,r12d
    bb10:	jne    c0f3 <shadow_emulate_postprocess+0xa23>
    bb16:	add    eax,eax
    bb18:	cmove  eax,esi
    bb1b:	test   r12d,r12d
    bb1e:	je     c0e3 <shadow_emulate_postprocess+0xa13>
    bb24:	cmp    eax,r12d
    bb27:	jle    c0e3 <shadow_emulate_postprocess+0xa13>
    bb2d:	movsxd rsi,r12d
    bb30:	mov    rdi,QWORD PTR [rbx+0x10e30]
    bb37:	shl    rsi,0x3
    bb3b:	call   51d0 <realloc@plt>
    bb40:	test   rax,rax
    bb43:	je     c0b7 <shadow_emulate_postprocess+0x9e7>
    bb49:	mov    QWORD PTR [rbx+0x10e30],rax
    bb50:	mov    DWORD PTR [rbx+0x10e20],r12d
    bb57:	movsxd rcx,DWORD PTR [rbx+0x10e1c]
    bb5e:	cmp    ecx,r12d
    bb61:	jl     bfb0 <shadow_emulate_postprocess+0x8e0>
    bb67:	mov    eax,ecx
    bb69:	cdq    
    bb6a:	idiv   r12d
    bb6d:	lea    esi,[rax+0x1]
    bb70:	movsxd rdi,edx
    bb73:	mov    edx,0x55555556
    bb78:	mov    eax,esi
    bb7a:	imul   edx
    bb7c:	mov    eax,esi
    bb7e:	sar    eax,0x1f
    bb81:	sub    eax,edx
    bb83:	add    eax,edi
    bb85:	cdq    
    bb86:	idiv   esi
    bb88:	test   edx,edx
    bb8a:	je     c040 <shadow_emulate_postprocess+0x970>
    bb90:	movzx  eax,BYTE PTR [rbx+0x28351]
    bb97:	mov    edx,ecx
    bb99:	nop    DWORD PTR [rax+0x0]
    bba0:	add    edx,0x1
    bba3:	add    QWORD PTR [rbx+0x10e28],rbp
    bbaa:	add    DWORD PTR [rbx+0x10e38],0x1
    bbb1:	add    QWORD PTR [rbx+0x10e40],rbp
    bbb8:	mov    DWORD PTR [rbx+0x10e1c],edx
    bbbe:	test   al,0x1
    bbc0:	je     bbe1 <shadow_emulate_postprocess+0x511>
    bbc2:	mov    rsi,QWORD PTR [rbx+0x283e8]
    bbc9:	add    DWORD PTR [rbx+0x10e50],0x1
    bbd0:	test   rsi,rsi
    bbd3:	je     bbe1 <shadow_emulate_postprocess+0x511>
    bbd5:	lea    rdi,[rbx+0x10e50]
    bbdc:	call   56e0 <update_cycles.part.5>
    bbe1:	xor    esi,esi
    bbe3:	mov    rdi,rbx
    bbe6:	call   a2a0 <hvm_update_short_summary>
    bbeb:	jmp    b6eb <shadow_emulate_postprocess+0x1b>
    bbf0:	mov    rcx,rbp
    bbf3:	mov    rdx,r15
    bbf6:	add    eax,0x1
    bbf9:	add    DWORD PTR [rbx+0x10ea8],0x1
    bc00:	mov    DWORD PTR [rbx+0x10e8c],eax
    bc06:	add    QWORD PTR [rbx+0x10e98],r15
    bc0d:	mov    r15,rdx
    bc10:	add    QWORD PTR [rbx+0x10eb0],rbp
    bc17:	mov    rbp,rcx
    bc1a:	test   BYTE PTR [rbx+0x28352],0x2
    bc21:	je     ba20 <shadow_emulate_postprocess+0x350>
    bc27:	add    DWORD PTR [rbx+0x10ec0],0x1
    bc2e:	test   rbp,rbp
    bc31:	je     bd37 <shadow_emulate_postprocess+0x667>
    bc37:	movsxd rcx,DWORD PTR [rbx+0x10ec4]
    bc3e:	mov    esi,DWORD PTR [rip+0x1f494]        # 2b0d8 <opt+0x38>
    bc44:	mov    rdx,rbp
    bc47:	mov    eax,ecx
    bc49:	test   esi,esi
    bc4b:	je     bd00 <shadow_emulate_postprocess+0x630>
    bc51:	mov    eax,DWORD PTR [rbx+0x10ec8]
    bc57:	cmp    eax,ecx
    bc59:	jg     bfd0 <shadow_emulate_postprocess+0x900>
    bc5f:	mov    r12d,DWORD PTR [rip+0x1f476]        # 2b0dc <opt+0x3c>
    bc66:	test   ecx,ecx
    bc68:	je     bc78 <shadow_emulate_postprocess+0x5a8>
    bc6a:	test   r12d,r12d
    bc6d:	je     bc78 <shadow_emulate_postprocess+0x5a8>
    bc6f:	cmp    eax,r12d
    bc72:	jge    c103 <shadow_emulate_postprocess+0xa33>
    bc78:	add    eax,eax
    bc7a:	cmove  eax,esi
    bc7d:	test   r12d,r12d
    bc80:	je     c0eb <shadow_emulate_postprocess+0xa1b>
    bc86:	cmp    eax,r12d
    bc89:	jle    c0eb <shadow_emulate_postprocess+0xa1b>
    bc8f:	movsxd rsi,r12d
    bc92:	mov    rdi,QWORD PTR [rbx+0x10ed8]
    bc99:	shl    rsi,0x3
    bc9d:	call   51d0 <realloc@plt>
    bca2:	test   rax,rax
    bca5:	je     c0c3 <shadow_emulate_postprocess+0x9f3>
    bcab:	mov    QWORD PTR [rbx+0x10ed8],rax
    bcb2:	mov    DWORD PTR [rbx+0x10ec8],r12d
    bcb9:	movsxd rcx,DWORD PTR [rbx+0x10ec4]
    bcc0:	cmp    ecx,r12d
    bcc3:	jl     bfd0 <shadow_emulate_postprocess+0x900>
    bcc9:	mov    eax,ecx
    bccb:	cdq    
    bccc:	idiv   r12d
    bccf:	lea    esi,[rax+0x1]
    bcd2:	movsxd rdi,edx
    bcd5:	mov    edx,0x55555556
    bcda:	mov    eax,esi
    bcdc:	imul   edx
    bcde:	mov    eax,esi
    bce0:	sar    eax,0x1f
    bce3:	sub    eax,edx
    bce5:	add    eax,edi
    bce7:	cdq    
    bce8:	idiv   esi
    bcea:	test   edx,edx
    bcec:	je     c080 <shadow_emulate_postprocess+0x9b0>
    bcf2:	mov    rdx,QWORD PTR [rbx+0x283e8]
    bcf9:	mov    eax,ecx
    bcfb:	nop    DWORD PTR [rax+rax*1+0x0]
    bd00:	add    eax,0x1
    bd03:	add    QWORD PTR [rbx+0x10ee8],rbp
    bd0a:	mov    rbp,rdx
    bd0d:	mov    DWORD PTR [rbx+0x10ec4],eax
    bd13:	add    QWORD PTR [rbx+0x10ed0],r15
    bd1a:	add    DWORD PTR [rbx+0x10ee0],0x1
    bd21:	jmp    ba20 <shadow_emulate_postprocess+0x350>
    bd26:	nop    WORD PTR cs:[rax+rax*1+0x0]
    bd30:	add    DWORD PTR [rbx+0x10ec0],0x1
    bd37:	test   BYTE PTR [rbx+0x28351],0x20
    bd3e:	jne    bed0 <shadow_emulate_postprocess+0x800>
    bd44:	movzx  eax,BYTE PTR [rbx+0x28350]
    bd4b:	xor    ebp,ebp
    bd4d:	test   al,0x20
    bd4f:	jne    bf40 <shadow_emulate_postprocess+0x870>
    bd55:	nop    DWORD PTR [rax]
    bd58:	add    DWORD PTR [rbx+0x10d70],0x1
    bd5f:	test   rbp,rbp
    bd62:	je     ba80 <shadow_emulate_postprocess+0x3b0>
    bd68:	lea    rdi,[rbx+0x10d70]
    bd6f:	mov    rsi,rbp
    bd72:	call   56e0 <update_cycles.part.5>
    bd77:	movzx  eax,BYTE PTR [rbx+0x28350]
    bd7e:	jmp    ba80 <shadow_emulate_postprocess+0x3b0>
    bd83:	nop    DWORD PTR [rax+rax*1+0x0]
    bd88:	mov    rsi,QWORD PTR [rbx+0x283e8]
    bd8f:	add    DWORD PTR [rbx+0x10de0],0x1
    bd96:	test   rsi,rsi
    bd99:	je     bab2 <shadow_emulate_postprocess+0x3e2>
    bd9f:	lea    rdi,[rbx+0x10de0]
    bda6:	call   56e0 <update_cycles.part.5>
    bdab:	jmp    bab2 <shadow_emulate_postprocess+0x3e2>
    bdb0:	mov    rbp,r13
    bdb3:	mov    r15,r14
    bdb6:	lea    rdx,[r12*8+0x0]
    bdbe:	add    eax,0x1
    bdc1:	sub    rdx,r12
    bdc4:	lea    rdx,[rbx+rdx*8]
    bdc8:	mov    DWORD PTR [rdx+0x10bec],eax
    bdce:	add    QWORD PTR [rdx+0x10bf8],r14
    bdd5:	add    DWORD PTR [rdx+0x10c08],0x1
    bddc:	add    QWORD PTR [rdx+0x10c10],r13
    bde3:	test   BYTE PTR [rbx+0x28408],0x2
    bdea:	je     bc1a <shadow_emulate_postprocess+0x54a>
    bdf0:	add    DWORD PTR [rbx+0x10e88],0x1
    bdf7:	test   rbp,rbp
    bdfa:	je     ba0b <shadow_emulate_postprocess+0x33b>
    be00:	movsxd rcx,DWORD PTR [rbx+0x10e8c]
    be07:	mov    edx,DWORD PTR [rip+0x1f2cb]        # 2b0d8 <opt+0x38>
    be0d:	mov    eax,ecx
    be0f:	test   edx,edx
    be11:	je     bbf0 <shadow_emulate_postprocess+0x520>
    be17:	mov    eax,DWORD PTR [rbx+0x10e90]
    be1d:	cmp    eax,ecx
    be1f:	jg     bf70 <shadow_emulate_postprocess+0x8a0>
    be25:	mov    r12d,DWORD PTR [rip+0x1f2b0]        # 2b0dc <opt+0x3c>
    be2c:	test   ecx,ecx
    be2e:	je     be3e <shadow_emulate_postprocess+0x76e>
    be30:	test   r12d,r12d
    be33:	je     be3e <shadow_emulate_postprocess+0x76e>
    be35:	cmp    eax,r12d
    be38:	jge    c0fb <shadow_emulate_postprocess+0xa2b>
    be3e:	add    eax,eax
    be40:	cmove  eax,edx
    be43:	cmp    eax,r12d
    be46:	jle    c0db <shadow_emulate_postprocess+0xa0b>
    be4c:	test   r12d,r12d
    be4f:	je     c0db <shadow_emulate_postprocess+0xa0b>
    be55:	movsxd rsi,r12d
    be58:	mov    rdi,QWORD PTR [rbx+0x10ea0]
    be5f:	shl    rsi,0x3
    be63:	call   51d0 <realloc@plt>
    be68:	test   rax,rax
    be6b:	je     c0cf <shadow_emulate_postprocess+0x9ff>
    be71:	mov    QWORD PTR [rbx+0x10ea0],rax
    be78:	mov    DWORD PTR [rbx+0x10e90],r12d
    be7f:	movsxd rcx,DWORD PTR [rbx+0x10e8c]
    be86:	cmp    ecx,r12d
    be89:	jl     bf70 <shadow_emulate_postprocess+0x8a0>
    be8f:	mov    eax,ecx
    be91:	cdq    
    be92:	idiv   r12d
    be95:	lea    esi,[rax+0x1]
    be98:	movsxd rdi,edx
    be9b:	mov    edx,0x55555556
    bea0:	mov    eax,esi
    bea2:	imul   edx
    bea4:	mov    eax,esi
    bea6:	sar    eax,0x1f
    bea9:	sub    eax,edx
    beab:	add    eax,edi
    bead:	cdq    
    beae:	idiv   esi
    beb0:	test   edx,edx
    beb2:	je     c060 <shadow_emulate_postprocess+0x990>
    beb8:	mov    rdx,QWORD PTR [rbx+0x283e8]
    bebf:	mov    eax,ecx
    bec1:	mov    rcx,rdx
    bec4:	jmp    bbf6 <shadow_emulate_postprocess+0x526>
