0000000000003710 <qemu_malloc.cold.0>:
    3710:	call   30c0 <abort@plt>

0000000000003715 <qemu_realloc.cold.1>:
    3715:	call   30c0 <abort@plt>

000000000000371a <qemu_mallocz.cold.2>:
    371a:	call   30c0 <abort@plt>

000000000000371f <qemu_strdup.cold.3>:
    371f:	call   30c0 <abort@plt>

0000000000003724 <qemu_strndup.cold.4>:
    3724:	call   30c0 <abort@plt>

0000000000003729 <insert_mapping.cold.9>:
    3729:	mov    QWORD PTR ds:0x18,0x0
    3735:	ud2

0000000000003737 <schedule_rename.cold.10>:
    3737:	mov    QWORD PTR ds:0x0,r15
    373f:	ud2

0000000000003741 <commit_direntries.cold.11>:
    3741:	mov    eax,DWORD PTR ds:0x14
    3748:	ud2
    374a:	mov    eax,DWORD PTR ds:0x20
    3751:	ud2

0000000000003753 <check_directory_consistency.cold.12>:
    3753:	mov    QWORD PTR ds:0x0,0x0
    375f:	ud2
    3761:	mov    QWORD PTR ds:0x0,r8
    3769:	ud2
    376b:	mov    QWORD PTR ds:0x0,r12
    3773:	ud2

0000000000003775 <try_commit.cold.13>:
    3775:	mov    rax,QWORD PTR ds:0x18
    377d:	ud2

000000000000377f <read_directory.cold.14>:
    377f:	mov    QWORD PTR [r12+0x8080],0x0
    378b:	mov    DWORD PTR ds:0x0,0x0
    3796:	ud2
    3798:	mov    BYTE PTR ds:0xb,0x0
    37a0:	ud2

00000000000037a2 <vvfat_open.cold.15>:
    37a2:	mov    BYTE PTR ds:0xb,0x0
    37aa:	ud2
    37ac:	mov    DWORD PTR ds:0x0,0x0
    37b7:	ud2
    37b9:	nop    DWORD PTR [rax+0x0]

00000000000037c0 <main>:
    37c0:	push   r15
    37c2:	push   r14
    37c4:	push   r13
    37c6:	mov    r13,rsi
    37c9:	push   r12
    37cb:	push   rbp
    37cc:	mov    ebp,edi
    37ce:	push   rbx
    37cf:	sub    rsp,0x38
    37d3:	mov    rax,QWORD PTR fs:0x28
    37dc:	mov    QWORD PTR [rsp+0x28],rax
    37e1:	xor    eax,eax
    37e3:	call   1a550 <bdrv_init>
    37e8:	cmp    ebp,0x1
    37eb:	jle    3b5c <main+0x39c>
    37f1:	mov    r14,QWORD PTR [r13+0x8]
    37f5:	mov    ecx,0x7
    37fa:	sub    ebp,0x1
    37fd:	lea    r12,[r13+0x8]
    3801:	lea    rdi,[rip+0x1e34b]        # 21b53 <suffixes.14512+0x68>
    3808:	mov    rsi,r14
    380b:	repz cmps BYTE PTR ds:[rsi],BYTE PTR es:[rdi]
    380d:	seta   bl
    3810:	sbb    bl,0x0
    3813:	movsx  ebx,bl
    3816:	test   ebx,ebx
    3818:	je     38ea <main+0x12a>
    381e:	mov    ecx,0x7
    3823:	lea    rdi,[rip+0x199df]        # 1d209 <_IO_stdin_used+0x209>
    382a:	mov    rsi,r14
    382d:	repz cmps BYTE PTR ds:[rsi],BYTE PTR es:[rdi]
    382f:	seta   al
    3832:	sbb    al,0x0
    3834:	test   al,al
    3836:	je     38ac <main+0xec>
    3838:	lea    rsi,[rip+0x19a3e]        # 1d27d <_IO_stdin_used+0x27d>
    383f:	mov    rdi,r14
    3842:	call   3350 <strcmp@plt>
    3847:	test   eax,eax
    3849:	je     3b8d <main+0x3cd>
    384f:	lea    rsi,[rip+0x19a2f]        # 1d285 <_IO_stdin_used+0x285>
    3856:	mov    rdi,r14
    3859:	call   3350 <strcmp@plt>
    385e:	test   eax,eax
    3860:	je     3bcc <main+0x40c>
    3866:	lea    rsi,[rip+0x19a1d]        # 1d28a <_IO_stdin_used+0x28a>
    386d:	mov    rdi,r14
    3870:	call   3350 <strcmp@plt>
    3875:	test   eax,eax
    3877:	jne    3b5c <main+0x39c>
    387d:	mov    rsi,r12
    3880:	mov    edi,ebp
    3882:	call   4280 <img_snapshot>
    3887:	xor    eax,eax
    3889:	mov    rcx,QWORD PTR [rsp+0x28]
    388e:	xor    rcx,QWORD PTR fs:0x28
    3897:	jne    3c0a <main+0x44a>
    389d:	add    rsp,0x38
    38a1:	pop    rbx
    38a2:	pop    rbp
    38a3:	pop    r12
    38a5:	pop    r13
    38a7:	pop    r14
    38a9:	pop    r15
    38ab:	ret
    38ac:	xor    ebx,ebx
    38ae:	lea    r13,[rip+0x19781]        # 1d036 <_IO_stdin_used+0x36>
    38b5:	nop    DWORD PTR [rax]
    38b8:	mov    rdx,r13
    38bb:	mov    rsi,r12
    38be:	mov    edi,ebp
    38c0:	call   35d0 <getopt@plt>
    38c5:	cmp    eax,0xffffffff
    38c8:	je     3a6b <main+0x2ab>
    38ce:	cmp    eax,0x66
    38d1:	jne    38e0 <main+0x120>
    38d3:	mov    rbx,QWORD PTR [rip+0x26a16]        # 2a2f0 <optarg@@GLIBC_2.2.5>
    38da:	jmp    38b8 <main+0xf8>
    38dc:	nop    DWORD PTR [rax+0x0]
    38e0:	cmp    eax,0x68
    38e3:	jne    38b8 <main+0xf8>
    38e5:	jmp    3b5c <main+0x39c>
    38ea:	lea    rax,[rip+0x197e0]        # 1d0d1 <_IO_stdin_used+0xd1>
    38f1:	xor    r14d,r14d
    38f4:	lea    r15,[rip+0x1a4b1]        # 1ddac <_IO_stdin_used+0xdac>
    38fb:	mov    QWORD PTR [rsp+0x8],rax
    3900:	lea    rdx,[rip+0x19886]        # 1d18d <_IO_stdin_used+0x18d>
    3907:	mov    rsi,r12
    390a:	mov    edi,ebp
    390c:	call   35d0 <getopt@plt>
    3911:	cmp    eax,0xffffffff
    3914:	je     395d <main+0x19d>
    3916:	sub    eax,0x36
    3919:	cmp    eax,0x32
    391c:	ja     3900 <main+0x140>
    391e:	movsxd rax,DWORD PTR [r15+rax*4]
    3922:	add    rax,r15
    3925:	jmp    rax
    3927:	nop    WORD PTR [rax+rax*1+0x0]
    3930:	mov    rax,QWORD PTR [rip+0x269b9]        # 2a2f0 <optarg@@GLIBC_2.2.5>
    3937:	mov    QWORD PTR [rsp+0x8],rax
    393c:	jmp    3900 <main+0x140>
    393e:	xchg   ax,ax
    3940:	or     ebx,0x1
    3943:	jmp    3900 <main+0x140>
    3945:	nop    DWORD PTR [rax]
    3948:	mov    r14,QWORD PTR [rip+0x269a1]        # 2a2f0 <optarg@@GLIBC_2.2.5>
    394f:	jmp    3900 <main+0x140>
    3951:	nop    DWORD PTR [rax+0x0]
    3958:	or     ebx,0x4
    395b:	jmp    3900 <main+0x140>
    395d:	movsxd rax,DWORD PTR [rip+0x26984]        # 2a2e8 <optind@@GLIBC_2.2.5>
    3964:	cmp    ebp,eax
    3966:	jle    3b5c <main+0x39c>
    396c:	mov    QWORD PTR [rsp+0x18],0x0
    3975:	lea    edx,[rax+0x1]
    3978:	shl    rax,0x3
    397c:	mov    DWORD PTR [rip+0x26966],edx        # 2a2e8 <optind@@GLIBC_2.2.5>
    3982:	mov    r13,QWORD PTR [r13+rax*1+0x8]
    3987:	test   r14,r14
    398a:	je     3b15 <main+0x355>
    3990:	xor    esi,esi
    3992:	mov    rdi,r14
    3995:	call   4520 <bdrv_new_open>
    399a:	lea    rsi,[rsp+0x18]
    399f:	mov    rbp,rax
    39a2:	mov    rdi,rax
    39a5:	call   191f0 <bdrv_get_geometry>
    39aa:	mov    rdi,rbp
    39ad:	shl    QWORD PTR [rsp+0x18],0x9
    39b3:	call   18130 <bdrv_delete>
    39b8:	mov    rdi,QWORD PTR [rsp+0x8]
    39bd:	call   18060 <bdrv_find_format>
    39c2:	mov    rbp,rax
    39c5:	test   rax,rax
    39c8:	je     3c20 <main+0x460>
    39ce:	mov    rcx,QWORD PTR [rsp+0x8]
    39d3:	xor    eax,eax
    39d5:	mov    rdx,r13
    39d8:	mov    edi,0x1
    39dd:	lea    rsi,[rip+0x197b1]        # 1d195 <_IO_stdin_used+0x195>
    39e4:	call   34d0 <__printf_chk@plt>
    39e9:	test   bl,0x1
    39ec:	jne    3bb4 <main+0x3f4>
    39f2:	test   bl,0x4
    39f5:	jne    3b9c <main+0x3dc>
    39fb:	test   r14,r14
    39fe:	je     3a16 <main+0x256>
    3a00:	mov    rdx,r14
    3a03:	lea    rsi,[rip+0x197c7]        # 1d1d1 <_IO_stdin_used+0x1d1>
    3a0a:	mov    edi,0x1
    3a0f:	xor    eax,eax
    3a11:	call   34d0 <__printf_chk@plt>
    3a16:	mov    rdx,QWORD PTR [rsp+0x18]
    3a1b:	lea    rsi,[rip+0x197c1]        # 1d1e3 <_IO_stdin_used+0x1e3>
    3a22:	mov    edi,0x1
    3a27:	xor    eax,eax
    3a29:	shr    rdx,0xa
    3a2d:	call   34d0 <__printf_chk@plt>
    3a32:	mov    rdx,QWORD PTR [rsp+0x18]
    3a37:	mov    r8d,ebx
    3a3a:	mov    rcx,r14
    3a3d:	mov    rsi,r13
    3a40:	mov    rdi,rbp
    3a43:	shr    rdx,0x9
    3a47:	call   180b0 <bdrv_create>
    3a4c:	test   eax,eax
    3a4e:	jns    3887 <main+0xc7>
    3a54:	cmp    eax,0xffffffa1
    3a57:	je     3be9 <main+0x429>
    3a5d:	lea    rdi,[rip+0x1978e]        # 1d1f2 <_IO_stdin_used+0x1f2>
    3a64:	xor    eax,eax
    3a66:	call   3da0 <error>
    3a6b:	movsxd rax,DWORD PTR [rip+0x26876]        # 2a2e8 <optind@@GLIBC_2.2.5>
    3a72:	cmp    ebp,eax
    3a74:	jle    3b5c <main+0x39c>
    3a7a:	lea    edx,[rax+0x1]
    3a7d:	lea    rdi,[rip+0x1d1de]        # 20c62 <desc_template.13939+0x382>
    3a84:	mov    DWORD PTR [rip+0x2685e],edx        # 2a2e8 <optind@@GLIBC_2.2.5>
    3a8a:	mov    r12,QWORD PTR [r12+rax*8]
    3a8e:	call   17ff0 <bdrv_new>
    3a93:	mov    rbp,rax
    3a96:	test   rax,rax
    3a99:	je     3c33 <main+0x473>
    3a9f:	test   rbx,rbx
    3aa2:	je     3b61 <main+0x3a1>
    3aa8:	mov    rdi,rbx
    3aab:	call   18060 <bdrv_find_format>
    3ab0:	mov    rcx,rax
    3ab3:	test   rax,rax
    3ab6:	je     3c0f <main+0x44f>
    3abc:	mov    edx,0x40
    3ac1:	mov    rsi,r12
    3ac4:	mov    rdi,rbp
    3ac7:	call   18b80 <bdrv_open2>
    3acc:	test   eax,eax
    3ace:	js     3c6b <main+0x4ab>
    3ad4:	mov    rdi,rbp
    3ad7:	call   18770 <bdrv_commit>
    3adc:	cmp    eax,0xfffffff3
    3adf:	je     3c5d <main+0x49d>
    3ae5:	jle    3b76 <main+0x3b6>
    3aeb:	cmp    eax,0xfffffffe
    3aee:	je     3c4f <main+0x48f>
    3af4:	test   eax,eax
    3af6:	jne    3c41 <main+0x481>
    3afc:	lea    rdi,[rip+0x1970d]        # 1d210 <_IO_stdin_used+0x210>
    3b03:	call   3130 <puts@plt>
    3b08:	mov    rdi,rbp
    3b0b:	call   18130 <bdrv_delete>
    3b10:	jmp    3887 <main+0xc7>
    3b15:	cmp    ebp,edx
    3b17:	jle    3b5c <main+0x39c>
    3b19:	mov    rdi,QWORD PTR [r12+rax*1+0x8]
    3b1e:	xor    edx,edx
    3b20:	lea    rsi,[rsp+0x20]
    3b25:	mov    QWORD PTR [rsp+0x20],rdi
    3b2a:	call   35e0 <strtoul@plt>
    3b2f:	mov    rdx,QWORD PTR [rsp+0x20]
    3b34:	mov    QWORD PTR [rsp+0x18],rax
    3b39:	movzx  edx,BYTE PTR [rdx]
    3b3c:	cmp    dl,0x4d
    3b3f:	je     3bdb <main+0x41b>
    3b45:	cmp    dl,0x47
    3b48:	je     3bfc <main+0x43c>
    3b4e:	mov    ecx,edx
    3b50:	and    ecx,0xffffffdf
    3b53:	cmp    cl,0x4b
    3b56:	je     3b68 <main+0x3a8>
    3b58:	test   dl,dl
    3b5a:	je     3b68 <main+0x3a8>
    3b5c:	call   3f60 <help>
    3b61:	xor    ecx,ecx
    3b63:	jmp    3abc <main+0x2fc>
    3b68:	shl    rax,0xa
    3b6c:	mov    QWORD PTR [rsp+0x18],rax
    3b71:	jmp    39b8 <main+0x1f8>
    3b76:	cmp    eax,0xffffffa1
    3b79:	jne    3c41 <main+0x481>
    3b7f:	lea    rdi,[rip+0x196bf]        # 1d245 <_IO_stdin_used+0x245>
    3b86:	xor    eax,eax
    3b88:	call   3da0 <error>
    3b8d:	mov    rsi,r12
    3b90:	mov    edi,ebp
    3b92:	call   47c0 <img_convert>
    3b97:	jmp    3887 <main+0xc7>
    3b9c:	lea    rsi,[rip+0x19616]        # 1d1b9 <_IO_stdin_used+0x1b9>
    3ba3:	mov    edi,0x1
    3ba8:	xor    eax,eax
    3baa:	call   34d0 <__printf_chk@plt>
    3baf:	jmp    39fb <main+0x23b>
    3bb4:	lea    rsi,[rip+0x195f2]        # 1d1ad <_IO_stdin_used+0x1ad>
    3bbb:	mov    edi,0x1
    3bc0:	xor    eax,eax
    3bc2:	call   34d0 <__printf_chk@plt>
    3bc7:	jmp    39f2 <main+0x232>
    3bcc:	mov    rsi,r12
    3bcf:	mov    edi,ebp
    3bd1:	call   3fb0 <img_info>
    3bd6:	jmp    3887 <main+0xc7>
    3bdb:	shl    rax,0x14
    3bdf:	mov    QWORD PTR [rsp+0x18],rax
    3be4:	jmp    39b8 <main+0x1f8>
    3be9:	mov    rsi,QWORD PTR [rsp+0x8]
    3bee:	lea    rdi,[rip+0x1a073]        # 1dc68 <_IO_stdin_used+0xc68>
    3bf5:	xor    eax,eax
    3bf7:	call   3da0 <error>
    3bfc:	shl    rax,0x1e
    3c00:	mov    QWORD PTR [rsp+0x18],rax
    3c05:	jmp    39b8 <main+0x1f8>
    3c0a:	call   31c0 <__stack_chk_fail@plt>
    3c0f:	mov    rsi,rbx
    3c12:	lea    rdi,[rip+0x19433]        # 1d04c <_IO_stdin_used+0x4c>
    3c19:	xor    eax,eax
    3c1b:	call   3da0 <error>
    3c20:	mov    rsi,QWORD PTR [rsp+0x8]
    3c25:	lea    rdi,[rip+0x19420]        # 1d04c <_IO_stdin_used+0x4c>
    3c2c:	xor    eax,eax
    3c2e:	call   3da0 <error>
    3c33:	lea    rdi,[rip+0x19400]        # 1d03a <_IO_stdin_used+0x3a>
    3c3a:	xor    eax,eax
    3c3c:	call   3da0 <error>
    3c41:	lea    rdi,[rip+0x19618]        # 1d260 <_IO_stdin_used+0x260>
    3c48:	xor    eax,eax
    3c4a:	call   3da0 <error>
    3c4f:	lea    rdi,[rip+0x195cb]        # 1d221 <_IO_stdin_used+0x221>
    3c56:	xor    eax,eax
    3c58:	call   3da0 <error>
    3c5d:	lea    rdi,[rip+0x195ce]        # 1d232 <_IO_stdin_used+0x232>
    3c64:	xor    eax,eax
    3c66:	call   3da0 <error>
    3c6b:	mov    rsi,r12
    3c6e:	lea    rdi,[rip+0x193f0]        # 1d065 <_IO_stdin_used+0x65>
    3c75:	xor    eax,eax
    3c77:	call   3da0 <error>
    3c7c:	nop    DWORD PTR [rax+0x0]

0000000000003d70 <term_exit>:
    3d70:	lea    rdx,[rip+0x265a9]        # 2a320 <oldtty>
    3d77:	xor    esi,esi
    3d79:	xor    edi,edi
    3d7b:	jmp    3590 <tcsetattr@plt>

0000000000003d80 <format_print>:
    3d80:	mov    rdx,rsi
    3d83:	mov    edi,0x1
    3d88:	xor    eax,eax
    3d8a:	lea    rsi,[rip+0x19273]        # 1d004 <_IO_stdin_used+0x4>
    3d91:	jmp    34d0 <__printf_chk@plt>
    3d96:	nop    WORD PTR cs:[rax+rax*1+0x0]

0000000000003da0 <error>:
    3da0:	push   rbx
    3da1:	mov    rbx,rdi
    3da4:	sub    rsp,0xd0
    3dab:	mov    QWORD PTR [rsp+0x28],rsi
    3db0:	mov    QWORD PTR [rsp+0x30],rdx
    3db5:	mov    QWORD PTR [rsp+0x38],rcx
    3dba:	mov    QWORD PTR [rsp+0x40],r8
    3dbf:	mov    QWORD PTR [rsp+0x48],r9
    3dc4:	test   al,al
    3dc6:	je     3dff <error+0x5f>
    3dc8:	movaps XMMWORD PTR [rsp+0x50],xmm0
    3dcd:	movaps XMMWORD PTR [rsp+0x60],xmm1
    3dd2:	movaps XMMWORD PTR [rsp+0x70],xmm2
    3dd7:	movaps XMMWORD PTR [rsp+0x80],xmm3
    3ddf:	movaps XMMWORD PTR [rsp+0x90],xmm4
    3de7:	movaps XMMWORD PTR [rsp+0xa0],xmm5
    3def:	movaps XMMWORD PTR [rsp+0xb0],xmm6
    3df7:	movaps XMMWORD PTR [rsp+0xc0],xmm7
    3dff:	mov    rax,QWORD PTR fs:0x28
    3e08:	mov    QWORD PTR [rsp+0x18],rax
    3e0d:	xor    eax,eax
    3e0f:	mov    edx,0xa
    3e14:	mov    esi,0x1
    3e19:	lea    rax,[rsp+0xe0]
    3e21:	mov    rcx,QWORD PTR [rip+0x264d8]        # 2a300 <stderr@@GLIBC_2.2.5>
    3e28:	mov    QWORD PTR [rsp+0x8],rax
    3e2d:	lea    rdi,[rip+0x191d4]        # 1d008 <_IO_stdin_used+0x8>
    3e34:	lea    rax,[rsp+0x20]
    3e39:	mov    DWORD PTR [rsp],0x8
    3e40:	mov    DWORD PTR [rsp+0x4],0x30
    3e48:	mov    QWORD PTR [rsp+0x10],rax
    3e4d:	call   3640 <fwrite@plt>
    3e52:	mov    rcx,rsp
    3e55:	mov    rdx,rbx
    3e58:	mov    esi,0x1
    3e5d:	mov    rdi,QWORD PTR [rip+0x2649c]        # 2a300 <stderr@@GLIBC_2.2.5>
    3e64:	call   30b0 <__vfprintf_chk@plt>
    3e69:	mov    rsi,QWORD PTR [rip+0x26490]        # 2a300 <stderr@@GLIBC_2.2.5>
    3e70:	mov    edi,0xa
    3e75:	call   32b0 <fputc@plt>
    3e7a:	mov    edi,0x1
    3e7f:	call   3620 <exit@plt>
    3e84:	data16 nop WORD PTR cs:[rax+rax*1+0x0]
    3e8f:	nop

0000000000003e90 <dump_snapshots>:
    3e90:	push   r12
    3e92:	push   rbp
    3e93:	push   rbx
    3e94:	sub    rsp,0x120
    3e9b:	mov    rax,QWORD PTR fs:0x28
    3ea4:	mov    QWORD PTR [rsp+0x118],rax
    3eac:	xor    eax,eax
    3eae:	lea    rsi,[rsp+0x8]
    3eb3:	call   19cc0 <bdrv_snapshot_list>
    3eb8:	test   eax,eax
    3eba:	jle    3f33 <dump_snapshots+0xa3>
    3ebc:	mov    ebx,eax
    3ebe:	lea    rdi,[rip+0x1914e]        # 1d013 <_IO_stdin_used+0x13>
    3ec5:	lea    r12,[rsp+0x10]
    3eca:	call   3130 <puts@plt>
    3ecf:	lea    ebp,[rbx-0x1]
    3ed2:	xor    edx,edx
    3ed4:	mov    esi,0x100
    3ed9:	mov    rdi,r12
    3edc:	add    rbp,0x1
    3ee0:	xor    ebx,ebx
    3ee2:	call   19e60 <bdrv_snapshot_dump>
    3ee7:	imul   rbp,rbp,0x198
    3eee:	mov    rdi,rax
    3ef1:	call   3130 <puts@plt>
    3ef6:	nop    WORD PTR cs:[rax+rax*1+0x0]
    3f00:	mov    rdx,QWORD PTR [rsp+0x8]
    3f05:	mov    esi,0x100
    3f0a:	mov    rdi,r12
    3f0d:	add    rdx,rbx
    3f10:	add    rbx,0x198
    3f17:	call   19e60 <bdrv_snapshot_dump>
    3f1c:	mov    rdi,rax
    3f1f:	call   3130 <puts@plt>
    3f24:	cmp    rbx,rbp
    3f27:	jne    3f00 <dump_snapshots+0x70>
    3f29:	mov    rdi,QWORD PTR [rsp+0x8]
    3f2e:	call   5960 <qemu_free>
    3f33:	mov    rax,QWORD PTR [rsp+0x118]
    3f3b:	xor    rax,QWORD PTR fs:0x28
    3f44:	jne    3f52 <dump_snapshots+0xc2>
    3f46:	add    rsp,0x120
    3f4d:	pop    rbx
    3f4e:	pop    rbp
    3f4f:	pop    r12
    3f51:	ret
    3f52:	call   31c0 <__stack_chk_fail@plt>
    3f57:	nop    WORD PTR [rax+rax*1+0x0]

0000000000003f60 <help>:
    3f60:	sub    rsp,0x8
    3f64:	lea    rdi,[rip+0x1932d]        # 1d298 <_IO_stdin_used+0x298>
    3f6b:	call   3130 <puts@plt>
    3f70:	lea    rsi,[rip+0x190ab]        # 1d022 <_IO_stdin_used+0x22>
    3f77:	mov    edi,0x1
    3f7c:	xor    eax,eax
    3f7e:	call   34d0 <__printf_chk@plt>
    3f83:	xor    esi,esi
    3f85:	lea    rdi,[rip+0xfffffffffffffdf4]        # 3d80 <format_print>
    3f8c:	call   19620 <bdrv_iterate_format>
    3f91:	mov    edi,0xa
    3f96:	call   3090 <putchar@plt>
    3f9b:	mov    edi,0x1
    3fa0:	call   3620 <exit@plt>
    3fa5:	data16 nop WORD PTR cs:[rax+rax*1+0x0]

0000000000003fb0 <img_info>:
    3fb0:	push   r14
    3fb2:	push   r13
    3fb4:	xor    r13d,r13d
    3fb7:	push   r12
    3fb9:	lea    r12,[rip+0x19076]        # 1d036 <_IO_stdin_used+0x36>
    3fc0:	push   rbp
    3fc1:	mov    ebp,edi
    3fc3:	push   rbx
    3fc4:	mov    rbx,rsi
    3fc7:	sub    rsp,0xa40
    3fce:	mov    rax,QWORD PTR fs:0x28
    3fd7:	mov    QWORD PTR [rsp+0xa38],rax
    3fdf:	xor    eax,eax
    3fe1:	nop    DWORD PTR [rax+0x0]
    3fe8:	mov    rdx,r12
    3feb:	mov    rsi,rbx
    3fee:	mov    edi,ebp
    3ff0:	call   35d0 <getopt@plt>
    3ff5:	cmp    eax,0xffffffff
    3ff8:	je     4020 <img_info+0x70>
    3ffa:	cmp    eax,0x66
    3ffd:	jne    4010 <img_info+0x60>
    3fff:	mov    r13,QWORD PTR [rip+0x262ea]        # 2a2f0 <optarg@@GLIBC_2.2.5>
    4006:	jmp    3fe8 <img_info+0x38>
    4008:	nop    DWORD PTR [rax+rax*1+0x0]
    4010:	cmp    eax,0x68
    4013:	jne    3fe8 <img_info+0x38>
    4015:	call   3f60 <help>
    401a:	nop    WORD PTR [rax+rax*1+0x0]
    4020:	movsxd rax,DWORD PTR [rip+0x262c1]        # 2a2e8 <optind@@GLIBC_2.2.5>
    4027:	cmp    eax,ebp
    4029:	jge    4015 <img_info+0x65>
    402b:	lea    edx,[rax+0x1]
    402e:	lea    rdi,[rip+0x1cc2d]        # 20c62 <desc_template.13939+0x382>
    4035:	mov    DWORD PTR [rip+0x262ad],edx        # 2a2e8 <optind@@GLIBC_2.2.5>
    403b:	mov    rbp,QWORD PTR [rbx+rax*8]
    403f:	call   17ff0 <bdrv_new>
    4044:	mov    rbx,rax
    4047:	test   rax,rax
    404a:	je     4271 <img_info+0x2c1>
    4050:	test   r13,r13
    4053:	je     422b <img_info+0x27b>
    4059:	mov    rdi,r13
    405c:	call   18060 <bdrv_find_format>
    4061:	mov    rcx,rax
    4064:	test   rax,rax
    4067:	je     424a <img_info+0x29a>
    406d:	mov    edx,0x40
    4072:	mov    rsi,rbp
    4075:	mov    rdi,rbx
    4078:	call   18b80 <bdrv_open2>
    407d:	test   eax,eax
    407f:	js     425b <img_info+0x2ab>
    4085:	lea    r12,[rsp+0xb0]
    408d:	mov    edx,0x80
    4092:	mov    rdi,rbx
    4095:	mov    rsi,r12
    4098:	lea    r13,[rsp+0x130]
    40a0:	call   195f0 <bdrv_get_format>
    40a5:	lea    rsi,[rsp+0x8]
    40aa:	mov    rdi,rbx
    40ad:	call   191f0 <bdrv_get_geometry>
    40b2:	mov    rdx,QWORD PTR [rsp+0x8]
    40b7:	mov    esi,0x80
    40bc:	mov    rdi,r13
    40bf:	shl    rdx,0x9
    40c3:	call   19cf0 <get_human_readable_size>
    40c8:	lea    rdx,[rsp+0x20]
    40cd:	mov    rsi,rbp
    40d0:	mov    edi,0x1
    40d5:	call   3180 <__xstat64@plt>
    40da:	test   eax,eax
    40dc:	js     40ed <img_info+0x13d>
    40de:	mov    rdx,QWORD PTR [rsp+0x60]
    40e3:	shl    rdx,0x9
    40e7:	jns    41c7 <img_info+0x217>
    40ed:	movabs rax,0x616c696176616e75
    40f7:	lea    r14,[rsp+0x1b0]
    40ff:	mov    DWORD PTR [rsp+0x1b8],0x656c62
    410a:	mov    QWORD PTR [rsp+0x1b0],rax
    4112:	sub    rsp,0x8
    4116:	mov    rcx,r12
    4119:	mov    rdx,rbp
    411c:	mov    r8,r13
    411f:	push   r14
    4121:	mov    r9,QWORD PTR [rsp+0x18]
    4126:	lea    rsi,[rip+0x19893]        # 1d9c0 <_IO_stdin_used+0x9c0>
    412d:	xor    eax,eax
    412f:	mov    edi,0x1
    4134:	shl    r9,0x9
    4138:	call   34d0 <__printf_chk@plt>
    413d:	mov    rdi,rbx
    4140:	call   19510 <bdrv_is_encrypted>
    4145:	pop    rdx
    4146:	pop    rcx
    4147:	test   eax,eax
    4149:	jne    41e1 <img_info+0x231>
    414f:	lea    rsi,[rsp+0x10]
    4154:	mov    rdi,rbx
    4157:	call   19ba0 <bdrv_get_info>
    415c:	test   eax,eax
    415e:	js     416c <img_info+0x1bc>
    4160:	mov    edx,DWORD PTR [rsp+0x10]
    4164:	test   edx,edx
    4166:	jne    4232 <img_info+0x282>
    416c:	lea    r12,[rsp+0x230]
    4174:	mov    edx,0x400
    4179:	mov    rdi,rbx
    417c:	mov    rsi,r12
    417f:	call   19aa0 <bdrv_get_backing_filename>
    4184:	cmp    BYTE PTR [rsp+0x230],0x0
    418c:	jne    41f2 <img_info+0x242>
    418e:	mov    rdi,rbx
    4191:	call   3e90 <dump_snapshots>
    4196:	mov    rdi,rbx
    4199:	call   18130 <bdrv_delete>
    419e:	xor    eax,eax
    41a0:	mov    rcx,QWORD PTR [rsp+0xa38]
    41a8:	xor    rcx,QWORD PTR fs:0x28
    41b1:	jne    426c <img_info+0x2bc>
    41b7:	add    rsp,0xa40
    41be:	pop    rbx
    41bf:	pop    rbp
    41c0:	pop    r12
    41c2:	pop    r13
    41c4:	pop    r14
    41c6:	ret
    41c7:	lea    r14,[rsp+0x1b0]
    41cf:	mov    esi,0x80
    41d4:	mov    rdi,r14
    41d7:	call   19cf0 <get_human_readable_size>
    41dc:	jmp    4112 <img_info+0x162>
    41e1:	lea    rdi,[rip+0x18e91]        # 1d079 <_IO_stdin_used+0x79>
    41e8:	call   3130 <puts@plt>
    41ed:	jmp    414f <img_info+0x19f>
    41f2:	lea    r13,[rsp+0x630]
    41fa:	mov    rcx,r12
    41fd:	mov    rdx,rbp
    4200:	mov    esi,0x400
    4205:	mov    rdi,r13
    4208:	call   17ee0 <path_combine>
    420d:	mov    rcx,r13
    4210:	mov    rdx,r12
    4213:	mov    edi,0x1
    4218:	lea    rsi,[rip+0x197e9]        # 1da08 <_IO_stdin_used+0xa08>
    421f:	xor    eax,eax
    4221:	call   34d0 <__printf_chk@plt>
    4226:	jmp    418e <img_info+0x1de>
    422b:	xor    ecx,ecx
    422d:	jmp    406d <img_info+0xbd>
    4232:	lea    rsi,[rip+0x18e4f]        # 1d088 <_IO_stdin_used+0x88>
    4239:	mov    edi,0x1
    423e:	xor    eax,eax
    4240:	call   34d0 <__printf_chk@plt>
    4245:	jmp    416c <img_info+0x1bc>
    424a:	mov    rsi,r13
    424d:	lea    rdi,[rip+0x18df8]        # 1d04c <_IO_stdin_used+0x4c>
    4254:	xor    eax,eax
    4256:	call   3da0 <error>
    425b:	mov    rsi,rbp
    425e:	lea    rdi,[rip+0x18e00]        # 1d065 <_IO_stdin_used+0x65>
    4265:	xor    eax,eax
    4267:	call   3da0 <error>
    426c:	call   31c0 <__stack_chk_fail@plt>
    4271:	lea    rdi,[rip+0x18dc2]        # 1d03a <_IO_stdin_used+0x3a>
    4278:	xor    eax,eax
    427a:	call   3da0 <error>
    427f:	nop

0000000000004280 <img_snapshot>:
    4280:	push   r14
    4282:	xor    r14d,r14d
    4285:	push   r13
    4287:	mov    r13d,edi
    428a:	push   r12
    428c:	mov    r12,rsi
    428f:	push   rbp
    4290:	xor    ebp,ebp
    4292:	push   rbx
    4293:	lea    rbx,[rip+0x19a16]        # 1dcb0 <_IO_stdin_used+0xcb0>
    429a:	sub    rsp,0x1b0
    42a1:	mov    rax,QWORD PTR fs:0x28
    42aa:	mov    QWORD PTR [rsp+0x1a8],rax
    42b2:	xor    eax,eax
    42b4:	nop    DWORD PTR [rax+0x0]
    42b8:	lea    rdx,[rip+0x18ddb]        # 1d09a <_IO_stdin_used+0x9a>
    42bf:	mov    rsi,r12
    42c2:	mov    edi,r13d
    42c5:	call   35d0 <getopt@plt>
    42ca:	cmp    eax,0xffffffff
    42cd:	je     4360 <img_snapshot+0xe0>
    42d3:	sub    eax,0x61
    42d6:	cmp    eax,0xb
    42d9:	ja     42b8 <img_snapshot+0x38>
    42db:	movsxd rax,DWORD PTR [rbx+rax*4]
    42df:	add    rax,rbx
    42e2:	jmp    rax
    42e4:	nop    DWORD PTR [rax+0x0]
    42e8:	test   ebp,ebp
    42ea:	jne    44d1 <img_snapshot+0x251>
    42f0:	mov    ebp,0x1
    42f5:	jmp    42b8 <img_snapshot+0x38>
    42f7:	nop    WORD PTR [rax+rax*1+0x0]
    4300:	test   ebp,ebp
    4302:	jne    44d1 <img_snapshot+0x251>
    4308:	mov    r14,QWORD PTR [rip+0x25fe1]        # 2a2f0 <optarg@@GLIBC_2.2.5>
    430f:	mov    ebp,0x4
    4314:	jmp    42b8 <img_snapshot+0x38>
    4316:	nop    WORD PTR cs:[rax+rax*1+0x0]
    4320:	test   ebp,ebp
    4322:	jne    44d1 <img_snapshot+0x251>
    4328:	mov    r14,QWORD PTR [rip+0x25fc1]        # 2a2f0 <optarg@@GLIBC_2.2.5>
    432f:	mov    ebp,0x2
    4334:	jmp    42b8 <img_snapshot+0x38>
    4336:	nop    WORD PTR cs:[rax+rax*1+0x0]
    4340:	test   ebp,ebp
    4342:	jne    44d1 <img_snapshot+0x251>
    4348:	mov    r14,QWORD PTR [rip+0x25fa1]        # 2a2f0 <optarg@@GLIBC_2.2.5>
    434f:	mov    ebp,0x3
    4354:	jmp    42b8 <img_snapshot+0x38>
    4359:	nop    DWORD PTR [rax+0x0]
    4360:	movsxd rax,DWORD PTR [rip+0x25f81]        # 2a2e8 <optind@@GLIBC_2.2.5>
    4367:	cmp    eax,r13d
    436a:	jge    44d1 <img_snapshot+0x251>
    4370:	lea    edx,[rax+0x1]
    4373:	lea    rdi,[rip+0x1c8e8]        # 20c62 <desc_template.13939+0x382>
    437a:	mov    DWORD PTR [rip+0x25f68],edx        # 2a2e8 <optind@@GLIBC_2.2.5>
    4380:	mov    r12,QWORD PTR [r12+rax*8]
    4384:	call   17ff0 <bdrv_new>
    4389:	mov    rbx,rax
    438c:	test   rax,rax
    438f:	je     450b <img_snapshot+0x28b>
    4395:	xor    ecx,ecx
    4397:	xor    edx,edx
    4399:	mov    rsi,r12
    439c:	mov    rdi,rax
    439f:	call   18b80 <bdrv_open2>
    43a4:	test   eax,eax
    43a6:	js     44fa <img_snapshot+0x27a>
    43ac:	cmp    ebp,0x2
    43af:	je     441e <img_snapshot+0x19e>
    43b1:	jle    440f <img_snapshot+0x18f>
    43b3:	cmp    ebp,0x3
    43b6:	je     449d <img_snapshot+0x21d>
    43bc:	cmp    ebp,0x4
    43bf:	jne    43e0 <img_snapshot+0x160>
    43c1:	mov    rsi,r14
    43c4:	mov    rdi,rbx
    43c7:	call   19c90 <bdrv_snapshot_delete>
    43cc:	mov    ebp,eax
    43ce:	test   eax,eax
    43d0:	jne    44db <img_snapshot+0x25b>
    43d6:	nop    WORD PTR cs:[rax+rax*1+0x0]
    43e0:	mov    rdi,rbx
    43e3:	call   18130 <bdrv_delete>
    43e8:	mov    rax,QWORD PTR [rsp+0x1a8]
    43f0:	xor    rax,QWORD PTR fs:0x28
    43f9:	jne    44d6 <img_snapshot+0x256>
    43ff:	add    rsp,0x1b0
    4406:	pop    rbx
    4407:	pop    rbp
    4408:	pop    r12
    440a:	pop    r13
    440c:	pop    r14
    440e:	ret
    440f:	cmp    ebp,0x1
    4412:	jne    43e0 <img_snapshot+0x160>
    4414:	mov    rdi,rbx
    4417:	call   3e90 <dump_snapshots>
    441c:	jmp    43e0 <img_snapshot+0x160>
    441e:	lea    rbp,[rsp+0x10]
    4423:	xor    eax,eax
    4425:	mov    ecx,0x33
    442a:	mov    rdx,r14
    442d:	mov    rdi,rbp
    4430:	mov    esi,0x100
    4435:	rep stos QWORD PTR es:[rdi],rax
    4438:	lea    rdi,[rsp+0x90]
    4440:	call   5560 <pstrcpy>
    4445:	mov    rdi,rsp
    4448:	xor    esi,esi
    444a:	call   3220 <gettimeofday@plt>
    444f:	mov    rax,QWORD PTR [rsp]
    4453:	mov    rsi,rbp
    4456:	mov    rdi,rbx
    4459:	mov    DWORD PTR [rsp+0x194],eax
    4460:	imul   eax,DWORD PTR [rsp+0x8],0x3e8
    4468:	mov    DWORD PTR [rsp+0x198],eax
    446f:	call   19c30 <bdrv_snapshot_create>
    4474:	mov    ebp,eax
    4476:	test   eax,eax
    4478:	je     43e0 <img_snapshot+0x160>
    447e:	mov    edi,eax
    4480:	neg    edi
    4482:	call   3690 <strerror@plt>
    4487:	mov    edx,ebp
    4489:	mov    rsi,r14
    448c:	lea    rdi,[rip+0x1959d]        # 1da30 <_IO_stdin_used+0xa30>
    4493:	mov    rcx,rax
    4496:	xor    eax,eax
    4498:	call   3da0 <error>
    449d:	mov    rsi,r14
    44a0:	mov    rdi,rbx
    44a3:	call   19c60 <bdrv_snapshot_goto>
    44a8:	mov    ebp,eax
    44aa:	test   eax,eax
    44ac:	je     43e0 <img_snapshot+0x160>
    44b2:	mov    edi,eax
    44b4:	neg    edi
    44b6:	call   3690 <strerror@plt>
    44bb:	mov    edx,ebp
    44bd:	mov    rsi,r14
    44c0:	lea    rdi,[rip+0x19591]        # 1da58 <_IO_stdin_used+0xa58>
    44c7:	mov    rcx,rax
    44ca:	xor    eax,eax
    44cc:	call   3da0 <error>
    44d1:	call   3f60 <help>
    44d6:	call   31c0 <__stack_chk_fail@plt>
    44db:	mov    edi,eax
    44dd:	neg    edi
    44df:	call   3690 <strerror@plt>
    44e4:	mov    edx,ebp
    44e6:	mov    rsi,r14
    44e9:	lea    rdi,[rip+0x19590]        # 1da80 <_IO_stdin_used+0xa80>
    44f0:	mov    rcx,rax
    44f3:	xor    eax,eax
    44f5:	call   3da0 <error>
    44fa:	mov    rsi,r12
    44fd:	lea    rdi,[rip+0x18b61]        # 1d065 <_IO_stdin_used+0x65>
    4504:	xor    eax,eax
    4506:	call   3da0 <error>
    450b:	lea    rdi,[rip+0x18b28]        # 1d03a <_IO_stdin_used+0x3a>
    4512:	xor    eax,eax
    4514:	call   3da0 <error>
    4519:	nop    DWORD PTR [rax+0x0]

00000000000047c0 <img_convert>:
    47c0:	push   r15
    47c2:	push   r14
    47c4:	lea    r14,[rip+0x19515]        # 1dce0 <_IO_stdin_used+0xce0>
    47cb:	push   r13
    47cd:	push   r12
    47cf:	xor    r12d,r12d
    47d2:	push   rbp
    47d3:	movsxd rbp,edi
    47d6:	push   rbx
    47d7:	mov    rbx,rsi
    47da:	sub    rsp,0x100a8
    47e1:	mov    rax,QWORD PTR fs:0x28
    47ea:	mov    QWORD PTR [rsp+0x10098],rax
    47f2:	xor    eax,eax
    47f4:	lea    rax,[rip+0x188d6]        # 1d0d1 <_IO_stdin_used+0xd1>
    47fb:	mov    QWORD PTR [rsp+0x18],0x0
    4804:	mov    QWORD PTR [rsp+0x28],rax
    4809:	mov    DWORD PTR [rsp+0x20],0x0
    4811:	nop    DWORD PTR [rax+0x0]
    4818:	lea    rdx,[rip+0x188b6]        # 1d0d5 <_IO_stdin_used+0xd5>
    481f:	mov    rsi,rbx
    4822:	mov    edi,ebp
    4824:	call   35d0 <getopt@plt>
    4829:	cmp    eax,0xffffffff
    482c:	je     4879 <img_convert+0xb9>
    482e:	sub    eax,0x36
    4831:	cmp    eax,0x32
    4834:	ja     4818 <img_convert+0x58>
    4836:	movsxd rax,DWORD PTR [r14+rax*4]
    483a:	add    rax,r14
    483d:	jmp    rax
    483f:	mov    r12,QWORD PTR [rip+0x25aaa]        # 2a2f0 <optarg@@GLIBC_2.2.5>
    4846:	jmp    4818 <img_convert+0x58>
    4848:	or     DWORD PTR [rsp+0x20],0x1
    484d:	jmp    4818 <img_convert+0x58>
    484f:	or     DWORD PTR [rsp+0x20],0x2
    4854:	jmp    4818 <img_convert+0x58>
    4856:	mov    rax,QWORD PTR [rip+0x25a93]        # 2a2f0 <optarg@@GLIBC_2.2.5>
    485d:	mov    QWORD PTR [rsp+0x28],rax
    4862:	jmp    4818 <img_convert+0x58>
    4864:	mov    rax,QWORD PTR [rip+0x25a85]        # 2a2f0 <optarg@@GLIBC_2.2.5>
    486b:	mov    QWORD PTR [rsp+0x18],rax
    4870:	jmp    4818 <img_convert+0x58>
    4872:	or     DWORD PTR [rsp+0x20],0x4
    4877:	jmp    4818 <img_convert+0x58>
    4879:	mov    r13d,ebp
    487c:	sub    r13d,DWORD PTR [rip+0x25a65]        # 2a2e8 <optind@@GLIBC_2.2.5>
    4883:	lea    eax,[r13-0x1]
    4887:	mov    DWORD PTR [rsp+0x48],eax
    488b:	test   eax,eax
    488d:	jle    50e1 <img_convert+0x921>
    4893:	mov    rax,QWORD PTR [rbx+rbp*8-0x8]
    4898:	cmp    DWORD PTR [rsp+0x48],0x1
    489d:	mov    QWORD PTR [rsp+0x38],rax
    48a2:	jle    48b0 <img_convert+0xf0>
    48a4:	cmp    QWORD PTR [rsp+0x18],0x0
    48aa:	jne    5018 <img_convert+0x858>
    48b0:	movsxd rdi,DWORD PTR [rsp+0x48]
    48b5:	mov    esi,0x8
    48ba:	call   3330 <calloc@plt>
    48bf:	mov    r15,rax
    48c2:	test   rax,rax
    48c5:	je     5043 <img_convert+0x883>
    48cb:	lea    eax,[r13-0x2]
    48cf:	xor    r13d,r13d
    48d2:	mov    QWORD PTR [rsp+0x8],r12
    48d7:	xor    ebp,ebp
    48d9:	mov    QWORD PTR [rsp+0x10],rax
    48de:	lea    r14,[rsp+0x78]
    48e3:	mov    r12,r13
    48e6:	jmp    48f3 <img_convert+0x133>
    48e8:	nop    DWORD PTR [rax+rax*1+0x0]
    48f0:	mov    r12,rcx
    48f3:	mov    eax,DWORD PTR [rip+0x259ef]        # 2a2e8 <optind@@GLIBC_2.2.5>
    48f9:	mov    rsi,QWORD PTR [rsp+0x8]
    48fe:	add    eax,r12d
    4901:	cdqe
    4903:	mov    rdi,QWORD PTR [rbx+rax*8]
    4907:	call   4520 <bdrv_new_open>
    490c:	mov    QWORD PTR [r15+r12*8],rax
    4910:	test   rax,rax
    4913:	je     5026 <img_convert+0x866>
    4919:	mov    rdi,rax
    491c:	mov    rsi,r14
    491f:	call   191f0 <bdrv_get_geometry>
    4924:	mov    rax,QWORD PTR [rsp+0x78]
    4929:	lea    rcx,[r12+0x1]
    492e:	add    rax,rbp
    4931:	mov    rbp,rax
    4934:	cmp    QWORD PTR [rsp+0x10],r12
    4939:	jne    48f0 <img_convert+0x130>
    493b:	mov    rdi,QWORD PTR [rsp+0x28]
    4940:	mov    r12,QWORD PTR [rsp+0x8]
    4945:	mov    QWORD PTR [rsp+0x30],rax
    494a:	call   18060 <bdrv_find_format>
    494f:	test   rax,rax
    4952:	je     50d0 <img_convert+0x910>
    4958:	lea    rdx,[rip+0x25201]        # 29b60 <bdrv_qcow2>
    495f:	lea    rcx,[rip+0x247fa]        # 29160 <bdrv_qcow>
    4966:	mov    ebx,DWORD PTR [rsp+0x20]
    496a:	cmp    rax,rdx
    496d:	setne  dl
    4970:	cmp    rax,rcx
    4973:	setne  cl
    4976:	and    edx,ecx
    4978:	and    ebx,0x2
    497b:	je     4985 <img_convert+0x1c5>
    497d:	test   dl,dl
    497f:	jne    500a <img_convert+0x84a>
    4985:	test   BYTE PTR [rsp+0x20],0x1
    498a:	je     4994 <img_convert+0x1d4>
    498c:	test   dl,dl
    498e:	jne    505f <img_convert+0x89f>
    4994:	test   BYTE PTR [rsp+0x20],0x4
    4999:	je     49ab <img_convert+0x1eb>
    499b:	lea    rdx,[rip+0x248fe]        # 292a0 <bdrv_vmdk>
    49a2:	cmp    rax,rdx
    49a5:	jne    5051 <img_convert+0x891>
    49ab:	mov    edx,DWORD PTR [rsp+0x20]
    49af:	and    edx,0x3
    49b2:	cmp    edx,0x3
    49b5:	je     50c2 <img_convert+0x902>
    49bb:	mov    r8d,DWORD PTR [rsp+0x20]
    49c0:	mov    rcx,QWORD PTR [rsp+0x18]
    49c5:	mov    rdi,rax
    49c8:	mov    rdx,QWORD PTR [rsp+0x30]
    49cd:	mov    rsi,QWORD PTR [rsp+0x38]
    49d2:	call   180b0 <bdrv_create>
    49d7:	test   eax,eax
    49d9:	jns    49f7 <img_convert+0x237>
    49db:	cmp    eax,0xffffffa1
    49de:	je     4d17 <img_convert+0x557>
    49e4:	mov    rsi,QWORD PTR [rsp+0x38]
    49e9:	lea    rdi,[rip+0x186fe]        # 1d0ee <_IO_stdin_used+0xee>
    49f0:	xor    eax,eax
    49f2:	call   3da0 <error>
    49f7:	mov    rsi,QWORD PTR [rsp+0x28]
    49fc:	mov    rdi,QWORD PTR [rsp+0x38]
    4a01:	call   4520 <bdrv_new_open>
    4a06:	mov    rdi,QWORD PTR [r15]
    4a09:	mov    rsi,r14
    4a0c:	mov    QWORD PTR [rsp+0x38],rax
    4a11:	call   191f0 <bdrv_get_geometry>
    4a16:	test   ebx,ebx
    4a18:	jne    4d28 <img_convert+0x568>
    4a1e:	lea    rax,[rsp+0x90]
    4a26:	mov    QWORD PTR [rsp+0x8],r15
    4a2b:	xor    ebx,ebx
    4a2d:	xor    r12d,r12d
    4a30:	mov    DWORD PTR [rsp+0x28],0x0
    4a38:	mov    QWORD PTR [rsp+0x40],rax
    4a3d:	mov    QWORD PTR [rsp+0x10],r14
    4a42:	nop    WORD PTR [rax+rax*1+0x0]
    4a48:	mov    rax,QWORD PTR [rsp+0x30]
    4a4d:	sub    rax,r12
    4a50:	test   rax,rax
    4a53:	jle    4b48 <img_convert+0x388>
    4a59:	cmp    rax,0x80
    4a5f:	mov    edx,0x80
    4a64:	mov    r8,r12
    4a67:	cmovle rdx,rax
    4a6b:	sub    r8,rbx
    4a6e:	mov    QWORD PTR [rsp+0x20],rdx
    4a73:	mov    ebp,edx
    4a75:	mov    rdx,QWORD PTR [rsp+0x78]
    4a7a:	cmp    r8,rdx
    4a7d:	jb     4d01 <img_convert+0x541>
    4a83:	mov    eax,DWORD PTR [rsp+0x28]
    4a87:	add    eax,0x1
    4a8a:	cmp    DWORD PTR [rsp+0x48],eax
    4a8e:	jle    4fb0 <img_convert+0x7f0>
    4a94:	movsxd r15,eax
    4a97:	mov    DWORD PTR [rsp+0x28],ebp
    4a9b:	mov    rbp,r15
    4a9e:	mov    r15,rbx
    4aa1:	jmp    4ab6 <img_convert+0x2f6>
    4aa3:	nop    DWORD PTR [rax+rax*1+0x0]
    4aa8:	add    rbp,0x1
    4aac:	cmp    DWORD PTR [rsp+0x48],ebp
    4ab0:	jle    4fb0 <img_convert+0x7f0>
    4ab6:	mov    rax,QWORD PTR [rsp+0x8]
    4abb:	mov    rsi,QWORD PTR [rsp+0x10]
    4ac0:	lea    r13,[r15+rdx*1]
    4ac4:	mov    ebx,ebp
    4ac6:	mov    r15,r13
    4ac9:	mov    r14,QWORD PTR [rax+rbp*8]
    4acd:	mov    rdi,r14
    4ad0:	call   191f0 <bdrv_get_geometry>
    4ad5:	mov    r8,r12
    4ad8:	mov    rdx,QWORD PTR [rsp+0x78]
    4add:	sub    r8,r13
    4ae0:	cmp    r8,rdx
    4ae3:	jae    4aa8 <img_convert+0x2e8>
    4ae5:	mov    ebp,DWORD PTR [rsp+0x28]
    4ae9:	mov    DWORD PTR [rsp+0x28],ebx
    4aed:	mov    rbx,r13
    4af0:	add    r13,rdx
    4af3:	add    edx,ebx
    4af5:	sub    edx,r12d
    4af8:	sub    r13,r12
    4afb:	cmp    QWORD PTR [rsp+0x20],r13
    4b00:	cmova  ebp,edx
    4b03:	cmp    QWORD PTR [rsp+0x18],0x0
    4b09:	je     4bac <img_convert+0x3ec>
    4b0f:	mov    rsi,r8
    4b12:	lea    rcx,[rsp+0x74]
    4b17:	mov    edx,ebp
    4b19:	mov    rdi,r14
    4b1c:	mov    QWORD PTR [rsp+0x20],r8
    4b21:	call   19810 <bdrv_is_allocated>
    4b26:	mov    r8,QWORD PTR [rsp+0x20]
    4b2b:	test   eax,eax
    4b2d:	jne    4ba8 <img_convert+0x3e8>
    4b2f:	movsxd rax,DWORD PTR [rsp+0x74]
    4b34:	add    r12,rax
    4b37:	mov    rax,QWORD PTR [rsp+0x30]
    4b3c:	sub    rax,r12
    4b3f:	test   rax,rax
    4b42:	jg     4a59 <img_convert+0x299>
    4b48:	mov    r15,QWORD PTR [rsp+0x8]
    4b4d:	mov    rdi,QWORD PTR [rsp+0x38]
    4b52:	xor    ebx,ebx
    4b54:	call   18130 <bdrv_delete>
    4b59:	mov    ebp,DWORD PTR [rsp+0x48]
    4b5d:	mov    rdi,QWORD PTR [r15+rbx*8]
    4b61:	add    rbx,0x1
    4b65:	call   18130 <bdrv_delete>
    4b6a:	cmp    ebp,ebx
    4b6c:	jg     4b5d <img_convert+0x39d>
    4b6e:	mov    rdi,r15
    4b71:	call   3070 <free@plt>
    4b76:	xor    eax,eax
    4b78:	mov    rbx,QWORD PTR [rsp+0x10098]
    4b80:	xor    rbx,QWORD PTR fs:0x28
    4b89:	jne    50bd <img_convert+0x8fd>
    4b8f:	add    rsp,0x100a8
    4b96:	pop    rbx
    4b97:	pop    rbp
    4b98:	pop    r12
    4b9a:	pop    r13
    4b9c:	pop    r14
    4b9e:	pop    r15
    4ba0:	ret
    4ba1:	nop    DWORD PTR [rax+0x0]
    4ba8:	mov    ebp,DWORD PTR [rsp+0x74]
    4bac:	mov    r13,QWORD PTR [rsp+0x40]
    4bb1:	mov    ecx,ebp
    4bb3:	mov    rsi,r8
    4bb6:	mov    rdi,r14
    4bb9:	mov    rdx,r13
    4bbc:	call   18210 <bdrv_read>
    4bc1:	test   eax,eax
    4bc3:	js     4ffc <img_convert+0x83c>
    4bc9:	test   ebp,ebp
    4bcb:	jle    4a48 <img_convert+0x288>
    4bd1:	mov    r14,QWORD PTR [rsp+0x18]
    4bd6:	mov    r15,QWORD PTR [rsp+0x38]
    4bdb:	jmp    4c17 <img_convert+0x457>
    4bdd:	nop    DWORD PTR [rax]
    4be0:	mov    ecx,DWORD PTR [rsp+0x74]
    4be4:	mov    rdx,r13
    4be7:	mov    rsi,r12
    4bea:	mov    rdi,r15
    4bed:	call   18650 <bdrv_write>
    4bf2:	test   eax,eax
    4bf4:	js     4fcf <img_convert+0x80f>
    4bfa:	mov    ecx,DWORD PTR [rsp+0x74]
    4bfe:	movsxd rax,ecx
    4c01:	sub    ebp,ecx
    4c03:	shl    ecx,0x9
    4c06:	movsxd rcx,ecx
    4c09:	add    r12,rax
    4c0c:	add    r13,rcx
    4c0f:	test   ebp,ebp
    4c11:	jle    4a48 <img_convert+0x288>
    4c17:	test   r14,r14
    4c1a:	jne    4be0 <img_convert+0x420>
    4c1c:	lea    rdx,[r13+0x200]
    4c23:	mov    rax,r13
    4c26:	nop    WORD PTR cs:[rax+rax*1+0x0]
    4c30:	mov    r8d,DWORD PTR [rax]
    4c33:	test   r8d,r8d
    4c36:	jne    4cd0 <img_convert+0x510>
    4c3c:	add    rax,0x4
    4c40:	cmp    rdx,rax
    4c43:	jne    4c30 <img_convert+0x470>
    4c45:	cmp    ebp,0x1
    4c48:	je     4cf0 <img_convert+0x530>
    4c4e:	xor    esi,esi
    4c50:	lea    rdx,[r13+0x400]
    4c57:	mov    ecx,0x1
    4c5c:	nop    DWORD PTR [rax+0x0]
    4c60:	lea    rax,[rdx-0x200]
    4c67:	nop    WORD PTR [rax+rax*1+0x0]
    4c70:	mov    edi,DWORD PTR [rax]
    4c72:	test   edi,edi
    4c74:	jne    4cb0 <img_convert+0x4f0>
    4c76:	add    rax,0x4
    4c7a:	cmp    rdx,rax
    4c7d:	jne    4c70 <img_convert+0x4b0>
    4c7f:	xor    eax,eax
    4c81:	cmp    esi,eax
    4c83:	jne    4cb9 <img_convert+0x4f9>
    4c85:	add    ecx,0x1
    4c88:	add    rdx,0x200
    4c8f:	cmp    ecx,ebp
    4c91:	jl     4c60 <img_convert+0x4a0>
    4c93:	mov    DWORD PTR [rsp+0x74],ecx
    4c97:	test   esi,esi
    4c99:	jne    4be4 <img_convert+0x424>
    4c9f:	movsxd rcx,ecx
    4ca2:	add    r12,rcx
    4ca5:	jmp    4a48 <img_convert+0x288>
    4caa:	nop    WORD PTR [rax+rax*1+0x0]
    4cb0:	mov    eax,0x1
    4cb5:	cmp    esi,eax
    4cb7:	je     4c85 <img_convert+0x4c5>
    4cb9:	mov    DWORD PTR [rsp+0x74],ecx
    4cbd:	test   esi,esi
    4cbf:	je     4bfe <img_convert+0x43e>
    4cc5:	jmp    4be4 <img_convert+0x424>
    4cca:	nop    WORD PTR [rax+rax*1+0x0]
    4cd0:	mov    esi,0x1
    4cd5:	cmp    ebp,0x1
    4cd8:	jne    4c50 <img_convert+0x490>
    4cde:	mov    DWORD PTR [rsp+0x74],0x1
    4ce6:	mov    ecx,0x1
    4ceb:	jmp    4be4 <img_convert+0x424>
    4cf0:	mov    DWORD PTR [rsp+0x74],0x1
    4cf8:	add    r12,0x1
    4cfc:	jmp    4a48 <img_convert+0x288>
    4d01:	movsxd rax,DWORD PTR [rsp+0x28]
    4d06:	mov    rsi,QWORD PTR [rsp+0x8]
    4d0b:	mov    r13,rbx
    4d0e:	mov    r14,QWORD PTR [rsi+rax*8]
    4d12:	jmp    4af0 <img_convert+0x330>
    4d17:	mov    rsi,r12
    4d1a:	lea    rdi,[rip+0x18ecf]        # 1dbf0 <_IO_stdin_used+0xbf0>
    4d21:	xor    eax,eax
    4d23:	call   3da0 <error>
    4d28:	mov    rdi,QWORD PTR [rsp+0x38]
    4d2d:	lea    rsi,[rsp+0x80]
    4d35:	call   19ba0 <bdrv_get_info>
    4d3a:	test   eax,eax
    4d3c:	js     50af <img_convert+0x8ef>
    4d42:	mov    eax,DWORD PTR [rsp+0x80]
    4d49:	mov    DWORD PTR [rsp+0x68],eax
    4d4d:	sub    eax,0x1
    4d50:	cmp    eax,0xffff
    4d55:	ja     50a1 <img_convert+0x8e1>
    4d5b:	mov    eax,DWORD PTR [rsp+0x68]
    4d5f:	lea    rbx,[rsp+0x90]
    4d67:	mov    r12d,DWORD PTR [rsp+0x48]
    4d6c:	xor    ebp,ebp
    4d6e:	mov    QWORD PTR [rsp+0x40],0x0
    4d77:	mov    edi,eax
    4d79:	sar    eax,0x2
    4d7c:	mov    QWORD PTR [rsp+0x50],rbx
    4d81:	mov    DWORD PTR [rsp+0x6c],eax
    4d85:	sub    eax,0x1
    4d88:	sar    edi,0x9
    4d8b:	lea    rax,[rbx+rax*4+0x4]
    4d90:	mov    DWORD PTR [rsp+0x4c],edi
    4d94:	xor    ebx,ebx
    4d96:	mov    QWORD PTR [rsp+0x60],rax
    4d9b:	movsxd rax,edi
    4d9e:	mov    QWORD PTR [rsp+0x58],rax
    4da3:	mov    rax,QWORD PTR [rsp+0x30]
    4da8:	mov    rsi,QWORD PTR [rsp+0x40]
    4dad:	sub    rax,rsi
    4db0:	test   rax,rax
    4db3:	jle    508c <img_convert+0x8cc>
    4db9:	sub    rsi,rbp
    4dbc:	mov    r9,rsi
    4dbf:	cmp    QWORD PTR [rsp+0x58],rax
    4dc4:	jle    4f44 <img_convert+0x784>
    4dca:	mov    DWORD PTR [rsp+0x28],eax
    4dce:	test   rsi,rsi
    4dd1:	js     506d <img_convert+0x8ad>
    4dd7:	mov    eax,DWORD PTR [rsp+0x28]
    4ddb:	mov    DWORD PTR [rsp+0x8],eax
    4ddf:	mov    rax,QWORD PTR [rsp+0x50]
    4de4:	mov    QWORD PTR [rsp+0x10],rax
    4de9:	nop    DWORD PTR [rax+0x0]
    4df0:	mov    rdx,QWORD PTR [rsp+0x78]
    4df5:	cmp    r9,rdx
    4df8:	jne    4f19 <img_convert+0x759>
    4dfe:	add    ebx,0x1
    4e01:	cmp    r12d,ebx
    4e04:	jle    4f91 <img_convert+0x7d1>
    4e0a:	movsxd r13,ebx
    4e0d:	jmp    4e1d <img_convert+0x65d>
    4e0f:	nop
    4e10:	add    r13,0x1
    4e14:	cmp    r12d,r13d
    4e17:	jle    4f91 <img_convert+0x7d1>
    4e1d:	mov    rdi,QWORD PTR [r15+r13*8]
    4e21:	mov    rsi,r14
    4e24:	add    rbp,rdx
    4e27:	mov    ebx,r13d
    4e2a:	call   191f0 <bdrv_get_geometry>
    4e2f:	mov    rdx,QWORD PTR [rsp+0x78]
    4e34:	test   rdx,rdx
    4e37:	je     4e10 <img_convert+0x650>
    4e39:	xor    eax,eax
    4e3b:	xor    r9d,r9d
    4e3e:	movsxd r8,DWORD PTR [rsp+0x8]
    4e43:	sub    rdx,rax
    4e46:	movsxd rax,ebx
    4e49:	mov    rsi,r9
    4e4c:	mov    rdi,QWORD PTR [r15+rax*8]
    4e50:	mov    QWORD PTR [rsp+0x18],r9
    4e55:	cmp    rdx,r8
    4e58:	cmovbe r8,rdx
    4e5c:	mov    rdx,QWORD PTR [rsp+0x10]
    4e61:	mov    ecx,r8d
    4e64:	mov    QWORD PTR [rsp+0x20],r8
    4e69:	call   18210 <bdrv_read>
    4e6e:	mov    r9,QWORD PTR [rsp+0x18]
    4e73:	mov    r8,QWORD PTR [rsp+0x20]
    4e78:	test   eax,eax
    4e7a:	js     4ffc <img_convert+0x83c>
    4e80:	mov    eax,r8d
    4e83:	sub    DWORD PTR [rsp+0x8],r8d
    4e88:	add    r9,r8
    4e8b:	shl    eax,0x9
    4e8e:	cdqe
    4e90:	add    QWORD PTR [rsp+0x10],rax
    4e95:	mov    eax,DWORD PTR [rsp+0x8]
    4e99:	test   eax,eax
    4e9b:	jg     4df0 <img_convert+0x630>
    4ea1:	jne    4fdd <img_convert+0x81d>
    4ea7:	mov    edi,DWORD PTR [rsp+0x28]
    4eab:	cmp    DWORD PTR [rsp+0x4c],edi
    4eaf:	jle    4ed0 <img_convert+0x710>
    4eb1:	mov    eax,edi
    4eb3:	mov    edx,DWORD PTR [rsp+0x68]
    4eb7:	mov    rdi,QWORD PTR [rsp+0x50]
    4ebc:	xor    esi,esi
    4ebe:	shl    eax,0x9
    4ec1:	sub    edx,eax
    4ec3:	cdqe
    4ec5:	movsxd rdx,edx
    4ec8:	add    rdi,rax
    4ecb:	call   3250 <memset@plt>
    4ed0:	cmp    DWORD PTR [rsp+0x6c],0x0
    4ed5:	je     4f0a <img_convert+0x74a>
    4ed7:	cmp    DWORD PTR [rsp+0x90],0x0
    4edf:	jne    4f62 <img_convert+0x7a2>
    4ee5:	mov    rax,QWORD PTR [rsp+0x50]
    4eea:	mov    rdx,QWORD PTR [rsp+0x60]
    4eef:	add    rax,0x4
    4ef3:	jmp    4f05 <img_convert+0x745>
    4ef5:	nop    DWORD PTR [rax]
    4ef8:	add    rax,0x4
    4efc:	mov    r9d,DWORD PTR [rax-0x4]
    4f00:	test   r9d,r9d
    4f03:	jne    4f62 <img_convert+0x7a2>
    4f05:	cmp    rdx,rax
    4f08:	jne    4ef8 <img_convert+0x738>
    4f0a:	movsxd rax,DWORD PTR [rsp+0x28]
    4f0f:	add    QWORD PTR [rsp+0x40],rax
    4f14:	jmp    4da3 <img_convert+0x5e3>
    4f19:	mov    rax,r9
    4f1c:	cmp    rdx,r9
    4f1f:	ja     4e3e <img_convert+0x67e>
    4f25:	lea    rcx,[rip+0x18f4c]        # 1de78 <__PRETTY_FUNCTION__.13895>
    4f2c:	mov    edx,0x211
    4f31:	lea    rsi,[rip+0x181e7]        # 1d11f <_IO_stdin_used+0x11f>
    4f38:	lea    rdi,[rip+0x18203]        # 1d142 <_IO_stdin_used+0x142>
    4f3f:	call   3230 <__assert_fail@plt>
    4f44:	test   rsi,rsi
    4f47:	js     506d <img_convert+0x8ad>
    4f4d:	mov    eax,DWORD PTR [rsp+0x4c]
    4f51:	mov    DWORD PTR [rsp+0x28],eax
    4f55:	test   eax,eax
    4f57:	jne    4dd7 <img_convert+0x617>
    4f5d:	jmp    4ed0 <img_convert+0x710>
    4f62:	mov    ecx,DWORD PTR [rsp+0x4c]
    4f66:	mov    rdx,QWORD PTR [rsp+0x50]
    4f6b:	mov    rsi,QWORD PTR [rsp+0x40]
    4f70:	mov    rdi,QWORD PTR [rsp+0x38]
    4f75:	call   19ad0 <bdrv_write_compressed>
    4f7a:	test   eax,eax
    4f7c:	je     4f0a <img_convert+0x74a>
    4f7e:	mov    rsi,QWORD PTR [rsp+0x40]
    4f83:	lea    rdi,[rip+0x18cb6]        # 1dc40 <_IO_stdin_used+0xc40>
    4f8a:	xor    eax,eax
    4f8c:	call   3da0 <error>
    4f91:	lea    rcx,[rip+0x18ee0]        # 1de78 <__PRETTY_FUNCTION__.13895>
    4f98:	mov    edx,0x209
    4f9d:	lea    rsi,[rip+0x1817b]        # 1d11f <_IO_stdin_used+0x11f>
    4fa4:	lea    rdi,[rip+0x1818b]        # 1d136 <_IO_stdin_used+0x136>
    4fab:	call   3230 <__assert_fail@plt>
    4fb0:	lea    rcx,[rip+0x18ec1]        # 1de78 <__PRETTY_FUNCTION__.13895>
    4fb7:	mov    edx,0x238
    4fbc:	lea    rsi,[rip+0x1815c]        # 1d11f <_IO_stdin_used+0x11f>
    4fc3:	lea    rdi,[rip+0x1816c]        # 1d136 <_IO_stdin_used+0x136>
    4fca:	call   3230 <__assert_fail@plt>
    4fcf:	lea    rdi,[rip+0x181a3]        # 1d179 <_IO_stdin_used+0x179>
    4fd6:	xor    eax,eax
    4fd8:	call   3da0 <error>
    4fdd:	lea    rcx,[rip+0x18e94]        # 1de78 <__PRETTY_FUNCTION__.13895>
    4fe4:	mov    edx,0x21d
    4fe9:	lea    rsi,[rip+0x1812f]        # 1d11f <_IO_stdin_used+0x11f>
    4ff0:	lea    rdi,[rip+0x18173]        # 1d16a <_IO_stdin_used+0x16a>
    4ff7:	call   3230 <__assert_fail@plt>
    4ffc:	lea    rdi,[rip+0x18153]        # 1d156 <_IO_stdin_used+0x156>
    5003:	xor    eax,eax
    5005:	call   3da0 <error>
    500a:	lea    rdi,[rip+0x18af7]        # 1db08 <_IO_stdin_used+0xb08>
    5011:	xor    eax,eax
    5013:	call   3da0 <error>
    5018:	lea    rdi,[rip+0x18aa9]        # 1dac8 <_IO_stdin_used+0xac8>
    501f:	xor    eax,eax
    5021:	call   3da0 <error>
    5026:	mov    eax,DWORD PTR [rip+0x252bc]        # 2a2e8 <optind@@GLIBC_2.2.5>
    502c:	lea    rdi,[rip+0x18032]        # 1d065 <_IO_stdin_used+0x65>
    5033:	add    eax,r12d
    5036:	cdqe
    5038:	mov    rsi,QWORD PTR [rbx+rax*8]
    503c:	xor    eax,eax
    503e:	call   3da0 <error>
    5043:	lea    rdi,[rip+0x18096]        # 1d0e0 <_IO_stdin_used+0xe0>
    504a:	xor    eax,eax
    504c:	call   3da0 <error>
    5051:	lea    rdi,[rip+0x18b10]        # 1db68 <_IO_stdin_used+0xb68>
    5058:	xor    eax,eax
    505a:	call   3da0 <error>
    505f:	lea    rdi,[rip+0x18ad2]        # 1db38 <_IO_stdin_used+0xb38>
    5066:	xor    eax,eax
    5068:	call   3da0 <error>
    506d:	lea    rcx,[rip+0x18e04]        # 1de78 <__PRETTY_FUNCTION__.13895>
    5074:	mov    edx,0x202
    5079:	lea    rsi,[rip+0x1809f]        # 1d11f <_IO_stdin_used+0x11f>
    5080:	lea    rdi,[rip+0x180a3]        # 1d12a <_IO_stdin_used+0x12a>
    5087:	call   3230 <__assert_fail@plt>
    508c:	mov    rdi,QWORD PTR [rsp+0x38]
    5091:	xor    ecx,ecx
    5093:	xor    edx,edx
    5095:	xor    esi,esi
    5097:	call   19ad0 <bdrv_write_compressed>
    509c:	jmp    4b4d <img_convert+0x38d>
    50a1:	lea    rdi,[rip+0x18062]        # 1d10a <_IO_stdin_used+0x10a>
    50a8:	xor    eax,eax
    50aa:	call   3da0 <error>
    50af:	lea    rdi,[rip+0x18b6a]        # 1dc20 <_IO_stdin_used+0xc20>
    50b6:	xor    eax,eax
    50b8:	call   3da0 <error>
    50bd:	call   31c0 <__stack_chk_fail@plt>
    50c2:	lea    rdi,[rip+0x18ae7]        # 1dbb0 <_IO_stdin_used+0xbb0>
    50c9:	xor    eax,eax
    50cb:	call   3da0 <error>
    50d0:	mov    rsi,QWORD PTR [rsp+0x28]
    50d5:	lea    rdi,[rip+0x17f70]        # 1d04c <_IO_stdin_used+0x4c>
    50dc:	call   3da0 <error>
    50e1:	call   3f60 <help>
    50e6:	nop    WORD PTR cs:[rax+rax*1+0x0]

00000000000050f0 <qemu_service_io>:
    50f0:	ret
    50f1:	data16 nop WORD PTR cs:[rax+rax*1+0x0]
    50fc:	nop    DWORD PTR [rax+0x0]

0000000000005100 <term_printf>:
    5100:	ret
    5101:	data16 nop WORD PTR cs:[rax+rax*1+0x0]
    510c:	nop    DWORD PTR [rax+0x0]

0000000000005110 <term_print_filename>:
    5110:	ret
    5111:	data16 nop WORD PTR cs:[rax+rax*1+0x0]
    511c:	nop    DWORD PTR [rax+0x0]

0000000000005120 <qemu_bh_new>:
    5120:	push   rbp
    5121:	mov    rbp,rdi
    5124:	mov    edi,0x10
    5129:	push   rbx
    512a:	mov    rbx,rsi
    512d:	sub    rsp,0x8
    5131:	call   5970 <qemu_malloc>
    5136:	mov    QWORD PTR [rax],rbp
    5139:	mov    QWORD PTR [rax+0x8],rbx
    513d:	add    rsp,0x8
    5141:	pop    rbx
    5142:	pop    rbp
    5143:	ret
    5144:	data16 nop WORD PTR cs:[rax+rax*1+0x0]
    514f:	nop

0000000000005150 <qemu_bh_poll>:
    5150:	xor    eax,eax
    5152:	ret
    5153:	data16 nop WORD PTR cs:[rax+rax*1+0x0]
    515e:	xchg   ax,ax

0000000000005160 <qemu_bh_schedule>:
    5160:	mov    rax,rdi
    5163:	mov    rdi,QWORD PTR [rdi+0x8]
    5167:	jmp    QWORD PTR [rax]
    5169:	nop    DWORD PTR [rax+0x0]

0000000000005170 <qemu_bh_cancel>:
    5170:	ret
    5171:	data16 nop WORD PTR cs:[rax+rax*1+0x0]
    517c:	nop    DWORD PTR [rax+0x0]

0000000000005180 <qemu_bh_delete>:
    5180:	jmp    5960 <qemu_free>
    5185:	data16 nop WORD PTR cs:[rax+rax*1+0x0]

0000000000005190 <qemu_set_fd_handler2>:
    5190:	xor    eax,eax
    5192:	ret
    5193:	data16 nop WORD PTR cs:[rax+rax*1+0x0]
    519e:	xchg   ax,ax

00000000000051a0 <qemu_get_clock>:
    51a0:	sub    rsp,0x28
    51a4:	xor    esi,esi
    51a6:	mov    rax,QWORD PTR fs:0x28
    51af:	mov    QWORD PTR [rsp+0x18],rax
    51b4:	xor    eax,eax
    51b6:	mov    rdi,rsp
    51b9:	call   3220 <gettimeofday@plt>
    51be:	imul   rcx,QWORD PTR [rsp],0x3b9aca00
    51c6:	movabs rdx,0x431bde82d7b634db
    51d0:	imul   rax,QWORD PTR [rsp+0x8],0x3e8
    51d9:	add    rcx,rax
    51dc:	mov    rax,rcx
    51df:	sar    rcx,0x3f
    51e3:	imul   rdx
    51e6:	sar    rdx,0x12
    51ea:	mov    rax,rdx
    51ed:	sub    rax,rcx
    51f0:	mov    rsi,QWORD PTR [rsp+0x18]
    51f5:	xor    rsi,QWORD PTR fs:0x28
    51fe:	jne    5205 <qemu_get_clock+0x65>
    5200:	add    rsp,0x28
    5204:	ret
    5205:	call   31c0 <__stack_chk_fail@plt>
    520a:	nop    WORD PTR [rax+rax*1+0x0]

0000000000005210 <qemu_read>:
    5210:	push   r13
    5212:	mov    r13d,edi
    5215:	push   r12
    5217:	mov    r12,rsi
    521a:	push   rbp
    521b:	xor    ebp,ebp
    521d:	push   rbx
    521e:	mov    rbx,rdx
    5221:	sub    rsp,0x8
    5225:	test   rdx,rdx
    5228:	je     524f <qemu_read+0x3f>
    522a:	mov    rdx,rbx
    522d:	mov    rsi,r12
    5230:	mov    edi,r13d
    5233:	call   32e0 <read@plt>
    5238:	test   rax,rax
    523b:	je     5290 <qemu_read+0x80>
    523d:	js     5260 <qemu_read+0x50>
    523f:	cmp    rax,rbx
    5242:	ja     529d <qemu_read+0x8d>
    5244:	add    rbp,rax
    5247:	add    r12,rax
    524a:	sub    rbx,rax
    524d:	jne    522a <qemu_read+0x1a>
    524f:	add    rsp,0x8
    5253:	mov    rax,rbp
    5256:	pop    rbx
    5257:	pop    rbp
    5258:	pop    r12
    525a:	pop    r13
    525c:	ret
    525d:	nop    DWORD PTR [rax]
    5260:	call   30d0 <__errno_location@plt>
    5265:	cmp    DWORD PTR [rax],0x4
    5268:	je     522a <qemu_read+0x1a>
    526a:	test   rbp,rbp
    526d:	mov    rax,0xffffffffffffffff
    5274:	cmove  rbp,rax
    5278:	add    rsp,0x8
    527c:	pop    rbx
    527d:	mov    rax,rbp
    5280:	pop    rbp
    5281:	pop    r12
    5283:	pop    r13
    5285:	ret
    5286:	nop    WORD PTR cs:[rax+rax*1+0x0]
    5290:	call   30d0 <__errno_location@plt>
    5295:	mov    DWORD PTR [rax],0x0
    529b:	jmp    524f <qemu_read+0x3f>
    529d:	lea    rcx,[rip+0x18c0c]        # 1deb0 <__PRETTY_FUNCTION__.13430>
    52a4:	mov    edx,0x4b
    52a9:	lea    rsi,[rip+0x18bd4]        # 1de84 <__PRETTY_FUNCTION__.13895+0xc>
    52b0:	lea    rdi,[rip+0x18bd5]        # 1de8c <__PRETTY_FUNCTION__.13895+0x14>
    52b7:	call   3230 <__assert_fail@plt>
    52bc:	nop    DWORD PTR [rax+0x0]

00000000000052c0 <qemu_read_ok>:
    52c0:	push   rbx
    52c1:	mov    rbx,rdx
    52c4:	call   5210 <qemu_read>
    52c9:	cmp    rbx,rax
    52cc:	pop    rbx
    52cd:	sete   al
    52d0:	movzx  eax,al
    52d3:	lea    eax,[rax+rax*1-0x1]
    52d7:	ret
    52d8:	nop    DWORD PTR [rax+rax*1+0x0]

00000000000052e0 <qemu_write>:
    52e0:	push   r13
    52e2:	mov    r13d,edi
    52e5:	push   r12
    52e7:	mov    r12,rsi
    52ea:	push   rbp
    52eb:	xor    ebp,ebp
    52ed:	push   rbx
    52ee:	mov    rbx,rdx
    52f1:	sub    rsp,0x8
    52f5:	test   rdx,rdx
    52f8:	je     531f <qemu_write+0x3f>
    52fa:	mov    rdx,rbx
    52fd:	mov    rsi,r12
    5300:	mov    edi,r13d
    5303:	call   3160 <write@plt>
    5308:	test   rax,rax
    530b:	je     5360 <qemu_write+0x80>
    530d:	js     5330 <qemu_write+0x50>
    530f:	cmp    rax,rbx
    5312:	ja     536d <qemu_write+0x8d>
    5314:	add    rbp,rax
    5317:	add    r12,rax
    531a:	sub    rbx,rax
    531d:	jne    52fa <qemu_write+0x1a>
    531f:	add    rsp,0x8
    5323:	mov    rax,rbp
    5326:	pop    rbx
    5327:	pop    rbp
    5328:	pop    r12
    532a:	pop    r13
    532c:	ret
    532d:	nop    DWORD PTR [rax]
    5330:	call   30d0 <__errno_location@plt>
    5335:	cmp    DWORD PTR [rax],0x4
    5338:	je     52fa <qemu_write+0x1a>
    533a:	test   rbp,rbp
    533d:	mov    rax,0xffffffffffffffff
    5344:	cmove  rbp,rax
    5348:	add    rsp,0x8
    534c:	pop    rbx
    534d:	mov    rax,rbp
    5350:	pop    rbp
    5351:	pop    r12
    5353:	pop    r13
    5355:	ret
    5356:	nop    WORD PTR cs:[rax+rax*1+0x0]
    5360:	call   30d0 <__errno_location@plt>
    5365:	mov    DWORD PTR [rax],0x0
    536b:	jmp    531f <qemu_write+0x3f>
    536d:	lea    rcx,[rip+0x18b2c]        # 1dea0 <__PRETTY_FUNCTION__.13447>
    5374:	mov    edx,0x4c
    5379:	lea    rsi,[rip+0x18b04]        # 1de84 <__PRETTY_FUNCTION__.13895+0xc>
    5380:	lea    rdi,[rip+0x18b05]        # 1de8c <__PRETTY_FUNCTION__.13895+0x14>
    5387:	call   3230 <__assert_fail@plt>
    538c:	nop    DWORD PTR [rax+0x0]

0000000000005390 <qemu_write_ok>:
    5390:	push   rbx
    5391:	mov    rbx,rdx
    5394:	call   52e0 <qemu_write>
    5399:	cmp    rbx,rax
    539c:	pop    rbx
    539d:	sete   al
    53a0:	movzx  eax,al
    53a3:	lea    eax,[rax+rax*1-0x1]
    53a7:	ret
    53a8:	nop    DWORD PTR [rax+rax*1+0x0]

00000000000053b0 <qemu_memalign>:
    53b0:	sub    rsp,0x18
    53b4:	mov    rax,rdi
    53b7:	mov    rdx,rsi
    53ba:	mov    rcx,QWORD PTR fs:0x28
    53c3:	mov    QWORD PTR [rsp+0x8],rcx
    53c8:	xor    ecx,ecx
    53ca:	mov    rdi,rsp
    53cd:	mov    rsi,rax
    53d0:	call   3670 <posix_memalign@plt>
    53d5:	mov    rdx,QWORD PTR [rsp]
    53d9:	test   eax,eax
    53db:	je     53df <qemu_memalign+0x2f>
    53dd:	xor    edx,edx
    53df:	mov    rcx,QWORD PTR [rsp+0x8]
    53e4:	xor    rcx,QWORD PTR fs:0x28
    53ed:	mov    rax,rdx
    53f0:	jne    53f7 <qemu_memalign+0x47>
    53f2:	add    rsp,0x18
    53f6:	ret
    53f7:	call   31c0 <__stack_chk_fail@plt>
    53fc:	nop    DWORD PTR [rax+0x0]

0000000000005400 <qemu_vmalloc>:
    5400:	push   rbx
    5401:	mov    rbx,rdi
    5404:	sub    rsp,0x10
    5408:	mov    rax,QWORD PTR fs:0x28
    5411:	mov    QWORD PTR [rsp+0x8],rax
    5416:	xor    eax,eax
    5418:	call   3610 <getpagesize@plt>
    541d:	mov    rdx,rbx
    5420:	mov    rdi,rsp
    5423:	movsxd rsi,eax
    5426:	call   3670 <posix_memalign@plt>
    542b:	mov    rdx,QWORD PTR [rsp]
    542f:	test   eax,eax
    5431:	je     5435 <qemu_vmalloc+0x35>
    5433:	xor    edx,edx
    5435:	mov    rcx,QWORD PTR [rsp+0x8]
    543a:	xor    rcx,QWORD PTR fs:0x28
    5443:	mov    rax,rdx
    5446:	jne    544e <qemu_vmalloc+0x4e>
    5448:	add    rsp,0x10
    544c:	pop    rbx
    544d:	ret
    544e:	call   31c0 <__stack_chk_fail@plt>
    5453:	data16 nop WORD PTR cs:[rax+rax*1+0x0]
    545e:	xchg   ax,ax

0000000000005460 <qemu_vfree>:
    5460:	jmp    3070 <free@plt>
    5465:	data16 nop WORD PTR cs:[rax+rax*1+0x0]

0000000000005470 <qemu_create_pidfile>:
    5470:	push   r12
    5472:	mov    edx,0x180
    5477:	mov    esi,0x42
    547c:	push   rbp
    547d:	push   rbx
    547e:	sub    rsp,0x90
    5485:	mov    rax,QWORD PTR fs:0x28
    548e:	mov    QWORD PTR [rsp+0x88],rax
    5496:	xor    eax,eax
    5498:	call   3500 <open64@plt>
    549d:	cmp    eax,0xffffffff
    54a0:	je     5520 <qemu_create_pidfile+0xb0>
    54a2:	xor    edx,edx
    54a4:	mov    esi,0x2
    54a9:	mov    edi,eax
    54ab:	mov    ebp,eax
    54ad:	call   3550 <lockf64@plt>
    54b2:	cmp    eax,0xffffffff
    54b5:	je     5520 <qemu_create_pidfile+0xb0>
    54b7:	call   3170 <getpid@plt>
    54bc:	mov    r12,rsp
    54bf:	mov    ecx,0x80
    54c4:	lea    r8,[rip+0x189ce]        # 1de99 <__PRETTY_FUNCTION__.13895+0x21>
    54cb:	movsxd r9,eax
    54ce:	mov    edx,0x1
    54d3:	mov    esi,0x80
    54d8:	mov    rdi,r12
    54db:	xor    eax,eax
    54dd:	call   3060 <__snprintf_chk@plt>
    54e2:	mov    rsi,r12
    54e5:	mov    edi,ebp
    54e7:	movsxd rbx,eax
    54ea:	mov    rdx,rbx
    54ed:	call   3160 <write@plt>
    54f2:	cmp    rbx,rax
    54f5:	setne  al
    54f8:	movzx  eax,al
    54fb:	neg    eax
    54fd:	mov    rcx,QWORD PTR [rsp+0x88]
    5505:	xor    rcx,QWORD PTR fs:0x28
    550e:	jne    5527 <qemu_create_pidfile+0xb7>
    5510:	add    rsp,0x90
    5517:	pop    rbx
    5518:	pop    rbp
    5519:	pop    r12
    551b:	ret
    551c:	nop    DWORD PTR [rax+0x0]
    5520:	mov    eax,0xffffffff
    5525:	jmp    54fd <qemu_create_pidfile+0x8d>
    5527:	call   31c0 <__stack_chk_fail@plt>
    552c:	nop    DWORD PTR [rax+0x0]

0000000000005530 <socket_set_nonblock>:
    5530:	push   rbx
    5531:	mov    esi,0x3
    5536:	xor    eax,eax
    5538:	mov    ebx,edi
    553a:	call   3520 <fcntl64@plt>
    553f:	mov    edi,ebx
    5541:	mov    esi,0x4
    5546:	pop    rbx
    5547:	or     ah,0x8
    554a:	mov    edx,eax
    554c:	xor    eax,eax
    554e:	jmp    3520 <fcntl64@plt>
    5553:	nop    WORD PTR cs:[rax+rax*1+0x0]
    555d:	nop    DWORD PTR [rax]

0000000000005560 <pstrcpy>:
    5560:	test   rsi,rsi
    5563:	je     559b <pstrcpy+0x3b>
    5565:	movzx  eax,BYTE PTR [rdx]
    5568:	lea    rcx,[rdx+0x1]
    556c:	test   al,al
    556e:	je     5598 <pstrcpy+0x38>
    5570:	lea    rdx,[rdi+rsi*1-0x1]
    5575:	cmp    rdi,rdx
    5578:	jb     5585 <pstrcpy+0x25>
    557a:	jmp    5598 <pstrcpy+0x38>
    557c:	nop    DWORD PTR [rax+0x0]
    5580:	cmp    rdi,rdx
    5583:	je     5598 <pstrcpy+0x38>
    5585:	add    rdi,0x1
    5589:	add    rcx,0x1
    558d:	mov    BYTE PTR [rdi-0x1],al
    5590:	movzx  eax,BYTE PTR [rcx-0x1]
    5594:	test   al,al
    5596:	jne    5580 <pstrcpy+0x20>
    5598:	mov    BYTE PTR [rdi],0x0
    559b:	ret
    559c:	nop    DWORD PTR [rax+0x0]

00000000000055a0 <pstrcat>:
    55a0:	push   r12
    55a2:	mov    r12,rdx
    55a5:	push   rbp
    55a6:	mov    rbp,rdi
    55a9:	push   rbx
    55aa:	mov    rbx,rsi
    55ad:	call   31b0 <strlen@plt>
    55b2:	cdqe
    55b4:	cmp    rax,rbx
    55b7:	jb     55c8 <pstrcat+0x28>
    55b9:	mov    rax,rbp
    55bc:	pop    rbx
    55bd:	pop    rbp
    55be:	pop    r12
    55c0:	ret
    55c1:	nop    DWORD PTR [rax+0x0]
    55c8:	movzx  edx,BYTE PTR [r12]
    55cd:	sub    rbx,0x1
    55d1:	add    rax,rbp
    55d4:	lea    rcx,[r12+0x1]
    55d9:	test   dl,dl
    55db:	je     5608 <pstrcat+0x68>
    55dd:	add    rbx,rbp
    55e0:	cmp    rax,rbx
    55e3:	jb     55f5 <pstrcat+0x55>
    55e5:	jmp    5608 <pstrcat+0x68>
    55e7:	nop    WORD PTR [rax+rax*1+0x0]
    55f0:	cmp    rax,rbx
    55f3:	je     5608 <pstrcat+0x68>
    55f5:	add    rax,0x1
    55f9:	add    rcx,0x1
    55fd:	mov    BYTE PTR [rax-0x1],dl
    5600:	movzx  edx,BYTE PTR [rcx-0x1]
    5604:	test   dl,dl
    5606:	jne    55f0 <pstrcat+0x50>
    5608:	mov    BYTE PTR [rax],0x0
    560b:	mov    rax,rbp
    560e:	pop    rbx
    560f:	pop    rbp
    5610:	pop    r12
    5612:	ret
    5613:	data16 nop WORD PTR cs:[rax+rax*1+0x0]
    561e:	xchg   ax,ax

0000000000005620 <strstart>:
    5620:	jmp    5634 <strstart+0x14>
    5622:	nop    WORD PTR [rax+rax*1+0x0]
    5628:	cmp    BYTE PTR [rdi],al
    562a:	jne    5650 <strstart+0x30>
    562c:	add    rdi,0x1
    5630:	add    rsi,0x1
    5634:	movzx  eax,BYTE PTR [rsi]
    5637:	test   al,al
    5639:	jne    5628 <strstart+0x8>
    563b:	mov    eax,0x1
    5640:	test   rdx,rdx
    5643:	je     5652 <strstart+0x32>
    5645:	mov    QWORD PTR [rdx],rdi
    5648:	ret
    5649:	nop    DWORD PTR [rax+0x0]
    5650:	xor    eax,eax
    5652:	ret
    5653:	data16 nop WORD PTR cs:[rax+rax*1+0x0]
    565e:	xchg   ax,ax

0000000000005660 <stristart>:
    5660:	push   r13
    5662:	mov    r13,rdx
    5665:	push   r12
    5667:	mov    r12,rdi
    566a:	push   rbp
    566b:	push   rbx
    566c:	sub    rsp,0x8
    5670:	movzx  ebx,BYTE PTR [rsi]
    5673:	test   bl,bl
    5675:	je     56b8 <stristart+0x58>
    5677:	mov    rbp,rsi
    567a:	call   3030 <__ctype_toupper_loc@plt>
    567f:	mov    rax,QWORD PTR [rax]
    5682:	jmp    5698 <stristart+0x38>
    5684:	nop    DWORD PTR [rax+0x0]
    5688:	add    rbp,0x1
    568c:	movzx  ebx,BYTE PTR [rbp+0x0]
    5690:	add    r12,0x1
    5694:	test   bl,bl
    5696:	je     56b8 <stristart+0x58>
    5698:	movzx  ecx,BYTE PTR [r12]
    569d:	mov    edx,DWORD PTR [rax+rbx*4]
    56a0:	cmp    DWORD PTR [rax+rcx*4],edx
    56a3:	je     5688 <stristart+0x28>
    56a5:	xor    eax,eax
    56a7:	add    rsp,0x8
    56ab:	pop    rbx
    56ac:	pop    rbp
    56ad:	pop    r12
    56af:	pop    r13
    56b1:	ret
    56b2:	nop    WORD PTR [rax+rax*1+0x0]
    56b8:	mov    eax,0x1
    56bd:	test   r13,r13
    56c0:	je     56a7 <stristart+0x47>
    56c2:	mov    QWORD PTR [r13+0x0],r12
    56c6:	add    rsp,0x8
    56ca:	pop    rbx
    56cb:	pop    rbp
    56cc:	pop    r12
    56ce:	pop    r13
    56d0:	ret
    56d1:	data16 nop WORD PTR cs:[rax+rax*1+0x0]
    56dc:	nop    DWORD PTR [rax+0x0]

00000000000056e0 <mktimegm>:
    56e0:	mov    edx,DWORD PTR [rdi+0x10]
    56e3:	mov    esi,DWORD PTR [rdi+0x14]
    56e6:	mov    ecx,DWORD PTR [rdi+0xc]
    56e9:	lea    eax,[rdx+0x1]
    56ec:	cmp    eax,0x2
    56ef:	jle    5780 <mktimegm+0xa0>
    56f5:	add    esi,0x76c
    56fb:	imul   eax,eax,0x99
    5701:	mov    edx,0x66666667
    5706:	lea    r8d,[rax-0x1c9]
    570d:	mov    eax,r8d
    5710:	sar    r8d,0x1f
    5714:	imul   edx
    5716:	mov    eax,esi
    5718:	sar    edx,1
    571a:	sub    edx,r8d
    571d:	add    edx,ecx
    571f:	imul   ecx,esi,0x16d
    5725:	add    edx,ecx
    5727:	test   esi,esi
    5729:	lea    ecx,[rsi+0x3]
    572c:	cmovns ecx,esi
    572f:	sar    esi,0x1f
    5732:	mov    r9d,esi
    5735:	sar    ecx,0x2
    5738:	add    ecx,edx
    573a:	mov    edx,0x51eb851f
    573f:	imul   edx
    5741:	mov    eax,edx
    5743:	sar    edx,0x7
    5746:	sar    eax,0x5
    5749:	sub    edx,esi
    574b:	sub    r9d,eax
    574e:	add    ecx,r9d
    5751:	lea    eax,[rcx+rdx*1-0xafa6d]
    5758:	imul   eax,eax,0x15180
    575e:	imul   edx,DWORD PTR [rdi+0x8],0xe10
    5765:	movsxd rcx,eax
    5768:	imul   eax,DWORD PTR [rdi+0x4],0x3c
    576c:	add    edx,eax
    576e:	mov    eax,DWORD PTR [rdi]
    5770:	add    eax,edx
    5772:	cdqe
    5774:	add    rax,rcx
    5777:	ret
    5778:	nop    DWORD PTR [rax+rax*1+0x0]
    5780:	lea    eax,[rdx+0xd]
    5783:	add    esi,0x76b
    5789:	jmp    56fb <mktimegm+0x1b>
    578e:	xchg   ax,ax

0000000000005790 <qemu_fls>:
    5790:	xor    eax,eax
    5792:	test   edi,edi
    5794:	je     57a3 <qemu_fls+0x13>
    5796:	bsr    edi,edi
    5799:	mov    eax,0x20
    579e:	xor    edi,0x1f
    57a1:	sub    eax,edi
    57a3:	ret
    57a4:	data16 nop WORD PTR cs:[rax+rax*1+0x0]
    57af:	nop

00000000000057b0 <qemu_iovec_init>:
    57b0:	push   rbp
    57b1:	push   rbx
    57b2:	mov    rbx,rdi
    57b5:	movsxd rdi,esi
    57b8:	mov    rbp,rdi
    57bb:	shl    rdi,0x4
    57bf:	sub    rsp,0x8
    57c3:	call   5970 <qemu_malloc>
    57c8:	mov    DWORD PTR [rbx+0xc],ebp
    57cb:	mov    QWORD PTR [rbx],rax
    57ce:	mov    DWORD PTR [rbx+0x8],0x0
    57d5:	mov    QWORD PTR [rbx+0x10],0x0
    57dd:	add    rsp,0x8
    57e1:	pop    rbx
    57e2:	pop    rbp
    57e3:	ret
    57e4:	data16 nop WORD PTR cs:[rax+rax*1+0x0]
    57ef:	nop

00000000000057f0 <qemu_iovec_add>:
    57f0:	push   rbp
    57f1:	mov    rbp,rsi
    57f4:	push   rbx
    57f5:	mov    rbx,rdi
    57f8:	sub    rsp,0x18
    57fc:	movsxd rcx,DWORD PTR [rdi+0x8]
    5800:	mov    rax,QWORD PTR [rdi]
    5803:	cmp    ecx,DWORD PTR [rdi+0xc]
    5806:	je     5830 <qemu_iovec_add+0x40>
    5808:	shl    rcx,0x4
    580c:	mov    QWORD PTR [rax+rcx*1],rbp
    5810:	movsxd rax,DWORD PTR [rbx+0x8]
    5814:	shl    rax,0x4
    5818:	add    rax,QWORD PTR [rbx]
    581b:	mov    QWORD PTR [rax+0x8],rdx
    581f:	add    QWORD PTR [rbx+0x10],rdx
    5823:	add    DWORD PTR [rbx+0x8],0x1
    5827:	add    rsp,0x18
    582b:	pop    rbx
    582c:	pop    rbp
    582d:	ret
    582e:	xchg   ax,ax
    5830:	lea    esi,[rcx+rcx*1+0x1]
    5834:	mov    QWORD PTR [rsp+0x8],rdx
    5839:	mov    DWORD PTR [rdi+0xc],esi
    583c:	movsxd rsi,esi
    583f:	mov    rdi,rax
    5842:	shl    rsi,0x4
    5846:	call   5990 <qemu_realloc>
    584b:	movsxd rcx,DWORD PTR [rbx+0x8]
    584f:	mov    rdx,QWORD PTR [rsp+0x8]
    5854:	mov    QWORD PTR [rbx],rax
    5857:	jmp    5808 <qemu_iovec_add+0x18>
    5859:	nop    DWORD PTR [rax+0x0]

0000000000005860 <qemu_iovec_destroy>:
    5860:	mov    rdi,QWORD PTR [rdi]
    5863:	jmp    5960 <qemu_free>
    5868:	nop    DWORD PTR [rax+rax*1+0x0]

0000000000005870 <qemu_iovec_reset>:
    5870:	mov    DWORD PTR [rdi+0x8],0x0
    5877:	mov    QWORD PTR [rdi+0x10],0x0
    587f:	ret

0000000000005880 <qemu_iovec_to_buffer>:
    5880:	mov    eax,DWORD PTR [rdi+0x8]
    5883:	test   eax,eax
    5885:	jle    58d8 <qemu_iovec_to_buffer+0x58>
    5887:	push   r12
    5889:	mov    rcx,rsi
    588c:	mov    r12,rdi
    588f:	push   rbp
    5890:	push   rbx
    5891:	mov    rax,QWORD PTR [rdi]
    5894:	xor    ebx,ebx
    5896:	nop    WORD PTR cs:[rax+rax*1+0x0]
    58a0:	mov    rbp,rbx
    58a3:	mov    rdi,rcx
    58a6:	add    rbx,0x1
    58aa:	shl    rbp,0x4
    58ae:	add    rax,rbp
    58b1:	mov    rsi,QWORD PTR [rax]
    58b4:	mov    rdx,QWORD PTR [rax+0x8]
    58b8:	call   33b0 <memcpy@plt>
    58bd:	mov    rcx,rax
    58c0:	mov    rax,QWORD PTR [r12]
    58c4:	add    rcx,QWORD PTR [rax+rbp*1+0x8]
    58c9:	cmp    DWORD PTR [r12+0x8],ebx
    58ce:	jg     58a0 <qemu_iovec_to_buffer+0x20>
    58d0:	pop    rbx
    58d1:	pop    rbp
    58d2:	pop    r12
    58d4:	ret
    58d5:	nop    DWORD PTR [rax]
    58d8:	ret
    58d9:	nop    DWORD PTR [rax+0x0]

00000000000058e0 <qemu_iovec_from_buffer>:
    58e0:	mov    eax,DWORD PTR [rdi+0x8]
    58e3:	test   eax,eax
    58e5:	jle    594a <qemu_iovec_from_buffer+0x6a>
    58e7:	push   r14
    58e9:	push   r13
    58eb:	push   r12
    58ed:	push   rbp
    58ee:	push   rbx
    58ef:	mov    rbx,rdx
    58f2:	test   rdx,rdx
    58f5:	je     5941 <qemu_iovec_from_buffer+0x61>
    58f7:	mov    r14,rdi
    58fa:	mov    r13,rsi
    58fd:	xor    r12d,r12d
    5900:	mov    rax,r12
    5903:	mov    rbp,rbx
    5906:	mov    rsi,r13
    5909:	shl    rax,0x4
    590d:	add    rax,QWORD PTR [r14]
    5910:	cmp    QWORD PTR [rax+0x8],rbx
    5914:	cmovbe rbp,QWORD PTR [rax+0x8]
    5919:	mov    rdi,QWORD PTR [rax]
    591c:	mov    rdx,rbp
    591f:	add    r13,rbp
    5922:	call   33b0 <memcpy@plt>
    5927:	lea    eax,[r12+0x1]
    592c:	cmp    DWORD PTR [r14+0x8],eax
    5930:	setg   dl
    5933:	sub    rbx,rbp
    5936:	setne  al
    5939:	add    r12,0x1
    593d:	test   dl,al
    593f:	jne    5900 <qemu_iovec_from_buffer+0x20>
    5941:	pop    rbx
    5942:	pop    rbp
    5943:	pop    r12
    5945:	pop    r13
    5947:	pop    r14
    5949:	ret
    594a:	ret
    594b:	nop    DWORD PTR [rax+rax*1+0x0]

0000000000005950 <get_mmap_addr>:
    5950:	xor    eax,eax
    5952:	ret
    5953:	data16 nop WORD PTR cs:[rax+rax*1+0x0]
    595e:	xchg   ax,ax

0000000000005960 <qemu_free>:
    5960:	jmp    3070 <free@plt>
    5965:	data16 nop WORD PTR cs:[rax+rax*1+0x0]

0000000000005970 <qemu_malloc>:
    5970:	sub    rsp,0x8
    5974:	call   3450 <malloc@plt>
    5979:	test   rax,rax
    597c:	je     3710 <qemu_malloc.cold.0>
    5982:	add    rsp,0x8
    5986:	ret
    5987:	nop    WORD PTR [rax+rax*1+0x0]

0000000000005990 <qemu_realloc>:
    5990:	test   rsi,rsi
    5993:	je     59b0 <qemu_realloc+0x20>
    5995:	sub    rsp,0x8
    5999:	call   34a0 <realloc@plt>
    599e:	test   rax,rax
    59a1:	je     3715 <qemu_realloc.cold.1>
    59a7:	add    rsp,0x8
    59ab:	ret
    59ac:	nop    DWORD PTR [rax+0x0]
    59b0:	xor    esi,esi
    59b2:	jmp    34a0 <realloc@plt>
    59b7:	nop    WORD PTR [rax+rax*1+0x0]

00000000000059c0 <qemu_mallocz>:
    59c0:	sub    rsp,0x8
    59c4:	mov    esi,0x1
    59c9:	call   3330 <calloc@plt>
    59ce:	test   rax,rax
    59d1:	je     371a <qemu_mallocz.cold.2>
    59d7:	add    rsp,0x8
    59db:	ret
    59dc:	nop    DWORD PTR [rax+0x0]

00000000000059e0 <qemu_strdup>:
    59e0:	push   rbp
    59e1:	mov    rbp,rdi
    59e4:	push   rbx
    59e5:	sub    rsp,0x8
    59e9:	call   31b0 <strlen@plt>
    59ee:	lea    rbx,[rax+0x1]
    59f2:	mov    rdi,rbx
    59f5:	call   3450 <malloc@plt>
    59fa:	test   rax,rax
    59fd:	je     371f <qemu_strdup.cold.3>
    5a03:	mov    rdx,rbx
    5a06:	mov    rsi,rbp
    5a09:	mov    rdi,rax
    5a0c:	call   33b0 <memcpy@plt>
    5a11:	add    rsp,0x8
    5a15:	pop    rbx
    5a16:	pop    rbp
    5a17:	ret
    5a18:	nop    DWORD PTR [rax+rax*1+0x0]

0000000000005a20 <qemu_strndup>:
    5a20:	push   rbp
    5a21:	mov    rdx,rsi
    5a24:	mov    rbp,rdi
    5a27:	push   rbx
    5a28:	mov    rbx,rsi
    5a2b:	xor    esi,esi
    5a2d:	sub    rsp,0x8
    5a31:	call   32d0 <memchr@plt>
    5a36:	mov    rdx,rax
    5a39:	sub    rdx,rbp
    5a3c:	test   rax,rax
    5a3f:	cmovne rbx,rdx
    5a43:	lea    rdi,[rbx+0x1]
    5a47:	call   3450 <malloc@plt>
    5a4c:	test   rax,rax
    5a4f:	je     3724 <qemu_strndup.cold.4>
    5a55:	mov    BYTE PTR [rax+rbx*1],0x0
    5a59:	add    rsp,0x8
    5a5d:	mov    rdx,rbx
    5a60:	mov    rsi,rbp
    5a63:	pop    rbx
    5a64:	mov    rdi,rax
    5a67:	pop    rbp
    5a68:	jmp    33b0 <memcpy@plt>
    5a6d:	nop    DWORD PTR [rax]

0000000000005a70 <cow_is_allocated>:
    5a70:	mov    rax,QWORD PTR [rdi+0x40]
    5a74:	mov    r9,rcx
    5a77:	mov    r8,QWORD PTR [rax+0x8]
    5a7b:	test   r8,r8
    5a7e:	je     5b58 <cow_is_allocated+0xe8>
    5a84:	test   edx,edx
    5a86:	je     5b58 <cow_is_allocated+0xe8>
    5a8c:	test   rsi,rsi
    5a8f:	lea    rax,[rsi+0x7]
    5a93:	mov    rdi,rsi
    5a96:	cmovns rax,rsi
    5a9a:	sar    rdi,0x3f
    5a9e:	shr    rdi,0x3d
    5aa2:	sar    rax,0x3
    5aa6:	lea    rcx,[rsi+rdi*1]
    5aaa:	movzx  eax,BYTE PTR [r8+rax*1]
    5aaf:	and    ecx,0x7
    5ab2:	mov    DWORD PTR [r9],0x1
    5ab9:	sub    rcx,rdi
    5abc:	sar    eax,cl
    5abe:	and    eax,0x1
    5ac1:	cmp    edx,0x1
    5ac4:	jle    5b54 <cow_is_allocated+0xe4>
    5aca:	mov    rcx,rsi
    5acd:	lea    rdi,[rsi+0x8]
    5ad1:	add    rcx,0x1
    5ad5:	mov    r10,rcx
    5ad8:	cmovns rdi,rcx
    5adc:	sar    r10,0x3f
    5ae0:	shr    r10,0x3d
    5ae4:	sar    rdi,0x3
    5ae8:	add    rcx,r10
    5aeb:	movzx  edi,BYTE PTR [r8+rdi*1]
    5af0:	and    ecx,0x7
    5af3:	sub    rcx,r10
    5af6:	sar    edi,cl
    5af8:	and    edi,0x1
    5afb:	cmp    eax,edi
    5afd:	jne    5b54 <cow_is_allocated+0xe4>
    5aff:	lea    rdi,[rsi+0x2]
    5b03:	lea    r10d,[rdx-0x2]
    5b07:	add    r10,rdi
    5b0a:	jmp    5b48 <cow_is_allocated+0xd8>
    5b0c:	nop    DWORD PTR [rax+0x0]
    5b10:	mov    rcx,rdi
    5b13:	add    rdi,0x1
    5b17:	lea    rdx,[rcx+0x7]
    5b1b:	test   rcx,rcx
    5b1e:	mov    r11,rcx
    5b21:	cmovns rdx,rcx
    5b25:	sar    r11,0x3f
    5b29:	shr    r11,0x3d
    5b2d:	sar    rdx,0x3
    5b31:	add    rcx,r11
    5b34:	movzx  edx,BYTE PTR [r8+rdx*1]
    5b39:	and    ecx,0x7
    5b3c:	sub    rcx,r11
    5b3f:	sar    edx,cl
    5b41:	and    edx,0x1
    5b44:	cmp    edx,eax
    5b46:	jne    5b54 <cow_is_allocated+0xe4>
    5b48:	mov    edx,edi
    5b4a:	sub    edx,esi
    5b4c:	mov    DWORD PTR [r9],edx
    5b4f:	cmp    rdi,r10
    5b52:	jne    5b10 <cow_is_allocated+0xa0>
    5b54:	ret
    5b55:	nop    DWORD PTR [rax]
    5b58:	mov    DWORD PTR [r9],edx
    5b5b:	xor    eax,eax
    5b5d:	ret
    5b5e:	xchg   ax,ax

0000000000005b60 <cow_close>:
    5b60:	push   rbx
    5b61:	mov    rbx,QWORD PTR [rdi+0x40]
    5b65:	mov    rdi,QWORD PTR [rbx+0x10]
    5b69:	movsxd rsi,DWORD PTR [rbx+0x18]
    5b6d:	call   34b0 <munmap@plt>
    5b72:	mov    edi,DWORD PTR [rbx]
    5b74:	pop    rbx
    5b75:	jmp    3270 <close@plt>
    5b7a:	nop    WORD PTR [rax+rax*1+0x0]

0000000000005b80 <cow_write>:
    5b80:	push   r14
    5b82:	mov    r14,rsi
    5b85:	shl    rsi,0x9
    5b89:	push   r13
    5b8b:	mov    r13,rdx
    5b8e:	xor    edx,edx
    5b90:	push   r12
    5b92:	push   rbp
    5b93:	mov    ebp,ecx
    5b95:	push   rbx
    5b96:	mov    rbx,QWORD PTR [rdi+0x40]
    5b9a:	mov    r12d,ebp
    5b9d:	shl    r12d,0x9
    5ba1:	mov    edi,DWORD PTR [rbx]
    5ba3:	add    rsi,QWORD PTR [rbx+0x20]
    5ba7:	call   3650 <lseek64@plt>
    5bac:	mov    edi,DWORD PTR [rbx]
    5bae:	movsxd rdx,r12d
    5bb1:	mov    rsi,r13
    5bb4:	call   3160 <write@plt>
    5bb9:	cmp    r12d,eax
    5bbc:	jne    5c1a <cow_write+0x9a>
    5bbe:	test   ebp,ebp
    5bc0:	jle    5c0f <cow_write+0x8f>
    5bc2:	lea    eax,[rbp-0x1]
    5bc5:	mov    rsi,r14
    5bc8:	mov    edi,0x1
    5bcd:	lea    r8,[r14+rax*1+0x1]
    5bd2:	nop    WORD PTR [rax+rax*1+0x0]
    5bd8:	test   rsi,rsi
    5bdb:	lea    rax,[rsi+0x7]
    5bdf:	mov    rdx,rsi
    5be2:	cmovns rax,rsi
    5be6:	sar    rdx,0x3f
    5bea:	shr    rdx,0x3d
    5bee:	lea    rcx,[rsi+rdx*1]
    5bf2:	sar    rax,0x3
    5bf6:	add    rsi,0x1
    5bfa:	add    rax,QWORD PTR [rbx+0x8]
    5bfe:	and    ecx,0x7
    5c01:	sub    rcx,rdx
    5c04:	mov    edx,edi
    5c06:	shl    edx,cl
    5c08:	or     BYTE PTR [rax],dl
    5c0a:	cmp    r8,rsi
    5c0d:	jne    5bd8 <cow_write+0x58>
    5c0f:	xor    eax,eax
    5c11:	pop    rbx
    5c12:	pop    rbp
    5c13:	pop    r12
    5c15:	pop    r13
    5c17:	pop    r14
    5c19:	ret
    5c1a:	mov    eax,0xffffffff
    5c1f:	jmp    5c11 <cow_write+0x91>
    5c21:	data16 nop WORD PTR cs:[rax+rax*1+0x0]
    5c2c:	nop    DWORD PTR [rax+0x0]

0000000000005c30 <cow_read>:
    5c30:	push   r15
    5c32:	push   r14
    5c34:	push   r13
    5c36:	push   r12
    5c38:	push   rbp
    5c39:	push   rbx
    5c3a:	sub    rsp,0x18
    5c3e:	mov    rbx,QWORD PTR [rdi+0x40]
    5c42:	test   ecx,ecx
    5c44:	jle    5d78 <cow_read+0x148>
    5c4a:	mov    rbp,rdi
    5c4d:	mov    r14,rsi
    5c50:	mov    r15,rdx
    5c53:	mov    r13d,ecx
    5c56:	nop    WORD PTR cs:[rax+rax*1+0x0]
    5c60:	mov    rdi,QWORD PTR [rbx+0x8]
    5c64:	test   rdi,rdi
    5c67:	je     5d90 <cow_read+0x160>
    5c6d:	test   r14,r14
    5c70:	lea    rax,[r14+0x7]
    5c74:	cmovns rax,r14
    5c78:	sar    rax,0x3
    5c7c:	movzx  esi,BYTE PTR [rdi+rax*1]
    5c80:	mov    rax,r14
    5c83:	sar    rax,0x3f
    5c87:	shr    rax,0x3d
    5c8b:	lea    rcx,[r14+rax*1]
    5c8f:	and    ecx,0x7
    5c92:	sub    rcx,rax
    5c95:	sar    esi,cl
    5c97:	and    esi,0x1
    5c9a:	cmp    r13d,0x1
    5c9e:	je     5e20 <cow_read+0x1f0>
    5ca4:	mov    rax,r14
    5ca7:	lea    rdx,[r14+0x8]
    5cab:	add    rax,0x1
    5caf:	mov    r8,rax
    5cb2:	cmovns rdx,rax
    5cb6:	sar    r8,0x3f
    5cba:	shr    r8,0x3d
    5cbe:	sar    rdx,0x3
    5cc2:	lea    rcx,[rax+r8*1]
    5cc6:	movzx  edx,BYTE PTR [rdi+rdx*1]
    5cca:	and    ecx,0x7
    5ccd:	sub    rcx,r8
    5cd0:	sar    edx,cl
    5cd2:	and    edx,0x1
    5cd5:	cmp    edx,esi
    5cd7:	jne    5e20 <cow_read+0x1f0>
    5cdd:	lea    rdx,[r14+0x2]
    5ce1:	mov    r12d,0x1
    5ce7:	jmp    5d27 <cow_read+0xf7>
    5ce9:	nop    DWORD PTR [rax+0x0]
    5cf0:	mov    rcx,rdx
    5cf3:	add    rdx,0x1
    5cf7:	lea    rax,[rcx+0x7]
    5cfb:	test   rcx,rcx
    5cfe:	mov    r8,rcx
    5d01:	cmovns rax,rcx
    5d05:	sar    r8,0x3f
    5d09:	shr    r8,0x3d
    5d0d:	sar    rax,0x3
    5d11:	add    rcx,r8
    5d14:	movzx  eax,BYTE PTR [rdi+rax*1]
    5d18:	and    ecx,0x7
    5d1b:	sub    rcx,r8
    5d1e:	sar    eax,cl
    5d20:	and    eax,0x1
    5d23:	cmp    esi,eax
    5d25:	jne    5d30 <cow_read+0x100>
    5d27:	add    r12d,0x1
    5d2b:	cmp    r12d,r13d
    5d2e:	jne    5cf0 <cow_read+0xc0>
    5d30:	test   esi,esi
    5d32:	jne    5dc8 <cow_read+0x198>
    5d38:	mov    rdi,QWORD PTR [rbp+0x850]
    5d3f:	mov    ecx,r12d
    5d42:	test   rdi,rdi
    5d45:	je     5da2 <cow_read+0x172>
    5d47:	mov    rdx,r15
    5d4a:	mov    rsi,r14
    5d4d:	call   18210 <bdrv_read>
    5d52:	test   eax,eax
    5d54:	js     5e04 <cow_read+0x1d4>
    5d5a:	mov    ecx,r12d
    5d5d:	shl    ecx,0x9
    5d60:	movsxd rcx,ecx
    5d63:	sub    r13d,r12d
    5d66:	movsxd r12,r12d
    5d69:	add    r15,rcx
    5d6c:	add    r14,r12
    5d6f:	test   r13d,r13d
    5d72:	jg     5c60 <cow_read+0x30>
    5d78:	add    rsp,0x18
    5d7c:	xor    eax,eax
    5d7e:	pop    rbx
    5d7f:	pop    rbp
    5d80:	pop    r12
    5d82:	pop    r13
    5d84:	pop    r14
    5d86:	pop    r15
    5d88:	ret
    5d89:	nop    DWORD PTR [rax+0x0]
    5d90:	mov    rdi,QWORD PTR [rbp+0x850]
    5d97:	mov    r12d,r13d
    5d9a:	mov    ecx,r12d
    5d9d:	test   rdi,rdi
    5da0:	jne    5d47 <cow_read+0x117>
    5da2:	shl    ecx,0x9
    5da5:	xor    esi,esi
    5da7:	mov    rdi,r15
    5daa:	movsxd rcx,ecx
    5dad:	mov    rdx,rcx
    5db0:	mov    QWORD PTR [rsp+0x8],rcx
    5db5:	call   3250 <memset@plt>
    5dba:	mov    rcx,QWORD PTR [rsp+0x8]
    5dbf:	jmp    5d63 <cow_read+0x133>
    5dc1:	nop    DWORD PTR [rax+0x0]
    5dc8:	mov    edi,DWORD PTR [rbx]
    5dca:	mov    rsi,r14
    5dcd:	xor    edx,edx
    5dcf:	shl    rsi,0x9
    5dd3:	add    rsi,QWORD PTR [rbx+0x20]
    5dd7:	call   3650 <lseek64@plt>
    5ddc:	mov    ecx,r12d
    5ddf:	mov    edi,DWORD PTR [rbx]
    5de1:	mov    rsi,r15
    5de4:	shl    ecx,0x9
    5de7:	movsxd rcx,ecx
    5dea:	mov    rdx,rcx
    5ded:	mov    QWORD PTR [rsp+0x8],rcx
    5df2:	call   52c0 <qemu_read_ok>
    5df7:	mov    rcx,QWORD PTR [rsp+0x8]
    5dfc:	test   eax,eax
    5dfe:	jns    5d63 <cow_read+0x133>
    5e04:	add    rsp,0x18
    5e08:	mov    eax,0xffffffff
    5e0d:	pop    rbx
    5e0e:	pop    rbp
    5e0f:	pop    r12
    5e11:	pop    r13
    5e13:	pop    r14
    5e15:	pop    r15
    5e17:	ret
    5e18:	nop    DWORD PTR [rax+rax*1+0x0]
    5e20:	mov    r12d,0x1
    5e26:	jmp    5d30 <cow_read+0x100>
    5e2b:	nop    DWORD PTR [rax+rax*1+0x0]

0000000000005e30 <cow_open>:
    5e30:	push   r13
    5e32:	mov    r13,rsi
    5e35:	mov    esi,0x2
    5e3a:	push   r12
    5e3c:	push   rbp
    5e3d:	push   rbx
    5e3e:	mov    rbx,rdi
    5e41:	sub    rsp,0x438
    5e48:	mov    rbp,QWORD PTR [rdi+0x40]
    5e4c:	mov    rdi,r13
    5e4f:	mov    rax,QWORD PTR fs:0x28
    5e58:	mov    QWORD PTR [rsp+0x428],rax
    5e60:	xor    eax,eax
    5e62:	call   3500 <open64@plt>
    5e67:	mov    r12d,eax
    5e6a:	test   eax,eax
    5e6c:	js     5f70 <cow_open+0x140>
    5e72:	mov    DWORD PTR [rbp+0x0],r12d
    5e76:	mov    r13,rsp
    5e79:	mov    edx,0x420
    5e7e:	mov    edi,r12d
    5e81:	mov    rsi,r13
    5e84:	call   52c0 <qemu_read_ok>
    5e89:	test   eax,eax
    5e8b:	js     5f90 <cow_open+0x160>
    5e91:	cmp    DWORD PTR [rsp],0x4d4f4f4f
    5e98:	jne    5f90 <cow_open+0x160>
    5e9e:	cmp    DWORD PTR [rsp+0x4],0x2000000
    5ea6:	jne    5f90 <cow_open+0x160>
    5eac:	lea    rdx,[r13+0x8]
    5eb0:	mov    rax,QWORD PTR [rsp+0x410]
    5eb8:	mov    esi,0x400
    5ebd:	lea    rdi,[rbx+0x448]
    5ec4:	bswap  rax
    5ec7:	mov    rcx,rax
    5eca:	lea    rax,[rax+0x1ff]
    5ed1:	test   rcx,rcx
    5ed4:	cmovns rax,rcx
    5ed8:	sar    rax,0x9
    5edc:	mov    QWORD PTR [rbx],rax
    5edf:	call   5560 <pstrcpy>
    5ee4:	mov    rbx,QWORD PTR [rbx]
    5ee7:	mov    r13d,DWORD PTR [rbp+0x0]
    5eeb:	add    rbx,0x7
    5eef:	sar    rbx,0x3
    5ef3:	add    ebx,0x420
    5ef9:	mov    DWORD PTR [rbp+0x18],ebx
    5efc:	movsxd rbx,ebx
    5eff:	mov    rdi,rbx
    5f02:	call   5950 <get_mmap_addr>
    5f07:	xor    r9d,r9d
    5f0a:	mov    r8d,r13d
    5f0d:	mov    ecx,0x1
    5f12:	mov    edx,0x3
    5f17:	mov    rsi,rbx
    5f1a:	mov    rdi,rax
    5f1d:	call   3420 <mmap64@plt>
    5f22:	mov    QWORD PTR [rbp+0x10],rax
    5f26:	cmp    rax,0xffffffffffffffff
    5f2a:	je     5f90 <cow_open+0x160>
    5f2c:	add    rax,0x420
    5f32:	mov    QWORD PTR [rbp+0x8],rax
    5f36:	mov    eax,DWORD PTR [rbp+0x18]
    5f39:	add    eax,0x1ff
    5f3e:	and    eax,0xfffffe00
    5f43:	cdqe
    5f45:	mov    QWORD PTR [rbp+0x20],rax
    5f49:	xor    eax,eax
    5f4b:	mov    rcx,QWORD PTR [rsp+0x428]
    5f53:	xor    rcx,QWORD PTR fs:0x28
    5f5c:	jne    5f9f <cow_open+0x16f>
    5f5e:	add    rsp,0x438
    5f65:	pop    rbx
    5f66:	pop    rbp
    5f67:	pop    r12
    5f69:	pop    r13
    5f6b:	ret
    5f6c:	nop    DWORD PTR [rax+0x0]
    5f70:	xor    esi,esi
    5f72:	mov    rdi,r13
    5f75:	xor    eax,eax
    5f77:	call   3500 <open64@plt>
    5f7c:	mov    r12d,eax
    5f7f:	test   eax,eax
    5f81:	jns    5e72 <cow_open+0x42>
    5f87:	mov    eax,0xffffffff
    5f8c:	jmp    5f4b <cow_open+0x11b>
    5f8e:	xchg   ax,ax
    5f90:	mov    edi,r12d
    5f93:	call   3270 <close@plt>
    5f98:	mov    eax,0xffffffff
    5f9d:	jmp    5f4b <cow_open+0x11b>
    5f9f:	call   31c0 <__stack_chk_fail@plt>
    5fa4:	data16 nop WORD PTR cs:[rax+rax*1+0x0]
    5faf:	nop

0000000000005fb0 <cow_flush>:
    5fb0:	sub    rsp,0x8
    5fb4:	mov    rax,QWORD PTR [rdi+0x40]
    5fb8:	mov    edi,DWORD PTR [rax]
    5fba:	call   3560 <fsync@plt>
    5fbf:	test   eax,eax
    5fc1:	je     5fca <cow_flush+0x1a>
    5fc3:	call   30d0 <__errno_location@plt>
    5fc8:	mov    eax,DWORD PTR [rax]
    5fca:	add    rsp,0x8
    5fce:	ret
    5fcf:	nop

0000000000005fd0 <cow_probe>:
    5fd0:	xor    eax,eax
    5fd2:	cmp    esi,0x41f
    5fd8:	ja     5fe0 <cow_probe+0x10>
    5fda:	ret
    5fdb:	nop    DWORD PTR [rax+rax*1+0x0]
    5fe0:	cmp    DWORD PTR [rdi],0x4d4f4f4f
    5fe6:	jne    5fda <cow_probe+0xa>
    5fe8:	cmp    DWORD PTR [rdi+0x4],0x2000000
    5fef:	mov    edx,0x64
    5ff4:	cmove  eax,edx
    5ff7:	ret
    5ff8:	nop    DWORD PTR [rax+rax*1+0x0]

0000000000006180 <qcow_make_empty>:
    6180:	push   r12
    6182:	xor    esi,esi
    6184:	push   rbp
    6185:	push   rbx
    6186:	mov    rbx,QWORD PTR [rdi+0x40]
    618a:	mov    eax,DWORD PTR [rbx+0x1c]
    618d:	mov    rdi,QWORD PTR [rbx+0x30]
    6191:	lea    r12d,[rax*8+0x0]
    6199:	mov    rdx,r12
    619c:	call   3250 <memset@plt>
    61a1:	mov    rdx,QWORD PTR [rbx+0x30]
    61a5:	mov    rsi,QWORD PTR [rbx+0x28]
    61a9:	mov    ecx,r12d
    61ac:	mov    rdi,QWORD PTR [rbx]
    61af:	call   19110 <bdrv_pwrite>
    61b4:	test   eax,eax
    61b6:	js     6240 <qcow_make_empty+0xc0>
    61bc:	mov    rsi,QWORD PTR [rbx+0x28]
    61c0:	mov    rdi,QWORD PTR [rbx]
    61c3:	add    rsi,r12
    61c6:	call   19190 <bdrv_truncate>
    61cb:	test   eax,eax
    61cd:	js     6234 <qcow_make_empty+0xb4>
    61cf:	mov    edx,DWORD PTR [rbx+0x18]
    61d2:	mov    rdi,QWORD PTR [rbx+0x38]
    61d6:	xor    esi,esi
    61d8:	shl    edx,0x4
    61db:	movsxd rdx,edx
    61de:	shl    rdx,0x3
    61e2:	call   3250 <memset@plt>
    61e7:	lea    rdi,[rbx+0x48]
    61eb:	mov    eax,ebx
    61ed:	pxor   xmm0,xmm0
    61f1:	and    rdi,0xfffffffffffffff8
    61f5:	mov    QWORD PTR [rbx+0x40],0x0
    61fd:	mov    QWORD PTR [rbx+0xb8],0x0
    6208:	sub    eax,edi
    620a:	lea    ecx,[rax+0xc0]
    6210:	xor    eax,eax
    6212:	shr    ecx,0x3
    6215:	rep stos QWORD PTR es:[rdi],rax
    6218:	movups XMMWORD PTR [rbx+0xc0],xmm0
    621f:	movups XMMWORD PTR [rbx+0xd0],xmm0
    6226:	movups XMMWORD PTR [rbx+0xe0],xmm0
    622d:	movups XMMWORD PTR [rbx+0xf0],xmm0
    6234:	pop    rbx
    6235:	pop    rbp
    6236:	pop    r12
    6238:	ret
    6239:	nop    DWORD PTR [rax+0x0]
    6240:	mov    eax,0xffffffff
    6245:	jmp    6234 <qcow_make_empty+0xb4>
    6247:	nop    WORD PTR [rax+rax*1+0x0]

0000000000006250 <qcow_aio_flush>:
    6250:	mov    rax,QWORD PTR [rdi+0x40]
    6254:	mov    rdi,QWORD PTR [rax]
    6257:	jmp    1a530 <bdrv_aio_flush>
    625c:	nop    DWORD PTR [rax+0x0]

0000000000006260 <qcow_aio_cancel>:
    6260:	push   rbx
    6261:	mov    rbx,rdi
    6264:	mov    rdi,QWORD PTR [rdi+0x50]
    6268:	test   rdi,rdi
    626b:	je     6272 <qcow_aio_cancel+0x12>
    626d:	call   1a520 <bdrv_aio_cancel>
    6272:	mov    rdi,rbx
    6275:	pop    rbx
    6276:	jmp    1a860 <qemu_aio_release>
    627b:	nop    DWORD PTR [rax+rax*1+0x0]

0000000000006280 <qcow_flush>:
    6280:	mov    rax,QWORD PTR [rdi+0x40]
    6284:	mov    rdi,QWORD PTR [rax]
    6287:	jmp    19700 <bdrv_flush>
    628c:	nop    DWORD PTR [rax+0x0]

0000000000006290 <qcow_close>:
    6290:	push   rbx
    6291:	mov    rbx,QWORD PTR [rdi+0x40]
    6295:	mov    rdi,QWORD PTR [rbx+0x30]
    6299:	call   5960 <qemu_free>
    629e:	mov    rdi,QWORD PTR [rbx+0x38]
    62a2:	call   5960 <qemu_free>
    62a7:	mov    rdi,QWORD PTR [rbx+0x100]
    62ae:	call   5960 <qemu_free>
    62b3:	mov    rdi,QWORD PTR [rbx+0x108]
    62ba:	call   5960 <qemu_free>
    62bf:	mov    rdi,QWORD PTR [rbx]
    62c2:	pop    rbx
    62c3:	jmp    18130 <bdrv_delete>
    62c8:	nop    DWORD PTR [rax+rax*1+0x0]

00000000000062d0 <qcow_open>:
    62d0:	push   r13
    62d2:	push   r12
    62d4:	push   rbp
    62d5:	mov    rbp,rdi
    62d8:	push   rbx
    62d9:	sub    rsp,0x58
    62dd:	mov    rbx,QWORD PTR [rdi+0x40]
    62e1:	mov    rax,QWORD PTR fs:0x28
    62ea:	mov    QWORD PTR [rsp+0x48],rax
    62ef:	xor    eax,eax
    62f1:	mov    rdi,rbx
    62f4:	call   19080 <bdrv_file_open>
    62f9:	mov    r12d,eax
    62fc:	test   eax,eax
    62fe:	js     654d <qcow_open+0x27d>
    6304:	mov    rdi,QWORD PTR [rbx]
    6307:	xor    esi,esi
    6309:	lea    rdx,[rsp+0x10]
    630e:	mov    ecx,0x30
    6313:	call   18b00 <bdrv_pread>
    6318:	cmp    eax,0x30
    631b:	jne    6670 <qcow_open+0x3a0>
    6321:	mov    eax,DWORD PTR [rsp+0x10]
    6325:	mov    rdx,QWORD PTR [rsp+0x28]
    632a:	mov    rcx,QWORD PTR [rsp+0x38]
    632f:	bswap  eax
    6331:	mov    DWORD PTR [rsp+0x10],eax
    6335:	mov    eax,DWORD PTR [rsp+0x14]
    6339:	bswap  rdx
    633c:	bswap  rcx
    633f:	mov    QWORD PTR [rsp+0x28],rdx
    6344:	bswap  eax
    6346:	mov    DWORD PTR [rsp+0x14],eax
    634a:	mov    rax,QWORD PTR [rsp+0x18]
    634f:	mov    QWORD PTR [rsp+0x38],rcx
    6354:	movabs rcx,0x1514649fb
    635e:	bswap  rax
    6361:	mov    QWORD PTR [rsp+0x18],rax
    6366:	mov    eax,DWORD PTR [rsp+0x20]
    636a:	bswap  eax
    636c:	mov    DWORD PTR [rsp+0x20],eax
    6370:	mov    eax,DWORD PTR [rsp+0x24]
    6374:	bswap  eax
    6376:	mov    DWORD PTR [rsp+0x24],eax
    637a:	mov    eax,DWORD PTR [rsp+0x34]
    637e:	bswap  eax
    6380:	mov    DWORD PTR [rsp+0x34],eax
    6384:	cmp    QWORD PTR [rsp+0x10],rcx
    6389:	jne    6670 <qcow_open+0x3a0>
    638f:	cmp    rdx,0x1
    6393:	jbe    6670 <qcow_open+0x3a0>
    6399:	movzx  ecx,BYTE PTR [rsp+0x30]
    639e:	cmp    cl,0x8
    63a1:	jbe    6670 <qcow_open+0x3a0>
    63a7:	cmp    eax,0x1
    63aa:	ja     6670 <qcow_open+0x3a0>
    63b0:	mov    DWORD PTR [rbx+0x11c],eax
    63b6:	test   eax,eax
    63b8:	jne    6570 <qcow_open+0x2a0>
    63be:	mov    eax,0x1
    63c3:	movzx  edx,cl
    63c6:	mov    esi,eax
    63c8:	mov    DWORD PTR [rbx+0x8],edx
    63cb:	shl    esi,cl
    63cd:	lea    ecx,[rdx-0x9]
    63d0:	mov    edx,eax
    63d2:	shl    edx,cl
    63d4:	mov    DWORD PTR [rbx+0xc],esi
    63d7:	mov    DWORD PTR [rbx+0x10],edx
    63da:	movzx  ecx,BYTE PTR [rsp+0x31]
    63df:	shl    eax,cl
    63e1:	mov    DWORD PTR [rbx+0x14],ecx
    63e4:	mov    DWORD PTR [rbx+0x18],eax
    63e7:	mov    rdx,QWORD PTR [rsp+0x28]
    63ec:	mov    rax,rdx
    63ef:	shr    rax,0x9
    63f3:	mov    QWORD PTR [rbp+0x0],rax
    63f7:	mov    ecx,DWORD PTR [rbx+0x8]
    63fa:	movabs rax,0x8000000000000000
    6404:	shr    rax,cl
    6407:	add    ecx,DWORD PTR [rbx+0x14]
    640a:	sub    rax,0x1
    640e:	mov    QWORD PTR [rbx+0x20],rax
    6412:	mov    eax,0x1
    6417:	shl    rax,cl
    641a:	lea    rdi,[rdx+rax*1-0x1]
    641f:	shr    rdi,cl
    6422:	mov    DWORD PTR [rbx+0x1c],edi
    6425:	mov    rax,QWORD PTR [rsp+0x38]
    642a:	movsxd rdi,edi
    642d:	shl    rdi,0x3
    6431:	mov    QWORD PTR [rbx+0x28],rax
    6435:	call   5970 <qemu_malloc>
    643a:	mov    QWORD PTR [rbx+0x30],rax
    643e:	test   rax,rax
    6441:	je     6674 <qcow_open+0x3a4>
    6447:	mov    esi,DWORD PTR [rbx+0x1c]
    644a:	mov    rdi,QWORD PTR [rbx]
    644d:	mov    rdx,rax
    6450:	lea    ecx,[rsi*8+0x0]
    6457:	mov    rsi,QWORD PTR [rbx+0x28]
    645b:	call   18b00 <bdrv_pread>
    6460:	movsxd r12,DWORD PTR [rbx+0x1c]
    6464:	cdqe
    6466:	mov    rdx,r12
    6469:	shl    r12,0x3
    646d:	cmp    rax,r12
    6470:	jne    6670 <qcow_open+0x3a0>
    6476:	cmp    QWORD PTR [rsp+0x18],0x0
    647c:	jne    648a <qcow_open+0x1ba>
    647e:	test   WORD PTR [rbx+0x28],0xfff
    6484:	je     6580 <qcow_open+0x2b0>
    648a:	xor    eax,eax
    648c:	test   edx,edx
    648e:	jle    64aa <qcow_open+0x1da>
    6490:	mov    rdx,QWORD PTR [rbx+0x30]
    6494:	lea    rcx,[rdx+rax*8]
    6498:	add    rax,0x1
    649c:	mov    rdx,QWORD PTR [rcx]
    649f:	bswap  rdx
    64a2:	mov    QWORD PTR [rcx],rdx
    64a5:	cmp    DWORD PTR [rbx+0x1c],eax
    64a8:	jg     6490 <qcow_open+0x1c0>
    64aa:	mov    edi,DWORD PTR [rbx+0x18]
    64ad:	shl    edi,0x4
    64b0:	movsxd rdi,edi
    64b3:	shl    rdi,0x3
    64b7:	call   5970 <qemu_malloc>
    64bc:	mov    QWORD PTR [rbx+0x38],rax
    64c0:	test   rax,rax
    64c3:	je     6670 <qcow_open+0x3a0>
    64c9:	movsxd rdi,DWORD PTR [rbx+0xc]
    64cd:	call   5970 <qemu_malloc>
    64d2:	mov    QWORD PTR [rbx+0x100],rax
    64d9:	test   rax,rax
    64dc:	je     6670 <qcow_open+0x3a0>
    64e2:	movsxd rdi,DWORD PTR [rbx+0xc]
    64e6:	call   5970 <qemu_malloc>
    64eb:	mov    QWORD PTR [rbx+0x108],rax
    64f2:	test   rax,rax
    64f5:	je     6670 <qcow_open+0x3a0>
    64fb:	mov    rsi,QWORD PTR [rsp+0x18]
    6500:	xor    r12d,r12d
    6503:	mov    QWORD PTR [rbx+0x110],0xffffffffffffffff
    650e:	test   rsi,rsi
    6511:	je     654d <qcow_open+0x27d>
    6513:	mov    r13d,DWORD PTR [rsp+0x20]
    6518:	mov    eax,0x3ff
    651d:	mov    rdi,QWORD PTR [rbx]
    6520:	lea    rdx,[rbp+0x448]
    6527:	cmp    r13d,0x3ff
    652e:	cmovg  r13d,eax
    6532:	mov    ecx,r13d
    6535:	call   18b00 <bdrv_pread>
    653a:	cmp    eax,r13d
    653d:	jne    6670 <qcow_open+0x3a0>
    6543:	cdqe
    6545:	mov    BYTE PTR [rbp+rax*1+0x448],0x0
    654d:	mov    rsi,QWORD PTR [rsp+0x48]
    6552:	xor    rsi,QWORD PTR fs:0x28
    655b:	mov    eax,r12d
    655e:	jne    66b8 <qcow_open+0x3e8>
    6564:	add    rsp,0x58
    6568:	pop    rbx
    6569:	pop    rbp
    656a:	pop    r12
    656c:	pop    r13
    656e:	ret
    656f:	nop
    6570:	mov    DWORD PTR [rbp+0x14],0x1
    6577:	jmp    63be <qcow_open+0xee>
    657c:	nop    DWORD PTR [rax+0x0]
    6580:	mov    r13,rsp
    6583:	mov    rdi,QWORD PTR [rbx]
    6586:	mov    ecx,0x10
    658b:	mov    esi,0x30
    6590:	mov    rdx,r13
    6593:	call   18b00 <bdrv_pread>
    6598:	cmp    eax,0x10
    659b:	jne    66b0 <qcow_open+0x3e0>
    65a1:	mov    eax,DWORD PTR [rsp]
    65a4:	bswap  eax
    65a6:	mov    DWORD PTR [rsp],eax
    65a9:	cmp    eax,0x58454efb
    65ae:	jne    66b0 <qcow_open+0x3e0>
    65b4:	mov    eax,DWORD PTR [rsp+0xc]
    65b8:	bswap  eax
    65ba:	mov    DWORD PTR [rsp+0xc],eax
    65be:	test   al,0x2
    65c0:	jne    66b0 <qcow_open+0x3e0>
    65c6:	mov    rcx,QWORD PTR [rip+0x23d33]        # 2a300 <stderr@@GLIBC_2.2.5>
    65cd:	mov    edx,0x2e
    65d2:	mov    esi,0x1
    65d7:	lea    rdi,[rip+0x178e2]        # 1dec0 <__PRETTY_FUNCTION__.13430+0x10>
    65de:	call   3640 <fwrite@plt>
    65e3:	mov    edx,DWORD PTR [rbx+0x1c]
    65e6:	xor    eax,eax
    65e8:	test   edx,edx
    65ea:	jle    660a <qcow_open+0x33a>
    65ec:	nop    DWORD PTR [rax+0x0]
    65f0:	mov    rdx,QWORD PTR [rbx+0x30]
    65f4:	lea    rcx,[rdx+rax*8]
    65f8:	add    rax,0x1
    65fc:	mov    rdx,QWORD PTR [rcx]
    65ff:	bswap  rdx
    6602:	mov    QWORD PTR [rcx],rdx
    6605:	cmp    DWORD PTR [rbx+0x1c],eax
    6608:	jg     65f0 <qcow_open+0x320>
    660a:	mov    rdx,QWORD PTR [rbx+0x30]
    660e:	mov    rsi,QWORD PTR [rbx+0x28]
    6612:	mov    ecx,r12d
    6615:	mov    rdi,QWORD PTR [rbx]
    6618:	call   19110 <bdrv_pwrite>
    661d:	cdqe
    661f:	cmp    r12,rax
    6622:	jne    66bd <qcow_open+0x3ed>
    6628:	mov    eax,DWORD PTR [rsp+0xc]
    662c:	mov    ecx,0x10
    6631:	mov    rdx,r13
    6634:	mov    esi,0x30
    6639:	or     eax,0x2
    663c:	bswap  eax
    663e:	mov    DWORD PTR [rsp+0xc],eax
    6642:	mov    rdi,QWORD PTR [rbx]
    6645:	call   19110 <bdrv_pwrite>
    664a:	cmp    eax,0x10
    664d:	je     66b0 <qcow_open+0x3e0>
    664f:	mov    rcx,QWORD PTR [rip+0x23caa]        # 2a300 <stderr@@GLIBC_2.2.5>
    6656:	mov    edx,0x26
    665b:	mov    esi,0x1
    6660:	lea    rdi,[rip+0x178b1]        # 1df18 <__PRETTY_FUNCTION__.13430+0x68>
    6667:	call   3640 <fwrite@plt>
    666c:	nop    DWORD PTR [rax+0x0]
    6670:	mov    rax,QWORD PTR [rbx+0x30]
    6674:	mov    rdi,rax
    6677:	mov    r12d,0xffffffff
    667d:	call   5960 <qemu_free>
    6682:	mov    rdi,QWORD PTR [rbx+0x38]
    6686:	call   5960 <qemu_free>
    668b:	mov    rdi,QWORD PTR [rbx+0x100]
    6692:	call   5960 <qemu_free>
    6697:	mov    rdi,QWORD PTR [rbx+0x108]
    669e:	call   5960 <qemu_free>
    66a3:	mov    rdi,QWORD PTR [rbx]
    66a6:	call   18130 <bdrv_delete>
    66ab:	jmp    654d <qcow_open+0x27d>
    66b0:	mov    edx,DWORD PTR [rbx+0x1c]
    66b3:	jmp    648a <qcow_open+0x1ba>
    66b8:	call   31c0 <__stack_chk_fail@plt>
    66bd:	mov    rcx,QWORD PTR [rip+0x23c3c]        # 2a300 <stderr@@GLIBC_2.2.5>
    66c4:	mov    edx,0x23
    66c9:	mov    esi,0x1
    66ce:	lea    rdi,[rip+0x1781b]        # 1def0 <__PRETTY_FUNCTION__.13430+0x40>
    66d5:	call   3640 <fwrite@plt>
    66da:	jmp    6670 <qcow_open+0x3a0>
    66dc:	nop    DWORD PTR [rax+0x0]

00000000000066e0 <encrypt_sectors.isra.0>:
    66e0:	push   r15
    66e2:	push   r14
    66e4:	push   r13
    66e6:	push   r12
    66e8:	push   rbp
    66e9:	push   rbx
    66ea:	sub    rsp,0x38
    66ee:	mov    rax,QWORD PTR fs:0x28
    66f7:	mov    QWORD PTR [rsp+0x28],rax
    66fc:	xor    eax,eax
    66fe:	test   ecx,ecx
    6700:	jle    676b <encrypt_sectors.isra.0+0x8b>
    6702:	lea    r12d,[rcx-0x1]
    6706:	lea    rbx,[rdi+0x1]
    670a:	mov    rbp,rsi
    670d:	mov    r15,rdx
    6710:	lea    rax,[rsp+0x10]
    6715:	mov    r13d,r8d
    6718:	mov    r14,r9
    671b:	add    r12,rbx
    671e:	mov    QWORD PTR [rsp+0x8],rax
    6723:	jmp    672c <encrypt_sectors.isra.0+0x4c>
    6725:	nop    DWORD PTR [rax]
    6728:	add    rbx,0x1
    672c:	mov    r8,QWORD PTR [rsp+0x8]
    6731:	mov    QWORD PTR [rsp+0x10],rdi
    6736:	mov    rsi,rbp
    6739:	mov    rdi,r15
    673c:	mov    r9d,r13d
    673f:	mov    rcx,r14
    6742:	mov    edx,0x200
    6747:	mov    QWORD PTR [rsp+0x18],0x0
    6750:	add    r15,0x200
    6757:	add    rbp,0x200
    675e:	call   8630 <AES_cbc_encrypt>
    6763:	mov    rdi,rbx
    6766:	cmp    rbx,r12
    6769:	jne    6728 <encrypt_sectors.isra.0+0x48>
    676b:	mov    rax,QWORD PTR [rsp+0x28]
    6770:	xor    rax,QWORD PTR fs:0x28
    6779:	jne    678a <encrypt_sectors.isra.0+0xaa>
    677b:	add    rsp,0x38
    677f:	pop    rbx
    6780:	pop    rbp
    6781:	pop    r12
    6783:	pop    r13
    6785:	pop    r14
    6787:	pop    r15
    6789:	ret
    678a:	call   31c0 <__stack_chk_fail@plt>
    678f:	nop

0000000000006790 <decompress_cluster>:
    6790:	push   r15
    6792:	push   r14
    6794:	push   r13
    6796:	push   r12
    6798:	push   rbp
    6799:	xor    ebp,ebp
    679b:	push   rbx
    679c:	sub    rsp,0x88
    67a3:	mov    r12,QWORD PTR [rdi+0x20]
    67a7:	mov    rax,QWORD PTR fs:0x28
    67b0:	mov    QWORD PTR [rsp+0x78],rax
    67b5:	xor    eax,eax
    67b7:	and    r12,rsi
    67ba:	cmp    QWORD PTR [rdi+0x110],r12
    67c1:	jne    67f0 <decompress_cluster+0x60>
    67c3:	mov    rdi,QWORD PTR [rsp+0x78]
    67c8:	xor    rdi,QWORD PTR fs:0x28
    67d1:	mov    eax,ebp
    67d3:	jne    68e7 <decompress_cluster+0x157>
    67d9:	add    rsp,0x88
    67e0:	pop    rbx
    67e1:	pop    rbp
    67e2:	pop    r12
    67e4:	pop    r13
    67e6:	pop    r14
    67e8:	pop    r15
    67ea:	ret
    67eb:	nop    DWORD PTR [rax+rax*1+0x0]
    67f0:	mov    eax,DWORD PTR [rdi+0xc]
    67f3:	mov    ecx,0x3f
    67f8:	sub    ecx,DWORD PTR [rdi+0x8]
    67fb:	mov    rbx,rdi
    67fe:	shr    rsi,cl
    6801:	mov    rdx,QWORD PTR [rdi+0x108]
    6808:	mov    rdi,QWORD PTR [rdi]
    680b:	lea    ebp,[rax-0x1]
    680e:	and    ebp,esi
    6810:	mov    rsi,r12
    6813:	mov    ecx,ebp
    6815:	call   18b00 <bdrv_pread>
    681a:	cmp    ebp,eax
    681c:	jne    68c8 <decompress_cluster+0x138>
    6822:	mov    r15,rsp
    6825:	xor    eax,eax
    6827:	mov    ecx,0xc
    682c:	mov    r13d,DWORD PTR [rbx+0xc]
    6830:	lea    rdi,[r15+0x10]
    6834:	mov    rdx,QWORD PTR [rbx+0x108]
    683b:	mov    esi,0xfffffff4
    6840:	mov    r14,QWORD PTR [rbx+0x100]
    6847:	mov    QWORD PTR [rsp+0xc],0x0
    6850:	mov    QWORD PTR [r15+0x68],0x0
    6858:	rep stos QWORD PTR es:[rdi],rax
    685b:	mov    QWORD PTR [rsp],rdx
    685f:	mov    ecx,0x70
    6864:	mov    rdi,r15
    6867:	lea    rdx,[rip+0x176d1]        # 1df3f <__PRETTY_FUNCTION__.13430+0x8f>
    686e:	mov    DWORD PTR [rsp+0x8],ebp
    6872:	mov    QWORD PTR [rsp+0x18],r14
    6877:	mov    DWORD PTR [rsp+0x20],r13d
    687c:	call   35a0 <inflateInit2_@plt>
    6881:	mov    ebp,eax
    6883:	test   eax,eax
    6885:	jne    68c8 <decompress_cluster+0x138>
    6887:	mov    rdi,r15
    688a:	mov    esi,0x4
    688f:	call   3110 <inflate@plt>
    6894:	mov    rdx,QWORD PTR [rsp+0x18]
    6899:	mov    rdi,r15
    689c:	sub    rdx,r14
    689f:	cmp    r13d,edx
    68a2:	jne    68d8 <decompress_cluster+0x148>
    68a4:	cmp    eax,0x1
    68a7:	setne  dl
    68aa:	cmp    eax,0xfffffffb
    68ad:	setne  al
    68b0:	test   dl,al
    68b2:	jne    68d8 <decompress_cluster+0x148>
    68b4:	call   33c0 <inflateEnd@plt>
    68b9:	mov    QWORD PTR [rbx+0x110],r12
    68c0:	jmp    67c3 <decompress_cluster+0x33>
    68c5:	nop    DWORD PTR [rax]
    68c8:	mov    ebp,0xffffffff
    68cd:	jmp    67c3 <decompress_cluster+0x33>
    68d2:	nop    WORD PTR [rax+rax*1+0x0]
    68d8:	call   33c0 <inflateEnd@plt>
    68dd:	mov    ebp,0xffffffff
    68e2:	jmp    67c3 <decompress_cluster+0x33>
    68e7:	call   31c0 <__stack_chk_fail@plt>
    68ec:	nop    DWORD PTR [rax+0x0]

00000000000069c0 <get_cluster_offset.isra.1>:
    69c0:	push   r15
    69c2:	mov    r15d,edx
    69c5:	push   r14
    69c7:	mov    r14,rsi
    69ca:	push   r13
    69cc:	push   r12
    69ce:	mov    r12,rsi
    69d1:	push   rbp
    69d2:	push   rbx
    69d3:	mov    rbx,rdi
    69d6:	sub    rsp,0x48
    69da:	mov    edi,DWORD PTR [rdi+0x14]
    69dd:	mov    DWORD PTR [rsp+0x10],ecx
    69e1:	mov    ecx,DWORD PTR [rbx+0x8]
    69e4:	mov    DWORD PTR [rsp+0x8],r8d
    69e9:	mov    DWORD PTR [rsp+0xc],r9d
    69ee:	add    ecx,edi
    69f0:	shr    r12,cl
    69f3:	movsxd r12,r12d
    69f6:	mov    rax,QWORD PTR fs:0x28
    69ff:	mov    QWORD PTR [rsp+0x38],rax
    6a04:	xor    eax,eax
    6a06:	mov    rax,QWORD PTR [rbx+0x30]
    6a0a:	mov    rbp,QWORD PTR [rax+r12*8]
    6a0e:	test   rbp,rbp
    6a11:	jne    6a48 <get_cluster_offset.isra.1+0x88>
    6a13:	test   edx,edx
    6a15:	jne    6af0 <get_cluster_offset.isra.1+0x130>
    6a1b:	xor    r12d,r12d
    6a1e:	mov    rdi,QWORD PTR [rsp+0x38]
    6a23:	xor    rdi,QWORD PTR fs:0x28
    6a2c:	mov    rax,r12
    6a2f:	jne    6e3d <get_cluster_offset.isra.1+0x47d>
    6a35:	add    rsp,0x48
    6a39:	pop    rbx
    6a3a:	pop    rbp
    6a3b:	pop    r12
    6a3d:	pop    r13
    6a3f:	pop    r14
    6a41:	pop    r15
    6a43:	ret
    6a44:	nop    DWORD PTR [rax+0x0]
    6a48:	xor    esi,esi
    6a4a:	xor    eax,eax
    6a4c:	nop    DWORD PTR [rax+0x0]
    6a50:	mov    edx,eax
    6a52:	cmp    QWORD PTR [rbx+rax*8+0x40],rbp
    6a57:	je     6b60 <get_cluster_offset.isra.1+0x1a0>
    6a5d:	add    rax,0x1
    6a61:	cmp    rax,0x10
    6a65:	jne    6a50 <get_cluster_offset.isra.1+0x90>
    6a67:	xor    eax,eax
    6a69:	xor    r12d,r12d
    6a6c:	mov    ecx,0xffffffff
    6a71:	nop    DWORD PTR [rax+0x0]
    6a78:	mov    edx,DWORD PTR [rbx+rax*4+0xc0]
    6a7f:	cmp    edx,ecx
    6a81:	jae    6a88 <get_cluster_offset.isra.1+0xc8>
    6a83:	mov    ecx,edx
    6a85:	movsxd r12,eax
    6a88:	add    rax,0x1
    6a8c:	cmp    rax,0x10
    6a90:	jne    6a78 <get_cluster_offset.isra.1+0xb8>
    6a92:	mov    ecx,edi
    6a94:	mov    eax,r12d
    6a97:	mov    rdx,QWORD PTR [rbx+0x38]
    6a9b:	shl    eax,cl
    6a9d:	cdqe
    6a9f:	lea    r13,[rdx+rax*8]
    6aa3:	movsxd rdx,DWORD PTR [rbx+0x18]
    6aa7:	mov    rcx,rdx
    6aaa:	test   esi,esi
    6aac:	jne    6d90 <get_cluster_offset.isra.1+0x3d0>
    6ab2:	mov    rdi,QWORD PTR [rbx]
    6ab5:	shl    ecx,0x3
    6ab8:	mov    rdx,r13
    6abb:	mov    rsi,rbp
    6abe:	call   18b00 <bdrv_pread>
    6ac3:	movsxd rcx,DWORD PTR [rbx+0x18]
    6ac7:	cdqe
    6ac9:	mov    rdx,rcx
    6acc:	shl    rcx,0x3
    6ad0:	cmp    rax,rcx
    6ad3:	jne    6a1b <get_cluster_offset.isra.1+0x5b>
    6ad9:	mov    QWORD PTR [rbx+r12*8+0x40],rbp
    6ade:	mov    DWORD PTR [rbx+r12*4+0xc0],0x1
    6aea:	jmp    6b90 <get_cluster_offset.isra.1+0x1d0>
    6aef:	nop
    6af0:	mov    rdi,QWORD PTR [rbx]
    6af3:	lea    r13,[r12*8+0x0]
    6afb:	call   191c0 <bdrv_getlength>
    6b00:	movsxd rcx,DWORD PTR [rbx+0xc]
    6b04:	mov    rdx,rcx
    6b07:	lea    rsi,[rax+rcx*1-0x1]
    6b0c:	mov    rax,QWORD PTR [rbx+0x30]
    6b10:	mov    ecx,0x8
    6b15:	neg    edx
    6b17:	movsxd rbp,edx
    6b1a:	lea    rdx,[rsp+0x30]
    6b1f:	and    rbp,rsi
    6b22:	mov    QWORD PTR [rax+r12*8],rbp
    6b26:	mov    rsi,QWORD PTR [rbx+0x28]
    6b2a:	mov    rax,rbp
    6b2d:	mov    rdi,QWORD PTR [rbx]
    6b30:	bswap  rax
    6b33:	mov    QWORD PTR [rsp+0x30],rax
    6b38:	add    rsi,r13
    6b3b:	call   19110 <bdrv_pwrite>
    6b40:	cmp    eax,0x8
    6b43:	jne    6a1b <get_cluster_offset.isra.1+0x5b>
    6b49:	mov    edi,DWORD PTR [rbx+0x14]
    6b4c:	mov    esi,0x1
    6b51:	jmp    6a4a <get_cluster_offset.isra.1+0x8a>
    6b56:	nop    WORD PTR cs:[rax+rax*1+0x0]
    6b60:	cdqe
    6b62:	lea    rcx,[rbx+rax*4]
    6b66:	mov    eax,DWORD PTR [rcx+0xc0]
    6b6c:	add    eax,0x1
    6b6f:	mov    DWORD PTR [rcx+0xc0],eax
    6b75:	cmp    eax,0xffffffff
    6b78:	je     6dc0 <get_cluster_offset.isra.1+0x400>
    6b7e:	mov    ecx,edi
    6b80:	mov    rax,QWORD PTR [rbx+0x38]
    6b84:	shl    edx,cl
    6b86:	movsxd rdx,edx
    6b89:	lea    r13,[rax+rdx*8]
    6b8d:	mov    edx,DWORD PTR [rbx+0x18]
    6b90:	mov    ecx,DWORD PTR [rbx+0x8]
    6b93:	mov    rsi,r14
    6b96:	sub    edx,0x1
    6b99:	shr    rsi,cl
    6b9c:	and    edx,esi
    6b9e:	movsxd rsi,edx
    6ba1:	lea    rax,[rsi*8+0x0]
    6ba9:	add    r13,rax
    6bac:	mov    QWORD PTR [rsp+0x18],rax
    6bb1:	mov    r12,QWORD PTR [r13+0x0]
    6bb5:	bswap  r12
    6bb8:	test   r12,r12
    6bbb:	je     6d20 <get_cluster_offset.isra.1+0x360>
    6bc1:	jns    6a1e <get_cluster_offset.isra.1+0x5e>
    6bc7:	cmp    r15d,0x1
    6bcb:	jne    6a1e <get_cluster_offset.isra.1+0x5e>
    6bd1:	mov    eax,DWORD PTR [rsp+0xc]
    6bd5:	sub    eax,DWORD PTR [rsp+0x8]
    6bd9:	cmp    eax,DWORD PTR [rbx+0x10]
    6bdc:	jl     6de0 <get_cluster_offset.isra.1+0x420>
    6be2:	mov    rdi,QWORD PTR [rbx]
    6be5:	call   191c0 <bdrv_getlength>
    6bea:	mov    rcx,rax
    6bed:	movsxd rax,DWORD PTR [rbx+0xc]
    6bf1:	mov    rdi,QWORD PTR [rbx]
    6bf4:	mov    rdx,rax
    6bf7:	lea    rcx,[rcx+rax*1-0x1]
    6bfc:	neg    edx
    6bfe:	movsxd r12,edx
    6c01:	and    r12,rcx
    6c04:	lea    rsi,[rax+r12*1]
    6c08:	call   19190 <bdrv_truncate>
    6c0d:	mov    edx,DWORD PTR [rbx+0x118]
    6c13:	test   edx,edx
    6c15:	je     6d59 <get_cluster_offset.isra.1+0x399>
    6c1b:	mov    eax,DWORD PTR [rsp+0xc]
    6c1f:	sub    eax,DWORD PTR [rsp+0x8]
    6c23:	cmp    eax,DWORD PTR [rbx+0x10]
    6c26:	jge    6d59 <get_cluster_offset.isra.1+0x399>
    6c2c:	mov    eax,DWORD PTR [rbx+0xc]
    6c2f:	neg    eax
    6c31:	cdqe
    6c33:	and    rax,r14
    6c36:	mov    r10,rax
    6c39:	mov    rax,QWORD PTR [rbx+0x108]
    6c40:	shr    r10,0x9
    6c44:	lea    rdi,[rax+0x208]
    6c4b:	mov    QWORD PTR [rsp+0x10],r10
    6c50:	mov    QWORD PTR [rax+0x200],0x0
    6c5b:	and    rdi,0xfffffffffffffff8
    6c5f:	mov    QWORD PTR [rax+0x3f8],0x0
    6c6a:	sub    eax,edi
    6c6c:	lea    ecx,[rax+0x400]
    6c72:	xor    eax,eax
    6c74:	shr    ecx,0x3
    6c77:	rep stos QWORD PTR es:[rdi],rax
    6c7a:	mov    eax,DWORD PTR [rbx+0x10]
    6c7d:	test   eax,eax
    6c7f:	jle    6d59 <get_cluster_offset.isra.1+0x399>
    6c85:	lea    rax,[rbx+0x120]
    6c8c:	mov    QWORD PTR [rsp+0x28],rbp
    6c91:	xor    r14d,r14d
    6c94:	mov    ebp,DWORD PTR [rsp+0x8]
    6c98:	mov    QWORD PTR [rsp+0x20],rax
    6c9d:	mov    r15d,DWORD PTR [rsp+0xc]
    6ca2:	jmp    6cbb <get_cluster_offset.isra.1+0x2fb>
    6ca4:	nop    DWORD PTR [rax+0x0]
    6ca8:	cmp    r15d,r14d
    6cab:	jle    6cc0 <get_cluster_offset.isra.1+0x300>
    6cad:	add    r14,0x1
    6cb1:	cmp    DWORD PTR [rbx+0x10],r14d
    6cb5:	jle    6e33 <get_cluster_offset.isra.1+0x473>
    6cbb:	cmp    ebp,r14d
    6cbe:	jle    6ca8 <get_cluster_offset.isra.1+0x2e8>
    6cc0:	mov    rax,QWORD PTR [rsp+0x10]
    6cc5:	mov    r9,QWORD PTR [rsp+0x20]
    6cca:	mov    ecx,0x1
    6ccf:	mov    r8d,0x1
    6cd5:	mov    rsi,QWORD PTR [rbx+0x108]
    6cdc:	lea    rdi,[rax+r14*1]
    6ce0:	lea    rdx,[rsi+0x200]
    6ce7:	call   66e0 <encrypt_sectors.isra.0>
    6cec:	mov    esi,r14d
    6cef:	mov    rdi,QWORD PTR [rbx]
    6cf2:	mov    ecx,0x200
    6cf7:	shl    esi,0x9
    6cfa:	mov    rdx,QWORD PTR [rbx+0x108]
    6d01:	movsxd rsi,esi
    6d04:	add    rsi,r12
    6d07:	call   19110 <bdrv_pwrite>
    6d0c:	cmp    eax,0x200
    6d11:	je     6cad <get_cluster_offset.isra.1+0x2ed>
    6d13:	mov    r12,0xffffffffffffffff
    6d1a:	jmp    6a1e <get_cluster_offset.isra.1+0x5e>
    6d1f:	nop
    6d20:	test   r15d,r15d
    6d23:	je     6a1b <get_cluster_offset.isra.1+0x5b>
    6d29:	mov    rdi,QWORD PTR [rbx]
    6d2c:	call   191c0 <bdrv_getlength>
    6d31:	mov    rcx,rax
    6d34:	cmp    r15d,0x1
    6d38:	je     6bed <get_cluster_offset.isra.1+0x22d>
    6d3e:	movsxd r14,DWORD PTR [rsp+0x10]
    6d43:	mov    ecx,0x3f
    6d48:	sub    ecx,DWORD PTR [rbx+0x8]
    6d4b:	shl    r14,cl
    6d4e:	or     r14,rax
    6d51:	bts    r14,0x3f
    6d56:	mov    r12,r14
    6d59:	mov    rax,r12
    6d5c:	mov    rsi,QWORD PTR [rsp+0x18]
    6d61:	lea    rdx,[rsp+0x30]
    6d66:	mov    ecx,0x8
    6d6b:	bswap  rax
    6d6e:	mov    QWORD PTR [rsp+0x30],rax
    6d73:	mov    QWORD PTR [r13+0x0],rax
    6d77:	mov    rdi,QWORD PTR [rbx]
    6d7a:	add    rsi,rbp
    6d7d:	call   19110 <bdrv_pwrite>
    6d82:	cmp    eax,0x8
    6d85:	jne    6a1b <get_cluster_offset.isra.1+0x5b>
    6d8b:	jmp    6a1e <get_cluster_offset.isra.1+0x5e>
    6d90:	shl    rdx,0x3
    6d94:	xor    esi,esi
    6d96:	mov    rdi,r13
    6d99:	call   3250 <memset@plt>
    6d9e:	mov    eax,DWORD PTR [rbx+0x18]
    6da1:	mov    rdi,QWORD PTR [rbx]
    6da4:	mov    rdx,r13
    6da7:	mov    rsi,rbp
    6daa:	lea    ecx,[rax*8+0x0]
    6db1:	call   19110 <bdrv_pwrite>
    6db6:	jmp    6ac3 <get_cluster_offset.isra.1+0x103>
    6dbb:	nop    DWORD PTR [rax+rax*1+0x0]
    6dc0:	lea    rax,[rbx+0xc0]
    6dc7:	lea    rcx,[rbx+0x100]
    6dce:	xchg   ax,ax
    6dd0:	shr    DWORD PTR [rax],1
    6dd2:	add    rax,0x4
    6dd6:	cmp    rcx,rax
    6dd9:	jne    6dd0 <get_cluster_offset.isra.1+0x410>
    6ddb:	jmp    6b7e <get_cluster_offset.isra.1+0x1be>
    6de0:	mov    rsi,r12
    6de3:	mov    rdi,rbx
    6de6:	call   6790 <decompress_cluster>
    6deb:	test   eax,eax
    6ded:	js     6a1b <get_cluster_offset.isra.1+0x5b>
    6df3:	mov    rdi,QWORD PTR [rbx]
    6df6:	call   191c0 <bdrv_getlength>
    6dfb:	movsxd rdx,DWORD PTR [rbx+0xc]
    6dff:	mov    rdi,QWORD PTR [rbx]
    6e02:	mov    r12d,edx
    6e05:	lea    rax,[rax+rdx*1-0x1]
    6e0a:	mov    rcx,rdx
    6e0d:	mov    rdx,QWORD PTR [rbx+0x100]
    6e14:	neg    r12d
    6e17:	movsxd r12,r12d
    6e1a:	and    r12,rax
    6e1d:	mov    rsi,r12
    6e20:	call   19110 <bdrv_pwrite>
    6e25:	cmp    eax,DWORD PTR [rbx+0xc]
    6e28:	je     6d59 <get_cluster_offset.isra.1+0x399>
    6e2e:	jmp    6d13 <get_cluster_offset.isra.1+0x353>
    6e33:	mov    rbp,QWORD PTR [rsp+0x28]
    6e38:	jmp    6d59 <get_cluster_offset.isra.1+0x399>
    6e3d:	call   31c0 <__stack_chk_fail@plt>
    6e42:	data16 nop WORD PTR cs:[rax+rax*1+0x0]
    6e4d:	nop    DWORD PTR [rax]

0000000000006e50 <qcow_write_compressed>:
    6e50:	push   r15
    6e52:	push   r14
    6e54:	push   r13
    6e56:	push   r12
    6e58:	mov    r12,rsi
    6e5b:	push   rbp
    6e5c:	push   rbx
    6e5d:	sub    rsp,0xb8
    6e64:	mov    rbx,QWORD PTR [rdi+0x40]
    6e68:	mov    QWORD PTR [rsp+0x8],rdi
    6e6d:	mov    rsi,QWORD PTR fs:0x28
    6e76:	mov    QWORD PTR [rsp+0xa8],rsi
    6e7e:	xor    esi,esi
    6e80:	cmp    DWORD PTR [rbx+0x10],ecx
    6e83:	jne    7128 <qcow_write_compressed+0x2d8>
    6e89:	mov    ecx,DWORD PTR [rbx+0xc]
    6e8c:	mov    r13,rdx
    6e8f:	mov    edx,0x10624dd3
    6e94:	mov    eax,ecx
    6e96:	imul   edx
    6e98:	mov    eax,ecx
    6e9a:	sar    eax,0x1f
    6e9d:	sar    edx,0x6
    6ea0:	sub    edx,eax
    6ea2:	lea    edi,[rcx+rdx*1+0x80]
    6ea9:	movsxd rdi,edi
    6eac:	call   5970 <qemu_malloc>
    6eb1:	mov    r14,rax
    6eb4:	test   rax,rax
    6eb7:	je     7155 <qcow_write_compressed+0x305>
    6ebd:	lea    r15,[rsp+0x30]
    6ec2:	xor    eax,eax
    6ec4:	mov    ecx,0xe
    6ec9:	xor    r9d,r9d
    6ecc:	mov    rdi,r15
    6ecf:	mov    esi,0xffffffff
    6ed4:	mov    r8d,0x9
    6eda:	mov    edx,0x8
    6edf:	rep stos QWORD PTR es:[rdi],rax
    6ee2:	lea    rax,[rip+0x17056]        # 1df3f <__PRETTY_FUNCTION__.13430+0x8f>
    6ee9:	push   0x70
    6eeb:	mov    rdi,r15
    6eee:	push   rax
    6eef:	mov    ecx,0xfffffff4
    6ef4:	call   32c0 <deflateInit2_@plt>
    6ef9:	mov    DWORD PTR [rsp+0x24],eax
    6efd:	pop    rcx
    6efe:	pop    rsi
    6eff:	test   eax,eax
    6f01:	jne    7110 <qcow_write_compressed+0x2c0>
    6f07:	mov    eax,DWORD PTR [rbx+0xc]
    6f0a:	mov    esi,0x4
    6f0f:	mov    rdi,r15
    6f12:	mov    QWORD PTR [rsp+0x30],r13
    6f17:	mov    QWORD PTR [rsp+0x48],r14
    6f1c:	mov    DWORD PTR [rsp+0x38],eax
    6f20:	mov    DWORD PTR [rsp+0x50],eax
    6f24:	call   3240 <deflate@plt>
    6f29:	mov    ebp,eax
    6f2b:	cmp    eax,0x1
    6f2e:	ja     7138 <qcow_write_compressed+0x2e8>
    6f34:	mov    rax,QWORD PTR [rsp+0x48]
    6f39:	mov    rdi,r15
    6f3c:	mov    QWORD PTR [rsp+0x18],rax
    6f41:	call   3490 <deflateEnd@plt>
    6f46:	cmp    ebp,0x1
    6f49:	jne    70a8 <qcow_write_compressed+0x258>
    6f4f:	mov    rbp,QWORD PTR [rsp+0x18]
    6f54:	mov    rax,QWORD PTR [rsp+0x8]
    6f59:	sub    rbp,r14
    6f5c:	mov    r15,QWORD PTR [rax+0x40]
    6f60:	cmp    DWORD PTR [rbx+0xc],ebp
    6f63:	jg     70d8 <qcow_write_compressed+0x288>
    6f69:	mov    ebp,DWORD PTR [rbx+0x10]
    6f6c:	test   ebp,ebp
    6f6e:	jle    70c8 <qcow_write_compressed+0x278>
    6f74:	lea    rax,[r15+0x120]
    6f7b:	mov    QWORD PTR [rsp+0x28],r14
    6f80:	mov    rdi,r15
    6f83:	mov    r14,r15
    6f86:	mov    QWORD PTR [rsp+0x20],rax
    6f8b:	jmp    6ff5 <qcow_write_compressed+0x1a5>
    6f8d:	nop    DWORD PTR [rax]
    6f90:	mov    rsi,QWORD PTR [r14+0x108]
    6f97:	mov    ecx,ebx
    6f99:	mov    rdx,r13
    6f9c:	mov    rdi,r12
    6f9f:	mov    r9,QWORD PTR [rsp+0x20]
    6fa4:	mov    r8d,0x1
    6faa:	mov    QWORD PTR [rsp+0x18],rax
    6faf:	call   66e0 <encrypt_sectors.isra.0>
    6fb4:	mov    rax,QWORD PTR [rsp+0x18]
    6fb9:	mov    rdi,QWORD PTR [r14]
    6fbc:	mov    ecx,r15d
    6fbf:	mov    rdx,QWORD PTR [r14+0x108]
    6fc6:	mov    rsi,rax
    6fc9:	call   19110 <bdrv_pwrite>
    6fce:	cmp    eax,r15d
    6fd1:	jne    706b <qcow_write_compressed+0x21b>
    6fd7:	sub    ebp,ebx
    6fd9:	cdqe
    6fdb:	movsxd rbx,ebx
    6fde:	add    r12,rbx
    6fe1:	add    r13,rax
    6fe4:	test   ebp,ebp
    6fe6:	jle    70c0 <qcow_write_compressed+0x270>
    6fec:	mov    rax,QWORD PTR [rsp+0x8]
    6ff1:	mov    rdi,QWORD PTR [rax+0x40]
    6ff5:	mov    ebx,DWORD PTR [r14+0x10]
    6ff9:	mov    rsi,r12
    6ffc:	mov    edx,0x1
    7001:	lea    r10d,[rbx-0x1]
    7005:	and    r10d,r12d
    7008:	sub    ebx,r10d
    700b:	mov    r8d,r10d
    700e:	mov    DWORD PTR [rsp+0x18],r10d
    7013:	cmp    ebx,ebp
    7015:	cmovg  ebx,ebp
    7018:	shl    rsi,0x9
    701c:	xor    ecx,ecx
    701e:	lea    r9d,[r10+rbx*1]
    7022:	call   69c0 <get_cluster_offset.isra.1>
    7027:	test   rax,rax
    702a:	je     706b <qcow_write_compressed+0x21b>
    702c:	mov    r10d,DWORD PTR [rsp+0x18]
    7031:	mov    edx,DWORD PTR [r14+0x118]
    7038:	mov    r15d,ebx
    703b:	shl    r15d,0x9
    703f:	shl    r10d,0x9
    7043:	movsxd r10,r10d
    7046:	add    rax,r10
    7049:	test   edx,edx
    704b:	jne    6f90 <qcow_write_compressed+0x140>
    7051:	mov    rdi,QWORD PTR [r14]
    7054:	mov    ecx,r15d
    7057:	mov    rdx,r13
    705a:	mov    rsi,rax
    705d:	call   19110 <bdrv_pwrite>
    7062:	cmp    eax,r15d
    7065:	je     6fd7 <qcow_write_compressed+0x187>
    706b:	mov    r14,QWORD PTR [rsp+0x28]
    7070:	mov    rdi,r14
    7073:	call   5960 <qemu_free>
    7078:	mov    rcx,QWORD PTR [rsp+0xa8]
    7080:	xor    rcx,QWORD PTR fs:0x28
    7089:	mov    eax,DWORD PTR [rsp+0x14]
    708d:	jne    7162 <qcow_write_compressed+0x312>
    7093:	add    rsp,0xb8
    709a:	pop    rbx
    709b:	pop    rbp
    709c:	pop    r12
    709e:	pop    r13
    70a0:	pop    r14
    70a2:	pop    r15
    70a4:	ret
    70a5:	nop    DWORD PTR [rax]
    70a8:	mov    rax,QWORD PTR [rsp+0x8]
    70ad:	mov    r15,QWORD PTR [rax+0x40]
    70b1:	jmp    6f69 <qcow_write_compressed+0x119>
    70b6:	nop    WORD PTR cs:[rax+rax*1+0x0]
    70c0:	mov    r15,r14
    70c3:	mov    r14,QWORD PTR [rsp+0x28]
    70c8:	mov    QWORD PTR [r15+0x110],0xffffffffffffffff
    70d3:	jmp    7070 <qcow_write_compressed+0x220>
    70d5:	nop    DWORD PTR [rax]
    70d8:	mov    rsi,r12
    70db:	xor    r9d,r9d
    70de:	xor    r8d,r8d
    70e1:	mov    ecx,ebp
    70e3:	shl    rsi,0x9
    70e7:	mov    edx,0x2
    70ec:	mov    rdi,r15
    70ef:	call   69c0 <get_cluster_offset.isra.1>
    70f4:	mov    rdi,QWORD PTR [rbx]
    70f7:	and    rax,QWORD PTR [rbx+0x20]
    70fb:	mov    ecx,ebp
    70fd:	mov    rsi,rax
    7100:	mov    rdx,r14
    7103:	call   19110 <bdrv_pwrite>
    7108:	cmp    eax,ebp
    710a:	je     7070 <qcow_write_compressed+0x220>
    7110:	mov    rdi,r14
    7113:	call   5960 <qemu_free>
    7118:	mov    DWORD PTR [rsp+0x14],0xffffffff
    7120:	jmp    7078 <qcow_write_compressed+0x228>
    7125:	nop    DWORD PTR [rax]
    7128:	mov    DWORD PTR [rsp+0x14],0xffffffea
    7130:	jmp    7078 <qcow_write_compressed+0x228>
    7135:	nop    DWORD PTR [rax]
    7138:	mov    rdi,r14
    713b:	call   5960 <qemu_free>
    7140:	mov    rdi,r15
    7143:	call   3490 <deflateEnd@plt>
    7148:	mov    DWORD PTR [rsp+0x14],0xffffffff
    7150:	jmp    7078 <qcow_write_compressed+0x228>
    7155:	mov    DWORD PTR [rsp+0x14],0xffffffff
    715d:	jmp    7078 <qcow_write_compressed+0x228>
    7162:	call   31c0 <__stack_chk_fail@plt>
    7167:	nop    WORD PTR [rax+rax*1+0x0]

00000000000071d0 <qcow_aio_write_cb>:
    71d0:	push   r14
    71d2:	push   r13
    71d4:	push   r12
    71d6:	push   rbp
    71d7:	mov    ebp,esi
    71d9:	push   rbx
    71da:	mov    rcx,QWORD PTR [rdi+0x8]
    71de:	mov    rbx,rdi
    71e1:	mov    r12,QWORD PTR [rcx+0x40]
    71e5:	mov    QWORD PTR [rdi+0x50],0x0
    71ed:	test   esi,esi
    71ef:	js     72f0 <qcow_aio_write_cb+0x120>
    71f5:	movsxd rsi,DWORD PTR [rdi+0x3c]
    71f9:	mov    edx,DWORD PTR [rdi+0x38]
    71fc:	mov    rax,rsi
    71ff:	sub    edx,esi
    7201:	add    rsi,QWORD PTR [rdi+0x28]
    7205:	shl    eax,0x9
    7208:	mov    DWORD PTR [rdi+0x38],edx
    720b:	cdqe
    720d:	mov    QWORD PTR [rdi+0x28],rsi
    7211:	add    QWORD PTR [rdi+0x30],rax
    7215:	test   edx,edx
    7217:	je     72b0 <qcow_aio_write_cb+0xe0>
    721d:	mov    r9d,DWORD PTR [r12+0x10]
    7222:	lea    r13d,[r9-0x1]
    7226:	mov    eax,r9d
    7229:	and    r13d,esi
    722c:	sub    eax,r13d
    722f:	cmp    edx,eax
    7231:	jl     7300 <qcow_aio_write_cb+0x130>
    7237:	mov    DWORD PTR [rdi+0x3c],eax
    723a:	mov    rdi,QWORD PTR [rcx+0x40]
    723e:	shl    rsi,0x9
    7242:	mov    r8d,r13d
    7245:	xor    ecx,ecx
    7247:	mov    edx,0x1
    724c:	call   69c0 <get_cluster_offset.isra.1>
    7251:	mov    r14,rax
    7254:	test   rax,rax
    7257:	je     7340 <qcow_aio_write_cb+0x170>
    725d:	test   eax,0x1ff
    7262:	jne    7340 <qcow_aio_write_cb+0x170>
    7268:	mov    eax,DWORD PTR [r12+0x118]
    7270:	test   eax,eax
    7272:	jne    7310 <qcow_aio_write_cb+0x140>
    7278:	mov    rdx,QWORD PTR [rbx+0x30]
    727c:	mov    ecx,DWORD PTR [rbx+0x3c]
    727f:	shr    r14,0x9
    7283:	movsxd rsi,r13d
    7286:	mov    rdi,QWORD PTR [r12]
    728a:	add    rsi,r14
    728d:	mov    r9,rbx
    7290:	lea    r8,[rip+0xffffffffffffff39]        # 71d0 <qcow_aio_write_cb>
    7297:	call   1a1a0 <bdrv_aio_write>
    729c:	mov    QWORD PTR [rbx+0x50],rax
    72a0:	test   rax,rax
    72a3:	je     72f0 <qcow_aio_write_cb+0x120>
    72a5:	pop    rbx
    72a6:	pop    rbp
    72a7:	pop    r12
    72a9:	pop    r13
    72ab:	pop    r14
    72ad:	ret
    72ae:	xchg   ax,ax
    72b0:	mov    rdi,QWORD PTR [rdi+0x18]
    72b4:	xor    esi,esi
    72b6:	call   QWORD PTR [rbx+0x10]
    72b9:	mov    rdi,rbx
    72bc:	pop    rbx
    72bd:	pop    rbp
    72be:	pop    r12
    72c0:	pop    r13
    72c2:	pop    r14
    72c4:	jmp    1a860 <qemu_aio_release>
    72c9:	nop    DWORD PTR [rax+0x0]
    72d0:	movsxd rdi,DWORD PTR [r12+0xc]
    72d5:	call   59c0 <qemu_mallocz>
    72da:	mov    rsi,rax
    72dd:	mov    QWORD PTR [rbx+0x48],rax
    72e1:	test   rax,rax
    72e4:	jne    7319 <qcow_aio_write_cb+0x149>
    72e6:	mov    ebp,0xfffffff4
    72eb:	nop    DWORD PTR [rax+rax*1+0x0]
    72f0:	mov    rdi,QWORD PTR [rbx+0x18]
    72f4:	mov    esi,ebp
    72f6:	jmp    72b6 <qcow_aio_write_cb+0xe6>
    72f8:	nop    DWORD PTR [rax+rax*1+0x0]
    7300:	mov    DWORD PTR [rdi+0x3c],edx
    7303:	lea    r9d,[rdx+r13*1]
    7307:	jmp    723a <qcow_aio_write_cb+0x6a>
    730c:	nop    DWORD PTR [rax+0x0]
    7310:	mov    rsi,QWORD PTR [rbx+0x48]
    7314:	test   rsi,rsi
    7317:	je     72d0 <qcow_aio_write_cb+0x100>
    7319:	mov    rdx,QWORD PTR [rbx+0x30]
    731d:	mov    ecx,DWORD PTR [rbx+0x3c]
    7320:	lea    r9,[r12+0x120]
    7328:	mov    r8d,0x1
    732e:	mov    rdi,QWORD PTR [rbx+0x28]
    7332:	call   66e0 <encrypt_sectors.isra.0>
    7337:	mov    rdx,QWORD PTR [rbx+0x48]
    733b:	jmp    727c <qcow_aio_write_cb+0xac>
    7340:	mov    ebp,0xfffffffb
    7345:	mov    rdi,QWORD PTR [rbx+0x18]
    7349:	mov    esi,ebp
    734b:	jmp    72b6 <qcow_aio_write_cb+0xe6>

00000000000073c0 <qcow_aio_read_cb>:
    73c0:	push   r15
    73c2:	push   r14
    73c4:	push   r13
    73c6:	mov    r13d,esi
    73c9:	push   r12
    73cb:	push   rbp
    73cc:	push   rbx
    73cd:	mov    rbx,rdi
    73d0:	sub    rsp,0x8
    73d4:	mov    r12,QWORD PTR [rdi+0x8]
    73d8:	mov    rbp,QWORD PTR [r12+0x40]
    73dd:	mov    QWORD PTR [rdi+0x50],0x0
    73e5:	lea    r14,[rbp+0x214]
    73ec:	test   esi,esi
    73ee:	js     7510 <qcow_aio_read_cb+0x150>
    73f4:	nop    DWORD PTR [rax+0x0]
    73f8:	cmp    QWORD PTR [rbx+0x40],0x0
    73fd:	mov    ecx,DWORD PTR [rbx+0x3c]
    7400:	mov    rax,QWORD PTR [rbx+0x30]
    7404:	mov    rdi,QWORD PTR [rbx+0x28]
    7408:	jle    7418 <qcow_aio_read_cb+0x58>
    740a:	mov    edx,DWORD PTR [rbp+0x118]
    7410:	test   edx,edx
    7412:	jne    74e8 <qcow_aio_read_cb+0x128>
    7418:	mov    edx,DWORD PTR [rbx+0x38]
    741b:	movsxd rsi,ecx
    741e:	add    rsi,rdi
    7421:	sub    edx,ecx
    7423:	shl    ecx,0x9
    7426:	mov    QWORD PTR [rbx+0x28],rsi
    742a:	movsxd rcx,ecx
    742d:	mov    DWORD PTR [rbx+0x38],edx
    7430:	add    rcx,rax
    7433:	mov    QWORD PTR [rbx+0x30],rcx
    7437:	test   edx,edx
    7439:	je     7530 <qcow_aio_read_cb+0x170>
    743f:	mov    rdi,QWORD PTR [r12+0x40]
    7444:	shl    rsi,0x9
    7448:	xor    ecx,ecx
    744a:	xor    edx,edx
    744c:	xor    r9d,r9d
    744f:	xor    r8d,r8d
    7452:	call   69c0 <get_cluster_offset.isra.1>
    7457:	mov    rsi,QWORD PTR [rbx+0x28]
    745b:	mov    edx,DWORD PTR [rbx+0x38]
    745e:	mov    QWORD PTR [rbx+0x40],rax
    7462:	mov    ecx,DWORD PTR [rbp+0x10]
    7465:	lea    r15d,[rcx-0x1]
    7469:	and    r15d,esi
    746c:	sub    ecx,r15d
    746f:	cmp    ecx,edx
    7471:	cmovg  ecx,edx
    7474:	mov    DWORD PTR [rbx+0x3c],ecx
    7477:	test   rax,rax
    747a:	jne    74a8 <qcow_aio_read_cb+0xe8>
    747c:	mov    rax,QWORD PTR [r12+0x850]
    7484:	mov    rdi,QWORD PTR [rbx+0x30]
    7488:	test   rax,rax
    748b:	jne    7580 <qcow_aio_read_cb+0x1c0>
    7491:	shl    ecx,0x9
    7494:	xor    esi,esi
    7496:	movsxd rdx,ecx
    7499:	call   3250 <memset@plt>
    749e:	jmp    73f8 <qcow_aio_read_cb+0x38>
    74a3:	nop    DWORD PTR [rax+rax*1+0x0]
    74a8:	jns    7540 <qcow_aio_read_cb+0x180>
    74ae:	mov    rsi,rax
    74b1:	mov    rdi,rbp
    74b4:	call   6790 <decompress_cluster>
    74b9:	test   eax,eax
    74bb:	js     7510 <qcow_aio_read_cb+0x150>
    74bd:	mov    edx,DWORD PTR [rbx+0x3c]
    74c0:	shl    r15d,0x9
    74c4:	mov    rdi,QWORD PTR [rbx+0x30]
    74c8:	movsxd rsi,r15d
    74cb:	add    rsi,QWORD PTR [rbp+0x100]
    74d2:	shl    edx,0x9
    74d5:	movsxd rdx,edx
    74d8:	call   33b0 <memcpy@plt>
    74dd:	jmp    73f8 <qcow_aio_read_cb+0x38>
    74e2:	nop    WORD PTR [rax+rax*1+0x0]
    74e8:	mov    rdx,rax
    74eb:	mov    rsi,rax
    74ee:	mov    r9,r14
    74f1:	xor    r8d,r8d
    74f4:	call   66e0 <encrypt_sectors.isra.0>
    74f9:	mov    ecx,DWORD PTR [rbx+0x3c]
    74fc:	mov    rdi,QWORD PTR [rbx+0x28]
    7500:	mov    rax,QWORD PTR [rbx+0x30]
    7504:	jmp    7418 <qcow_aio_read_cb+0x58>
    7509:	mov    r13d,0xfffffffb
    750f:	nop
    7510:	mov    rdi,QWORD PTR [rbx+0x18]
    7514:	mov    esi,r13d
    7517:	call   QWORD PTR [rbx+0x10]
    751a:	add    rsp,0x8
    751e:	mov    rdi,rbx
    7521:	pop    rbx
    7522:	pop    rbp
    7523:	pop    r12
    7525:	pop    r13
    7527:	pop    r14
    7529:	pop    r15
    752b:	jmp    1a860 <qemu_aio_release>
    7530:	mov    rdi,QWORD PTR [rbx+0x18]
    7534:	xor    esi,esi
    7536:	jmp    7517 <qcow_aio_read_cb+0x157>
    7538:	nop    DWORD PTR [rax+rax*1+0x0]
    7540:	test   eax,0x1ff
    7545:	jne    7509 <qcow_aio_read_cb+0x149>
    7547:	shr    rax,0x9
    754b:	mov    rdx,QWORD PTR [rbx+0x30]
    754f:	movsxd rsi,r15d
    7552:	mov    rdi,QWORD PTR [rbp+0x0]
    7556:	add    rsi,rax
    7559:	mov    r9,rbx
    755c:	lea    r8,[rip+0xfffffffffffffe5d]        # 73c0 <qcow_aio_read_cb>
    7563:	call   1a070 <bdrv_aio_read>
    7568:	mov    QWORD PTR [rbx+0x50],rax
    756c:	test   rax,rax
    756f:	je     7510 <qcow_aio_read_cb+0x150>
    7571:	add    rsp,0x8
    7575:	pop    rbx
    7576:	pop    rbp
    7577:	pop    r12
    7579:	pop    r13
    757b:	pop    r14
    757d:	pop    r15
    757f:	ret
    7580:	mov    rdx,rdi
    7583:	mov    r9,rbx
    7586:	lea    r8,[rip+0xfffffffffffffe33]        # 73c0 <qcow_aio_read_cb>
    758d:	mov    rdi,rax
    7590:	call   1a070 <bdrv_aio_read>
    7595:	mov    QWORD PTR [rbx+0x50],rax
    7599:	test   rax,rax
    759c:	je     7510 <qcow_aio_read_cb+0x150>
    75a2:	add    rsp,0x8
    75a6:	pop    rbx
    75a7:	pop    rbp
    75a8:	pop    r12
    75aa:	pop    r13
    75ac:	pop    r14
    75ae:	pop    r15
    75b0:	ret
    75b1:	data16 nop WORD PTR cs:[rax+rax*1+0x0]
    75bc:	nop    DWORD PTR [rax+0x0]

0000000000007660 <qcow_create>:
    7660:	push   r15
    7662:	mov    r15,rdx
    7665:	mov    edx,0x1a4
    766a:	push   r14
    766c:	push   r13
    766e:	push   r12
    7670:	push   rbp
    7671:	push   rbx
    7672:	mov    rbx,rsi
    7675:	mov    esi,0x241
    767a:	sub    rsp,0x68
    767e:	mov    DWORD PTR [rsp+0x4],ecx
    7682:	mov    rax,QWORD PTR fs:0x28
    768b:	mov    QWORD PTR [rsp+0x58],rax
    7690:	xor    eax,eax
    7692:	call   3500 <open64@plt>
    7697:	test   eax,eax
    7699:	js     7871 <qcow_create+0x211>
    769f:	mov    ebp,eax
    76a1:	shl    rbx,0x9
    76a5:	lea    r9,[rsp+0x20]
    76aa:	pxor   xmm0,xmm0
    76ae:	movabs rax,0x1000000fb494651
    76b8:	movups XMMWORD PTR [rsp+0x28],xmm0
    76bd:	mov    QWORD PTR [rsp+0x20],rax
    76c2:	mov    rax,rbx
    76c5:	movups XMMWORD PTR [r9+0x18],xmm0
    76ca:	bswap  rax
    76cd:	mov    QWORD PTR [r9+0x28],0x0
    76d5:	mov    QWORD PTR [rsp+0x38],rax
    76da:	test   r15,r15
    76dd:	je     7850 <qcow_create+0x1f0>
    76e3:	mov    ecx,0x5
    76e8:	lea    rdi,[rip+0x16857]        # 1df46 <__PRETTY_FUNCTION__.13430+0x96>
    76ef:	mov    rsi,r15
    76f2:	repz cmps BYTE PTR ds:[rsi],BYTE PTR es:[rdi]
    76f4:	seta   dl
    76f7:	sbb    dl,0x0
    76fa:	movsx  ecx,dl
    76fd:	test   ecx,ecx
    76ff:	jne    7800 <qcow_create+0x1a0>
    7705:	movabs rax,0x3000000000000000
    770f:	mov    r12d,0x30
    7715:	xor    r15d,r15d
    7718:	mov    edx,0xc09
    771d:	mov    WORD PTR [rsp+0x40],dx
    7722:	lea    r13,[rbx+0x1fffff]
    7729:	mov    QWORD PTR [rsp+0x48],rax
    772e:	sar    r13,0x15
    7732:	mov    r14d,r13d
    7735:	test   BYTE PTR [rsp+0x4],0x1
    773a:	je     7744 <qcow_create+0xe4>
    773c:	mov    DWORD PTR [rsp+0x44],0x1000000
    7744:	mov    edx,0x30
    7749:	mov    rsi,r9
    774c:	mov    edi,ebp
    774e:	mov    DWORD PTR [rsp+0x4],ecx
    7752:	call   5390 <qemu_write_ok>
    7757:	test   eax,eax
    7759:	js     77bf <qcow_create+0x15f>
    775b:	test   r15,r15
    775e:	mov    ecx,DWORD PTR [rsp+0x4]
    7762:	je     7775 <qcow_create+0x115>
    7764:	movsxd rdx,ecx
    7767:	mov    rsi,r15
    776a:	mov    edi,ebp
    776c:	call   5390 <qemu_write_ok>
    7771:	test   eax,eax
    7773:	js     77bf <qcow_create+0x15f>
    7775:	movsxd rsi,r12d
    7778:	xor    edx,edx
    777a:	mov    edi,ebp
    777c:	xor    ebx,ebx
    777e:	call   3650 <lseek64@plt>
    7783:	lea    r12,[rsp+0x18]
    7788:	mov    QWORD PTR [rsp+0x18],0x0
    7791:	test   r13d,r13d
    7794:	jg     77ac <qcow_create+0x14c>
    7796:	jmp    7840 <qcow_create+0x1e0>
    779b:	nop    DWORD PTR [rax+rax*1+0x0]
    77a0:	add    ebx,0x1
    77a3:	cmp    r14d,ebx
    77a6:	je     7840 <qcow_create+0x1e0>
    77ac:	mov    edx,0x8
    77b1:	mov    rsi,r12
    77b4:	mov    edi,ebp
    77b6:	call   5390 <qemu_write_ok>
    77bb:	test   eax,eax
    77bd:	jns    77a0 <qcow_create+0x140>
    77bf:	call   30d0 <__errno_location@plt>
    77c4:	mov    edi,ebp
    77c6:	mov    r12d,DWORD PTR [rax]
    77c9:	mov    rbx,rax
    77cc:	call   3270 <close@plt>
    77d1:	mov    eax,0xffffffff
    77d6:	mov    DWORD PTR [rbx],r12d
    77d9:	mov    rcx,QWORD PTR [rsp+0x58]
    77de:	xor    rcx,QWORD PTR fs:0x28
    77e7:	jne    787b <qcow_create+0x21b>
    77ed:	add    rsp,0x68
    77f1:	pop    rbx
    77f2:	pop    rbp
    77f3:	pop    r12
    77f5:	pop    r13
    77f7:	pop    r14
    77f9:	pop    r15
    77fb:	ret
    77fc:	nop    DWORD PTR [rax+0x0]
    7800:	movabs rax,0x3000000000000000
    780a:	mov    rdi,r15
    780d:	mov    QWORD PTR [rsp+0x8],r9
    7812:	mov    QWORD PTR [rsp+0x28],rax
    7817:	call   31b0 <strlen@plt>
    781c:	mov    r9,QWORD PTR [rsp+0x8]
    7821:	lea    r12d,[rax+0x37]
    7825:	mov    edx,eax
    7827:	mov    ecx,eax
    7829:	and    r12d,0xfffffff8
    782d:	bswap  edx
    782f:	mov    DWORD PTR [rsp+0x30],edx
    7833:	movsxd rax,r12d
    7836:	bswap  rax
    7839:	jmp    7718 <qcow_create+0xb8>
    783e:	xchg   ax,ax
    7840:	mov    edi,ebp
    7842:	call   3270 <close@plt>
    7847:	xor    eax,eax
    7849:	jmp    77d9 <qcow_create+0x179>
    784b:	nop    DWORD PTR [rax+rax*1+0x0]
    7850:	mov    eax,0x90c
    7855:	mov    r12d,0x30
    785b:	xor    ecx,ecx
    785d:	mov    WORD PTR [rsp+0x40],ax
    7862:	movabs rax,0x3000000000000000
    786c:	jmp    7722 <qcow_create+0xc2>
    7871:	mov    eax,0xffffffff
    7876:	jmp    77d9 <qcow_create+0x179>
    787b:	call   31c0 <__stack_chk_fail@plt>

0000000000007880 <AES_set_encrypt_key>:
    7880:	test   rdi,rdi
    7883:	je     7c99 <AES_set_encrypt_key+0x419>
    7889:	test   rdx,rdx
    788c:	je     7c99 <AES_set_encrypt_key+0x419>
    7892:	mov    eax,esi
    7894:	and    eax,0xffffffbf
    7897:	cmp    eax,0x80
    789c:	jne    7a20 <AES_set_encrypt_key+0x1a0>
    78a2:	cmp    esi,0x80
    78a8:	jne    7a40 <AES_set_encrypt_key+0x1c0>
    78ae:	mov    DWORD PTR [rdx+0xf0],0xa
    78b8:	push   r14
    78ba:	push   r12
    78bc:	push   rbp
    78bd:	push   rbx
    78be:	movzx  eax,BYTE PTR [rdi]
    78c1:	movzx  r8d,BYTE PTR [rdi+0x1]
    78c6:	shl    eax,0x18
    78c9:	shl    r8d,0x10
    78cd:	xor    eax,r8d
    78d0:	movzx  r8d,BYTE PTR [rdi+0x3]
    78d5:	xor    eax,r8d
    78d8:	movzx  r8d,BYTE PTR [rdi+0x2]
    78dd:	shl    r8d,0x8
    78e1:	xor    r8d,eax
    78e4:	mov    DWORD PTR [rdx],r8d
    78e7:	movzx  r9d,BYTE PTR [rdi+0x4]
    78ec:	movzx  eax,BYTE PTR [rdi+0x5]
    78f0:	shl    r9d,0x18
    78f4:	shl    eax,0x10
    78f7:	xor    r9d,eax
    78fa:	movzx  eax,BYTE PTR [rdi+0x7]
    78fe:	xor    r9d,eax
    7901:	movzx  eax,BYTE PTR [rdi+0x6]
    7905:	shl    eax,0x8
    7908:	xor    r9d,eax
    790b:	mov    DWORD PTR [rdx+0x4],r9d
    790f:	movzx  r10d,BYTE PTR [rdi+0x8]
    7914:	movzx  eax,BYTE PTR [rdi+0x9]
    7918:	shl    r10d,0x18
    791c:	shl    eax,0x10
    791f:	xor    r10d,eax
    7922:	movzx  eax,BYTE PTR [rdi+0xb]
    7926:	xor    r10d,eax
    7929:	movzx  eax,BYTE PTR [rdi+0xa]
    792d:	shl    eax,0x8
    7930:	xor    r10d,eax
    7933:	mov    DWORD PTR [rdx+0x8],r10d
    7937:	movzx  ecx,BYTE PTR [rdi+0xc]
    793b:	movzx  eax,BYTE PTR [rdi+0xd]
    793f:	shl    ecx,0x18
    7942:	shl    eax,0x10
    7945:	xor    ecx,eax
    7947:	movzx  eax,BYTE PTR [rdi+0xf]
    794b:	xor    ecx,eax
    794d:	movzx  eax,BYTE PTR [rdi+0xe]
    7951:	shl    eax,0x8
    7954:	xor    ecx,eax
    7956:	mov    DWORD PTR [rdx+0xc],ecx
    7959:	cmp    esi,0x80
    795f:	je     7a60 <AES_set_encrypt_key+0x1e0>
    7965:	movzx  eax,BYTE PTR [rdi+0x10]
    7969:	movzx  r11d,BYTE PTR [rdi+0x11]
    796e:	shl    eax,0x18
    7971:	shl    r11d,0x10
    7975:	xor    eax,r11d
    7978:	movzx  r11d,BYTE PTR [rdi+0x13]
    797d:	xor    eax,r11d
    7980:	movzx  r11d,BYTE PTR [rdi+0x12]
    7985:	shl    r11d,0x8
    7989:	xor    eax,r11d
    798c:	mov    DWORD PTR [rdx+0x10],eax
    798f:	movzx  ebx,BYTE PTR [rdi+0x14]
    7993:	movzx  eax,BYTE PTR [rdi+0x15]
    7997:	shl    ebx,0x18
    799a:	shl    eax,0x10
    799d:	xor    ebx,eax
    799f:	movzx  eax,BYTE PTR [rdi+0x17]
    79a3:	xor    ebx,eax
    79a5:	movzx  eax,BYTE PTR [rdi+0x16]
    79a9:	shl    eax,0x8
    79ac:	xor    ebx,eax
    79ae:	mov    DWORD PTR [rdx+0x14],ebx
    79b1:	cmp    esi,0xc0
    79b7:	je     7af0 <AES_set_encrypt_key+0x270>
    79bd:	movzx  eax,BYTE PTR [rdi+0x18]
    79c1:	movzx  r11d,BYTE PTR [rdi+0x19]
    79c6:	shl    eax,0x18
    79c9:	shl    r11d,0x10
    79cd:	xor    eax,r11d
    79d0:	movzx  r11d,BYTE PTR [rdi+0x1b]
    79d5:	xor    eax,r11d
    79d8:	movzx  r11d,BYTE PTR [rdi+0x1a]
    79dd:	shl    r11d,0x8
    79e1:	xor    eax,r11d
    79e4:	mov    DWORD PTR [rdx+0x18],eax
    79e7:	movzx  ebx,BYTE PTR [rdi+0x1c]
    79eb:	movzx  eax,BYTE PTR [rdi+0x1d]
    79ef:	shl    ebx,0x18
    79f2:	shl    eax,0x10
    79f5:	xor    ebx,eax
    79f7:	movzx  eax,BYTE PTR [rdi+0x1f]
    79fb:	xor    ebx,eax
    79fd:	movzx  eax,BYTE PTR [rdi+0x1e]
    7a01:	shl    eax,0x8
    7a04:	xor    ebx,eax
    7a06:	mov    DWORD PTR [rdx+0x1c],ebx
    7a09:	cmp    esi,0x100
    7a0f:	je     7ba0 <AES_set_encrypt_key+0x320>
    7a15:	pop    rbx
    7a16:	xor    eax,eax
    7a18:	pop    rbp
    7a19:	pop    r12
    7a1b:	pop    r14
    7a1d:	ret
    7a1e:	xchg   ax,ax
    7a20:	cmp    esi,0x100
    7a26:	jne    7c9f <AES_set_encrypt_key+0x41f>
    7a2c:	mov    DWORD PTR [rdx+0xf0],0xe
    7a36:	jmp    78b8 <AES_set_encrypt_key+0x38>
    7a3b:	nop    DWORD PTR [rax+rax*1+0x0]
    7a40:	cmp    esi,0xc0
    7a46:	jne    7a2c <AES_set_encrypt_key+0x1ac>
    7a48:	mov    DWORD PTR [rdx+0xf0],0xc
    7a52:	jmp    78b8 <AES_set_encrypt_key+0x38>
    7a57:	nop    WORD PTR [rax+rax*1+0x0]
    7a60:	lea    rdi,[rip+0x164fd]        # 1df64 <rcon+0x4>
    7a67:	add    rdx,0x10
    7a6b:	mov    r11d,0x1000000
    7a71:	lea    rbx,[rdi+0x24]
    7a75:	lea    rsi,[rip+0x17924]        # 1f3a0 <Te4>
    7a7c:	jmp    7a8b <AES_set_encrypt_key+0x20b>
    7a7e:	xchg   ax,ax
    7a80:	mov    r11d,DWORD PTR [rdi]
    7a83:	add    rdx,0x10
    7a87:	add    rdi,0x4
    7a8b:	movzx  eax,cl
    7a8e:	mov    ebp,ecx
    7a90:	mov    eax,DWORD PTR [rsi+rax*4]
    7a93:	shr    ebp,0x18
    7a96:	movzx  ebp,BYTE PTR [rsi+rbp*4]
    7a9a:	and    eax,0xff00
    7a9f:	or     eax,ebp
    7aa1:	mov    ebp,ecx
    7aa3:	shr    ebp,0x10
    7aa6:	movzx  ebp,bpl
    7aaa:	mov    ebp,DWORD PTR [rsi+rbp*4]
    7aad:	and    ebp,0xff000000
    7ab3:	xor    eax,ebp
    7ab5:	movzx  ebp,ch
    7ab8:	mov    ebp,DWORD PTR [rsi+rbp*4]
    7abb:	and    ebp,0xff0000
    7ac1:	xor    eax,ebp
    7ac3:	xor    eax,r8d
    7ac6:	xor    eax,r11d
    7ac9:	xor    r9d,eax
    7acc:	mov    r8d,eax
    7acf:	mov    DWORD PTR [rdx],eax
    7ad1:	xor    r10d,r9d
    7ad4:	mov    DWORD PTR [rdx+0x4],r9d
    7ad8:	xor    ecx,r10d
    7adb:	mov    DWORD PTR [rdx+0x8],r10d
    7adf:	mov    DWORD PTR [rdx+0xc],ecx
    7ae2:	cmp    rbx,rdi
    7ae5:	jne    7a80 <AES_set_encrypt_key+0x200>
    7ae7:	pop    rbx
    7ae8:	xor    eax,eax
    7aea:	pop    rbp
    7aeb:	pop    r12
    7aed:	pop    r14
    7aef:	ret
    7af0:	lea    rdi,[rip+0x16469]        # 1df60 <rcon>
    7af7:	add    rdx,0x18
    7afb:	mov    r11d,0x1000000
    7b01:	lea    r14,[rdi+0x20]
    7b05:	lea    rsi,[rip+0x17894]        # 1f3a0 <Te4>
    7b0c:	jmp    7b24 <AES_set_encrypt_key+0x2a4>
    7b0e:	xchg   ax,ax
    7b10:	mov    eax,DWORD PTR [rdx-0x8]
    7b13:	add    rdx,0x18
    7b17:	xor    eax,ecx
    7b19:	xor    ebx,eax
    7b1b:	mov    DWORD PTR [rdx-0x8],eax
    7b1e:	mov    DWORD PTR [rdx-0x4],ebx
    7b21:	mov    r11d,DWORD PTR [rdi]
    7b24:	movzx  eax,bl
    7b27:	mov    r12d,ebx
    7b2a:	movzx  ebp,bh
    7b2d:	add    rdi,0x4
    7b31:	mov    eax,DWORD PTR [rsi+rax*4]
    7b34:	shr    r12d,0x18
    7b38:	movzx  r12d,BYTE PTR [rsi+r12*4]
    7b3d:	and    eax,0xff00
    7b42:	or     eax,r12d
    7b45:	mov    r12d,ebx
    7b48:	shr    r12d,0x10
    7b4c:	movzx  r12d,r12b
    7b50:	mov    r12d,DWORD PTR [rsi+r12*4]
    7b54:	and    r12d,0xff000000
    7b5b:	xor    eax,r12d
    7b5e:	mov    r12d,DWORD PTR [rsi+rbp*4]
    7b62:	and    r12d,0xff0000
    7b69:	xor    eax,r12d
    7b6c:	xor    eax,r8d
    7b6f:	xor    eax,r11d
    7b72:	xor    r9d,eax
    7b75:	mov    r8d,eax
    7b78:	mov    DWORD PTR [rdx],eax
    7b7a:	xor    r10d,r9d
    7b7d:	mov    DWORD PTR [rdx+0x4],r9d
    7b81:	xor    ecx,r10d
    7b84:	mov    DWORD PTR [rdx+0x8],r10d
    7b88:	mov    DWORD PTR [rdx+0xc],ecx
    7b8b:	cmp    r14,rdi
    7b8e:	jne    7b10 <AES_set_encrypt_key+0x290>
    7b90:	pop    rbx
    7b91:	xor    eax,eax
    7b93:	pop    rbp
    7b94:	pop    r12
    7b96:	pop    r14
    7b98:	ret
    7b99:	nop    DWORD PTR [rax+0x0]
    7ba0:	lea    rdi,[rip+0x163b9]        # 1df60 <rcon>
    7ba7:	add    rdx,0x20
    7bab:	mov    r11d,0x1000000
    7bb1:	lea    r14,[rdi+0x1c]
    7bb5:	lea    rsi,[rip+0x177e4]        # 1f3a0 <Te4>
    7bbc:	jmp    7c20 <AES_set_encrypt_key+0x3a0>
    7bbe:	xchg   ax,ax
    7bc0:	mov    eax,ecx
    7bc2:	movzx  ebp,ch
    7bc5:	movzx  r12d,cl
    7bc9:	add    rdx,0x20
    7bcd:	shr    eax,0x10
    7bd0:	mov    r11d,DWORD PTR [rsi+rbp*4]
    7bd4:	movzx  r12d,BYTE PTR [rsi+r12*4]
    7bd9:	movzx  eax,al
    7bdc:	mov    eax,DWORD PTR [rsi+rax*4]
    7bdf:	and    r11d,0xff00
    7be6:	and    eax,0xff0000
    7beb:	or     eax,r11d
    7bee:	mov    r11d,ecx
    7bf1:	xor    eax,DWORD PTR [rdx-0x30]
    7bf4:	shr    r11d,0x18
    7bf8:	mov    r11d,DWORD PTR [rsi+r11*4]
    7bfc:	and    r11d,0xff000000
    7c03:	or     r11d,r12d
    7c06:	xor    eax,r11d
    7c09:	mov    DWORD PTR [rdx-0x10],eax
    7c0c:	xor    eax,DWORD PTR [rdx-0x2c]
    7c0f:	mov    DWORD PTR [rdx-0xc],eax
    7c12:	xor    eax,DWORD PTR [rdx-0x28]
    7c15:	xor    ebx,eax
    7c17:	mov    DWORD PTR [rdx-0x8],eax
    7c1a:	mov    DWORD PTR [rdx-0x4],ebx
    7c1d:	mov    r11d,DWORD PTR [rdi]
    7c20:	movzx  eax,bl
    7c23:	mov    r12d,ebx
    7c26:	movzx  ebp,bh
    7c29:	add    rdi,0x4
    7c2d:	mov    eax,DWORD PTR [rsi+rax*4]
    7c30:	shr    r12d,0x18
    7c34:	movzx  r12d,BYTE PTR [rsi+r12*4]
    7c39:	and    eax,0xff00
    7c3e:	or     eax,r12d
    7c41:	mov    r12d,ebx
    7c44:	shr    r12d,0x10
    7c48:	movzx  r12d,r12b
    7c4c:	mov    r12d,DWORD PTR [rsi+r12*4]
    7c50:	and    r12d,0xff000000
    7c57:	xor    eax,r12d
    7c5a:	mov    r12d,DWORD PTR [rsi+rbp*4]
    7c5e:	and    r12d,0xff0000
    7c65:	xor    eax,r12d
    7c68:	xor    eax,r8d
    7c6b:	xor    eax,r11d
    7c6e:	xor    r9d,eax
    7c71:	mov    r8d,eax
    7c74:	mov    DWORD PTR [rdx],eax
    7c76:	xor    r10d,r9d
    7c79:	mov    DWORD PTR [rdx+0x4],r9d
    7c7d:	xor    ecx,r10d
    7c80:	mov    DWORD PTR [rdx+0x8],r10d
    7c84:	mov    DWORD PTR [rdx+0xc],ecx
    7c87:	cmp    r14,rdi
    7c8a:	jne    7bc0 <AES_set_encrypt_key+0x340>
    7c90:	pop    rbx
    7c91:	xor    eax,eax
    7c93:	pop    rbp
    7c94:	pop    r12
    7c96:	pop    r14
    7c98:	ret
    7c99:	mov    eax,0xffffffff
    7c9e:	ret
    7c9f:	mov    eax,0xfffffffe
    7ca4:	ret
    7ca5:	data16 nop WORD PTR cs:[rax+rax*1+0x0]

0000000000007cb0 <AES_set_decrypt_key>:
    7cb0:	push   r14
    7cb2:	mov    r14,rdx
    7cb5:	push   rbp
    7cb6:	push   rbx
    7cb7:	call   7880 <AES_set_encrypt_key>
    7cbc:	test   eax,eax
    7cbe:	js     7e91 <AES_set_decrypt_key+0x1e1>
    7cc4:	mov    eax,DWORD PTR [r14+0xf0]
    7ccb:	mov    rdx,r14
    7cce:	lea    r9d,[rax*4+0x0]
    7cd6:	test   r9d,r9d
    7cd9:	jle    7d41 <AES_set_decrypt_key+0x91>
    7cdb:	movsxd rax,r9d
    7cde:	mov    rcx,r14
    7ce1:	xor    esi,esi
    7ce3:	lea    rax,[r14+rax*4]
    7ce7:	nop    WORD PTR [rax+rax*1+0x0]
    7cf0:	mov    edi,DWORD PTR [rcx]
    7cf2:	mov    r8d,DWORD PTR [rax]
    7cf5:	add    esi,0x4
    7cf8:	add    rcx,0x10
    7cfc:	sub    rax,0x10
    7d00:	mov    DWORD PTR [rcx-0x10],r8d
    7d04:	mov    r8d,DWORD PTR [rax+0x14]
    7d08:	mov    DWORD PTR [rax+0x10],edi
    7d0b:	mov    edi,DWORD PTR [rcx-0xc]
    7d0e:	mov    DWORD PTR [rcx-0xc],r8d
    7d12:	mov    r8d,DWORD PTR [rax+0x18]
    7d16:	mov    DWORD PTR [rax+0x14],edi
    7d19:	mov    edi,DWORD PTR [rcx-0x8]
    7d1c:	mov    DWORD PTR [rcx-0x8],r8d
    7d20:	mov    r8d,DWORD PTR [rax+0x1c]
    7d24:	mov    DWORD PTR [rax+0x18],edi
    7d27:	mov    edi,DWORD PTR [rcx-0x4]
    7d2a:	mov    DWORD PTR [rcx-0x4],r8d
    7d2e:	mov    DWORD PTR [rax+0x1c],edi
    7d31:	mov    edi,r9d
    7d34:	sub    edi,esi
    7d36:	cmp    esi,edi
    7d38:	jl     7cf0 <AES_set_decrypt_key+0x40>
    7d3a:	mov    eax,DWORD PTR [r14+0xf0]
    7d41:	cmp    eax,0x1
    7d44:	jle    7e8f <AES_set_decrypt_key+0x1df>
    7d4a:	mov    r10d,0x1
    7d50:	lea    r9,[rip+0x17249]        # 1efa0 <Td0>
    7d57:	lea    rax,[rip+0x17642]        # 1f3a0 <Te4>
    7d5e:	lea    r8,[rip+0x1663b]        # 1e3a0 <Td3>
    7d65:	lea    rdi,[rip+0x16e34]        # 1eba0 <Td1>
    7d6c:	lea    rsi,[rip+0x16a2d]        # 1e7a0 <Td2>
    7d73:	nop    DWORD PTR [rax+rax*1+0x0]
    7d78:	add    rdx,0x10
    7d7c:	mov    r11d,DWORD PTR [rdx]
    7d7f:	add    r10d,0x1
    7d83:	mov    ecx,r11d
    7d86:	movzx  ebp,r11b
    7d8a:	mov    ebx,r11d
    7d8d:	shr    ecx,0x18
    7d90:	movzx  ebp,BYTE PTR [rax+rbp*4]
    7d94:	movzx  ebx,bh
    7d97:	movzx  ecx,BYTE PTR [rax+rcx*4]
    7d9b:	mov    ecx,DWORD PTR [r9+rcx*4]
    7d9f:	xor    ecx,DWORD PTR [r8+rbp*4]
    7da3:	mov    ebp,r11d
    7da6:	shr    ebp,0x10
    7da9:	movzx  r11d,BYTE PTR [rax+rbx*4]
    7dae:	movzx  ebp,bpl
    7db2:	movzx  ebp,BYTE PTR [rax+rbp*4]
    7db6:	xor    ecx,DWORD PTR [rdi+rbp*4]
    7db9:	xor    ecx,DWORD PTR [rsi+r11*4]
    7dbd:	mov    r11d,DWORD PTR [rdx+0x4]
    7dc1:	mov    DWORD PTR [rdx],ecx
    7dc3:	mov    ecx,r11d
    7dc6:	movzx  ebp,r11b
    7dca:	mov    ebx,r11d
    7dcd:	shr    ecx,0x18
    7dd0:	movzx  ebp,BYTE PTR [rax+rbp*4]
    7dd4:	movzx  ebx,bh
    7dd7:	movzx  ecx,BYTE PTR [rax+rcx*4]
    7ddb:	mov    ecx,DWORD PTR [r9+rcx*4]
    7ddf:	xor    ecx,DWORD PTR [r8+rbp*4]
    7de3:	mov    ebp,r11d
    7de6:	shr    ebp,0x10
    7de9:	movzx  r11d,BYTE PTR [rax+rbx*4]
    7dee:	movzx  ebp,bpl
    7df2:	movzx  ebp,BYTE PTR [rax+rbp*4]
    7df6:	xor    ecx,DWORD PTR [rdi+rbp*4]
    7df9:	xor    ecx,DWORD PTR [rsi+r11*4]
    7dfd:	mov    r11d,DWORD PTR [rdx+0x8]
    7e01:	mov    DWORD PTR [rdx+0x4],ecx
    7e04:	mov    ecx,r11d
    7e07:	movzx  ebp,r11b
    7e0b:	mov    ebx,r11d
    7e0e:	shr    ecx,0x18
    7e11:	movzx  ebp,BYTE PTR [rax+rbp*4]
    7e15:	movzx  ebx,bh
    7e18:	movzx  ecx,BYTE PTR [rax+rcx*4]
    7e1c:	mov    ecx,DWORD PTR [r9+rcx*4]
    7e20:	xor    ecx,DWORD PTR [r8+rbp*4]
    7e24:	mov    ebp,r11d
    7e27:	shr    ebp,0x10
    7e2a:	movzx  r11d,BYTE PTR [rax+rbx*4]
    7e2f:	movzx  ebp,bpl
    7e33:	movzx  ebp,BYTE PTR [rax+rbp*4]
    7e37:	xor    ecx,DWORD PTR [rdi+rbp*4]
    7e3a:	xor    ecx,DWORD PTR [rsi+r11*4]
    7e3e:	mov    r11d,DWORD PTR [rdx+0xc]
    7e42:	mov    DWORD PTR [rdx+0x8],ecx
    7e45:	mov    ecx,r11d
    7e48:	movzx  ebp,r11b
    7e4c:	mov    ebx,r11d
    7e4f:	shr    ecx,0x18
    7e52:	movzx  ebx,bh
    7e55:	movzx  ecx,BYTE PTR [rax+rcx*4]
    7e59:	movzx  ebp,BYTE PTR [rax+rbp*4]
    7e5d:	mov    ecx,DWORD PTR [r9+rcx*4]
    7e61:	xor    ecx,DWORD PTR [r8+rbp*4]
    7e65:	mov    ebp,r11d
    7e68:	shr    ebp,0x10
    7e6b:	movzx  r11d,BYTE PTR [rax+rbx*4]
    7e70:	movzx  ebp,bpl
    7e74:	movzx  ebp,BYTE PTR [rax+rbp*4]
    7e78:	xor    ecx,DWORD PTR [rdi+rbp*4]
    7e7b:	xor    ecx,DWORD PTR [rsi+r11*4]
    7e7f:	mov    DWORD PTR [rdx+0xc],ecx
    7e82:	cmp    DWORD PTR [r14+0xf0],r10d
    7e89:	jg     7d78 <AES_set_decrypt_key+0xc8>
    7e8f:	xor    eax,eax
    7e91:	pop    rbx
    7e92:	pop    rbp
    7e93:	pop    r14
    7e95:	ret
    7e96:	nop    WORD PTR cs:[rax+rax*1+0x0]

0000000000007ea0 <AES_encrypt>:
    7ea0:	push   r15
    7ea2:	lea    r11,[rip+0x184f7]        # 203a0 <Te0>
    7ea9:	lea    r10,[rip+0x178f0]        # 1f7a0 <Te3>
    7eb0:	push   r14
    7eb2:	lea    r9,[rip+0x180e7]        # 1ffa0 <Te1>
    7eb9:	lea    r8,[rip+0x17ce0]        # 1fba0 <Te2>
    7ec0:	push   r13
    7ec2:	push   r12
    7ec4:	push   rbp
    7ec5:	push   rbx
    7ec6:	mov    rbx,rdx
    7ec9:	movzx  eax,BYTE PTR [rdi]
    7ecc:	movzx  ebp,BYTE PTR [rdi+0x4]
    7ed0:	movzx  r12d,BYTE PTR [rdi+0x8]
    7ed5:	shl    eax,0x18
    7ed8:	mov    QWORD PTR [rsp-0x18],rdx
    7edd:	movzx  edx,BYTE PTR [rdi+0x1]
    7ee1:	shl    ebp,0x18
    7ee4:	shl    r12d,0x18
    7ee8:	mov    QWORD PTR [rsp-0x10],rsi
    7eed:	movzx  esi,BYTE PTR [rdi+0xc]
    7ef1:	shl    edx,0x10
    7ef4:	xor    eax,edx
    7ef6:	movzx  edx,BYTE PTR [rdi+0x3]
    7efa:	shl    esi,0x18
    7efd:	xor    eax,edx
    7eff:	movzx  edx,BYTE PTR [rdi+0x2]
    7f03:	shl    edx,0x8
    7f06:	xor    eax,edx
    7f08:	movzx  edx,BYTE PTR [rdi+0x5]
    7f0c:	xor    eax,DWORD PTR [rbx]
    7f0e:	shl    edx,0x10
    7f11:	xor    ebp,edx
    7f13:	movzx  edx,BYTE PTR [rdi+0x7]
    7f17:	xor    ebp,edx
    7f19:	movzx  edx,BYTE PTR [rdi+0x6]
    7f1d:	shl    edx,0x8
    7f20:	xor    ebp,edx
    7f22:	movzx  edx,BYTE PTR [rdi+0x9]
    7f26:	xor    ebp,DWORD PTR [rbx+0x4]
    7f29:	shl    edx,0x10
    7f2c:	xor    r12d,edx
    7f2f:	movzx  edx,BYTE PTR [rdi+0xb]
    7f33:	xor    r12d,edx
    7f36:	movzx  edx,BYTE PTR [rdi+0xa]
    7f3a:	shl    edx,0x8
    7f3d:	xor    r12d,edx
    7f40:	movzx  edx,BYTE PTR [rdi+0xd]
    7f44:	xor    r12d,DWORD PTR [rbx+0x8]
    7f48:	shl    edx,0x10
    7f4b:	xor    esi,edx
    7f4d:	movzx  edx,BYTE PTR [rdi+0xf]
    7f51:	xor    esi,edx
    7f53:	movzx  edx,BYTE PTR [rdi+0xe]
    7f57:	mov    rdi,rbx
    7f5a:	shl    edx,0x8
    7f5d:	xor    esi,edx
    7f5f:	xor    esi,DWORD PTR [rbx+0xc]
    7f62:	mov    ebx,DWORD PTR [rbx+0xf0]
    7f68:	mov    edx,ebx
    7f6a:	mov    DWORD PTR [rsp-0x40],ebx
    7f6e:	sar    edx,1
    7f70:	sub    edx,0x1
    7f73:	mov    DWORD PTR [rsp-0x4],edx
    7f77:	add    rdx,0x1
    7f7b:	shl    rdx,0x5
    7f7f:	add    rdx,rdi
    7f82:	mov    QWORD PTR [rsp-0x20],rdx
    7f87:	jmp    8006 <AES_encrypt+0x166>
    7f89:	nop    DWORD PTR [rax+0x0]
    7f90:	mov    edx,DWORD PTR [rsp-0x3c]
    7f94:	mov    eax,DWORD PTR [r11+r12*4]
    7f98:	mov    esi,esi
    7f9a:	mov    ebx,ebx
    7f9c:	xor    eax,DWORD PTR [r10+r13*4]
    7fa0:	xor    eax,r14d
    7fa3:	xor    eax,DWORD PTR [r9+rbp*4]
    7fa7:	mov    ebp,DWORD PTR [r11+rdx*4]
    7fab:	xor    eax,DWORD PTR [r8+rsi*4]
    7faf:	mov    edx,DWORD PTR [rsp-0x38]
    7fb3:	mov    esi,DWORD PTR [rsp-0x30]
    7fb7:	xor    ebp,DWORD PTR [r10+rsi*4]
    7fbb:	xor    ebp,DWORD PTR [rdi+0x4]
    7fbe:	xor    ebp,DWORD PTR [r9+rdx*4]
    7fc2:	mov    edx,DWORD PTR [rsp-0x34]
    7fc6:	xor    ebp,DWORD PTR [r8+rdx*4]
    7fca:	mov    edx,DWORD PTR [rsp-0x2c]
    7fce:	mov    r12d,DWORD PTR [r11+rdx*4]
    7fd2:	mov    edx,DWORD PTR [rsp-0x24]
    7fd6:	xor    r12d,DWORD PTR [r10+r15*4]
    7fda:	mov    r15d,DWORD PTR [rsp-0x28]
    7fdf:	xor    r12d,DWORD PTR [rdi+0x8]
    7fe3:	xor    r12d,DWORD PTR [r9+r15*4]
    7fe7:	xor    r12d,DWORD PTR [r8+rdx*4]
    7feb:	mov    edx,DWORD PTR [rsp-0x8]
    7fef:	mov    esi,DWORD PTR [r11+rdx*4]
    7ff3:	mov    edx,DWORD PTR [rsp-0x40]
    7ff7:	xor    esi,DWORD PTR [r10+rcx*4]
    7ffb:	xor    esi,DWORD PTR [rdi+0xc]
    7ffe:	xor    esi,DWORD PTR [r9+rdx*4]
    8002:	xor    esi,DWORD PTR [r8+rbx*4]
    8006:	mov    edx,eax
    8008:	movzx  ecx,sil
    800c:	mov    ebx,r12d
    800f:	movzx  r13d,al
    8013:	shr    edx,0x18
    8016:	add    rdi,0x20
    801a:	mov    edx,DWORD PTR [r11+rdx*4]
    801e:	xor    edx,DWORD PTR [r10+rcx*4]
    8022:	mov    ecx,ebp
    8024:	shr    ecx,0x10
    8027:	xor    edx,DWORD PTR [rdi-0x10]
    802a:	movzx  ecx,cl
    802d:	xor    edx,DWORD PTR [r9+rcx*4]
    8031:	movzx  ecx,bh
    8034:	xor    edx,DWORD PTR [r8+rcx*4]
    8038:	mov    ecx,ebp
    803a:	shr    ecx,0x18
    803d:	mov    r14d,edx
    8040:	movzx  edx,ah
    8043:	shr    eax,0x10
    8046:	mov    ebx,DWORD PTR [r11+rcx*4]
    804a:	mov    ecx,r12d
    804d:	xor    ebx,DWORD PTR [r10+r13*4]
    8051:	movzx  r13d,bpl
    8055:	shr    ecx,0x10
    8058:	xor    ebx,DWORD PTR [rdi-0xc]
    805b:	mov    DWORD PTR [rsp-0x40],r14d
    8060:	movzx  eax,al
    8063:	movzx  ecx,cl
    8066:	xor    ebx,DWORD PTR [r9+rcx*4]
    806a:	mov    ecx,esi
    806c:	movzx  ecx,ch
    806f:	xor    ebx,DWORD PTR [r8+rcx*4]
    8073:	mov    ecx,r12d
    8076:	movzx  r12d,r12b
    807a:	shr    ecx,0x18
    807d:	mov    ecx,DWORD PTR [r11+rcx*4]
    8081:	xor    ecx,DWORD PTR [r10+r13*4]
    8085:	mov    r13d,esi
    8088:	shr    esi,0x18
    808b:	shr    r13d,0x10
    808f:	xor    ecx,DWORD PTR [rdi-0x8]
    8092:	mov    esi,DWORD PTR [r11+rsi*4]
    8096:	movzx  r13d,r13b
    809a:	xor    esi,DWORD PTR [r10+r12*4]
    809e:	xor    esi,DWORD PTR [rdi-0x4]
    80a1:	mov    r12d,r14d
    80a4:	xor    ecx,DWORD PTR [r9+r13*4]
    80a8:	xor    ecx,DWORD PTR [r8+rdx*4]
    80ac:	mov    edx,ebp
    80ae:	mov    ebp,ebx
    80b0:	mov    r15d,ecx
    80b3:	xor    esi,DWORD PTR [r9+rax*4]
    80b7:	mov    r14d,DWORD PTR [rdi]
    80ba:	shr    ebp,0x10
    80bd:	shr    r15d,0x10
    80c1:	mov    eax,esi
    80c3:	movzx  esi,dh
    80c6:	mov    edx,ebx
    80c8:	movzx  r15d,r15b
    80cc:	xor    eax,DWORD PTR [r8+rsi*4]
    80d0:	shr    edx,0x18
    80d3:	movzx  esi,ch
    80d6:	mov    DWORD PTR [rsp-0x3c],edx
    80da:	movzx  edx,ah
    80dd:	movzx  r13d,al
    80e1:	shr    r12d,0x18
    80e5:	mov    DWORD PTR [rsp-0x38],r15d
    80ea:	movzx  r15d,BYTE PTR [rsp-0x40]
    80f0:	movzx  ebp,bpl
    80f4:	mov    DWORD PTR [rsp-0x34],edx
    80f8:	mov    DWORD PTR [rsp-0x30],r15d
    80fd:	mov    r15d,ecx
    8100:	movzx  ecx,cl
    8103:	shr    r15d,0x18
    8107:	mov    DWORD PTR [rsp-0x2c],r15d
    810c:	mov    r15d,eax
    810f:	shr    eax,0x18
    8112:	shr    r15d,0x10
    8116:	mov    DWORD PTR [rsp-0x8],eax
    811a:	movzx  edx,r15b
    811e:	movzx  r15d,bl
    8122:	movzx  ebx,bh
    8125:	mov    DWORD PTR [rsp-0x28],edx
    8129:	mov    edx,DWORD PTR [rsp-0x40]
    812d:	movzx  edx,dh
    8130:	mov    DWORD PTR [rsp-0x24],edx
    8134:	mov    edx,DWORD PTR [rsp-0x40]
    8138:	shr    edx,0x10
    813b:	movzx  eax,dl
    813e:	mov    DWORD PTR [rsp-0x40],eax
    8142:	cmp    rdi,QWORD PTR [rsp-0x20]
    8147:	jne    7f90 <AES_encrypt+0xf0>
    814d:	mov    edx,DWORD PTR [rsp-0x4]
    8151:	mov    r8,QWORD PTR [rsp-0x18]
    8156:	mov    eax,r14d
    8159:	mov    r14d,esi
    815c:	lea    rdi,[rip+0x1723d]        # 1f3a0 <Te4>
    8163:	mov    r9,QWORD PTR [rsp-0x10]
    8168:	mov    ebx,ebx
    816a:	add    rdx,0x1
    816e:	movzx  esi,BYTE PTR [rdi+r13*4]
    8173:	shl    rdx,0x5
    8177:	add    r8,rdx
    817a:	mov    edx,DWORD PTR [rdi+r14*4]
    817e:	and    edx,0xff00
    8184:	or     edx,esi
    8186:	mov    esi,edx
    8188:	mov    edx,DWORD PTR [rdi+rbp*4]
    818b:	xor    esi,eax
    818d:	mov    eax,DWORD PTR [rdi+r12*4]
    8191:	and    edx,0xff0000
    8197:	and    eax,0xff000000
    819c:	or     eax,edx
    819e:	xor    eax,esi
    81a0:	bswap  eax
    81a2:	mov    DWORD PTR [r9],eax
    81a5:	mov    eax,DWORD PTR [rsp-0x34]
    81a9:	mov    edx,DWORD PTR [rdi+rax*4]
    81ac:	mov    eax,DWORD PTR [rsp-0x30]
    81b0:	movzx  eax,BYTE PTR [rdi+rax*4]
    81b4:	and    edx,0xff00
    81ba:	or     edx,eax
    81bc:	mov    eax,DWORD PTR [rsp-0x3c]
    81c0:	xor    edx,DWORD PTR [r8+0x4]
    81c4:	mov    eax,DWORD PTR [rdi+rax*4]
    81c7:	and    eax,0xff000000
    81cc:	mov    esi,eax
    81ce:	mov    eax,DWORD PTR [rsp-0x38]
    81d2:	mov    eax,DWORD PTR [rdi+rax*4]
    81d5:	and    eax,0xff0000
    81da:	or     eax,esi
    81dc:	xor    edx,eax
    81de:	mov    eax,DWORD PTR [rsp-0x24]
    81e2:	bswap  edx
    81e4:	mov    DWORD PTR [r9+0x4],edx
    81e8:	movzx  edx,BYTE PTR [rdi+r15*4]
    81ed:	mov    eax,DWORD PTR [rdi+rax*4]
    81f0:	mov    r15d,DWORD PTR [rsp-0x28]
    81f5:	and    eax,0xff00
    81fa:	mov    esi,DWORD PTR [rdi+r15*4]
    81fe:	or     eax,edx
    8200:	xor    eax,DWORD PTR [r8+0x8]
    8204:	mov    edx,eax
    8206:	mov    eax,DWORD PTR [rsp-0x2c]
    820a:	and    esi,0xff0000
    8210:	mov    eax,DWORD PTR [rdi+rax*4]
    8213:	and    eax,0xff000000
    8218:	or     eax,esi
    821a:	mov    esi,DWORD PTR [rsp-0x8]
    821e:	xor    eax,edx
    8220:	movzx  edx,BYTE PTR [rdi+rcx*4]
    8224:	bswap  eax
    8226:	mov    DWORD PTR [r9+0x8],eax
    822a:	mov    eax,DWORD PTR [rdi+rbx*4]
    822d:	and    eax,0xff00
    8232:	or     eax,edx
    8234:	mov    edx,DWORD PTR [rdi+rsi*4]
    8237:	xor    eax,DWORD PTR [r8+0xc]
    823b:	mov    ecx,edx
    823d:	mov    edx,DWORD PTR [rsp-0x40]
    8241:	and    ecx,0xff000000
    8247:	mov    edx,DWORD PTR [rdi+rdx*4]
    824a:	and    edx,0xff0000
    8250:	or     edx,ecx
    8252:	xor    eax,edx
    8254:	bswap  eax
    8256:	mov    DWORD PTR [r9+0xc],eax
    825a:	pop    rbx
    825b:	pop    rbp
    825c:	pop    r12
    825e:	pop    r13
    8260:	pop    r14
    8262:	pop    r15
    8264:	ret
    8265:	data16 nop WORD PTR cs:[rax+rax*1+0x0]

0000000000008270 <AES_decrypt>:
    8270:	push   r15
    8272:	lea    r11,[rip+0x16d27]        # 1efa0 <Td0>
    8279:	lea    r10,[rip+0x16120]        # 1e3a0 <Td3>
    8280:	push   r14
    8282:	lea    r9,[rip+0x16917]        # 1eba0 <Td1>
    8289:	lea    r8,[rip+0x16510]        # 1e7a0 <Td2>
    8290:	push   r13
    8292:	push   r12
    8294:	push   rbp
    8295:	push   rbx
    8296:	mov    rbx,rdx
    8299:	movzx  eax,BYTE PTR [rdi]
    829c:	movzx  ebp,BYTE PTR [rdi+0x4]
    82a0:	movzx  r12d,BYTE PTR [rdi+0x8]
    82a5:	shl    eax,0x18
    82a8:	mov    QWORD PTR [rsp-0x18],rdx
    82ad:	movzx  edx,BYTE PTR [rdi+0x1]
    82b1:	shl    ebp,0x18
    82b4:	shl    r12d,0x18
    82b8:	mov    QWORD PTR [rsp-0x10],rsi
    82bd:	movzx  esi,BYTE PTR [rdi+0xc]
    82c1:	shl    edx,0x10
    82c4:	xor    eax,edx
    82c6:	movzx  edx,BYTE PTR [rdi+0x3]
    82ca:	shl    esi,0x18
    82cd:	xor    eax,edx
    82cf:	movzx  edx,BYTE PTR [rdi+0x2]
    82d3:	shl    edx,0x8
    82d6:	xor    eax,edx
    82d8:	movzx  edx,BYTE PTR [rdi+0x5]
    82dc:	xor    eax,DWORD PTR [rbx]
    82de:	shl    edx,0x10
    82e1:	xor    ebp,edx
    82e3:	movzx  edx,BYTE PTR [rdi+0x7]
    82e7:	xor    ebp,edx
    82e9:	movzx  edx,BYTE PTR [rdi+0x6]
    82ed:	shl    edx,0x8
    82f0:	xor    ebp,edx
    82f2:	movzx  edx,BYTE PTR [rdi+0x9]
    82f6:	xor    ebp,DWORD PTR [rbx+0x4]
    82f9:	shl    edx,0x10
    82fc:	xor    r12d,edx
    82ff:	movzx  edx,BYTE PTR [rdi+0xb]
    8303:	xor    r12d,edx
    8306:	movzx  edx,BYTE PTR [rdi+0xa]
    830a:	shl    edx,0x8
    830d:	xor    r12d,edx
    8310:	movzx  edx,BYTE PTR [rdi+0xd]
    8314:	xor    r12d,DWORD PTR [rbx+0x8]
    8318:	shl    edx,0x10
    831b:	xor    esi,edx
    831d:	movzx  edx,BYTE PTR [rdi+0xf]
    8321:	xor    esi,edx
    8323:	movzx  edx,BYTE PTR [rdi+0xe]
    8327:	mov    rdi,rbx
    832a:	shl    edx,0x8
    832d:	xor    esi,edx
    832f:	xor    esi,DWORD PTR [rbx+0xc]
    8332:	mov    ebx,DWORD PTR [rbx+0xf0]
    8338:	mov    edx,ebx
    833a:	mov    DWORD PTR [rsp-0x44],ebx
    833e:	sar    edx,1
    8340:	sub    edx,0x1
    8343:	mov    DWORD PTR [rsp-0x4],edx
    8347:	add    rdx,0x1
    834b:	shl    rdx,0x5
    834f:	add    rdx,rdi
    8352:	mov    QWORD PTR [rsp-0x20],rdx
    8357:	jmp    83d6 <AES_decrypt+0x166>
    8359:	nop    DWORD PTR [rax+0x0]
    8360:	mov    edx,DWORD PTR [rsp-0x40]
    8364:	mov    eax,DWORD PTR [r11+r12*4]
    8368:	mov    esi,esi
    836a:	mov    ebx,ebx
    836c:	xor    eax,DWORD PTR [r10+r13*4]
    8370:	xor    eax,r14d
    8373:	xor    eax,DWORD PTR [r9+rbp*4]
    8377:	mov    ebp,DWORD PTR [r11+rdx*4]
    837b:	xor    eax,DWORD PTR [r8+rsi*4]
    837f:	mov    edx,DWORD PTR [rsp-0x3c]
    8383:	mov    esi,DWORD PTR [rsp-0x34]
    8387:	xor    ebp,DWORD PTR [r10+rsi*4]
    838b:	xor    ebp,DWORD PTR [rdi+0x4]
    838e:	xor    ebp,DWORD PTR [r9+rdx*4]
    8392:	mov    edx,DWORD PTR [rsp-0x38]
    8396:	xor    ebp,DWORD PTR [r8+rdx*4]
    839a:	mov    edx,DWORD PTR [rsp-0x30]
    839e:	mov    r12d,DWORD PTR [r11+rdx*4]
    83a2:	mov    edx,DWORD PTR [rsp-0x28]
    83a6:	xor    r12d,DWORD PTR [r10+r15*4]
    83aa:	mov    r15d,DWORD PTR [rsp-0x2c]
    83af:	xor    r12d,DWORD PTR [rdi+0x8]
    83b3:	xor    r12d,DWORD PTR [r9+r15*4]
    83b7:	xor    r12d,DWORD PTR [r8+rdx*4]
    83bb:	mov    edx,DWORD PTR [rsp-0x24]
    83bf:	mov    esi,DWORD PTR [r11+rdx*4]
    83c3:	mov    edx,DWORD PTR [rsp-0x8]
    83c7:	xor    esi,DWORD PTR [r10+rcx*4]
    83cb:	xor    esi,DWORD PTR [rdi+0xc]
    83ce:	xor    esi,DWORD PTR [r9+rdx*4]
    83d2:	xor    esi,DWORD PTR [r8+rbx*4]
    83d6:	mov    edx,eax
    83d8:	movzx  ebx,bpl
    83dc:	movzx  r13d,r12b
    83e0:	movzx  r14d,al
    83e4:	shr    edx,0x18
    83e7:	add    rdi,0x20
    83eb:	mov    ecx,DWORD PTR [r11+rdx*4]
    83ef:	mov    edx,esi
    83f1:	xor    ecx,DWORD PTR [r10+rbx*4]
    83f5:	mov    ebx,r12d
    83f8:	shr    edx,0x10
    83fb:	xor    ecx,DWORD PTR [rdi-0x10]
    83fe:	movzx  edx,dl
    8401:	xor    ecx,DWORD PTR [r9+rdx*4]
    8405:	movzx  edx,bh
    8408:	xor    ecx,DWORD PTR [r8+rdx*4]
    840c:	mov    edx,ebp
    840e:	shr    edx,0x18
    8411:	mov    r15d,ecx
    8414:	movzx  ecx,ah
    8417:	mov    ebx,DWORD PTR [r11+rdx*4]
    841b:	mov    edx,eax
    841d:	xor    ebx,DWORD PTR [r10+r13*4]
    8421:	movzx  r13d,sil
    8425:	shr    edx,0x10
    8428:	xor    ebx,DWORD PTR [rdi-0xc]
    842b:	mov    DWORD PTR [rsp-0x44],r15d
    8430:	movzx  edx,dl
    8433:	xor    ebx,DWORD PTR [r9+rdx*4]
    8437:	mov    edx,esi
    8439:	shr    esi,0x18
    843c:	movzx  edx,dh
    843f:	mov    eax,DWORD PTR [r11+rsi*4]
    8443:	xor    eax,DWORD PTR [r10+r14*4]
    8447:	xor    ebx,DWORD PTR [r8+rdx*4]
    844b:	mov    edx,r12d
    844e:	shr    r12d,0x10
    8452:	xor    eax,DWORD PTR [rdi-0x4]
    8455:	shr    edx,0x18
    8458:	movzx  r12d,r12b
    845c:	mov    edx,DWORD PTR [r11+rdx*4]
    8460:	xor    edx,DWORD PTR [r10+r13*4]
    8464:	mov    r13d,ebp
    8467:	shr    r13d,0x10
    846b:	xor    eax,DWORD PTR [r9+r12*4]
    846f:	mov    r12d,r15d
    8472:	shr    r15d,0x10
    8476:	movzx  r13d,r13b
    847a:	xor    edx,DWORD PTR [rdi-0x8]
    847d:	movzx  r15d,r15b
    8481:	shr    r12d,0x18
    8485:	xor    edx,DWORD PTR [r9+r13*4]
    8489:	mov    r14d,DWORD PTR [rdi]
    848c:	mov    DWORD PTR [rsp-0x3c],r15d
    8491:	movzx  r13d,bl
    8495:	xor    edx,DWORD PTR [r8+rcx*4]
    8499:	mov    ecx,ebp
    849b:	movzx  r15d,dl
    849f:	movzx  esi,ch
    84a2:	mov    ecx,ebx
    84a4:	mov    DWORD PTR [rsp-0x34],r15d
    84a9:	mov    r15d,edx
    84ac:	xor    eax,DWORD PTR [r8+rsi*4]
    84b0:	shr    ecx,0x18
    84b3:	shr    r15d,0x18
    84b7:	mov    DWORD PTR [rsp-0x40],ecx
    84bb:	movzx  ecx,ah
    84be:	mov    ebp,eax
    84c0:	mov    DWORD PTR [rsp-0x30],r15d
    84c5:	mov    r15d,ebx
    84c8:	shr    ebp,0x10
    84cb:	movzx  esi,dh
    84ce:	shr    r15d,0x10
    84d2:	mov    DWORD PTR [rsp-0x38],ecx
    84d6:	movzx  ebp,bpl
    84da:	movzx  ebx,bh
    84dd:	movzx  ecx,r15b
    84e1:	movzx  r15d,al
    84e5:	shr    eax,0x18
    84e8:	mov    DWORD PTR [rsp-0x2c],ecx
    84ec:	mov    ecx,DWORD PTR [rsp-0x44]
    84f0:	shr    edx,0x10
    84f3:	mov    DWORD PTR [rsp-0x24],eax
    84f7:	movzx  eax,dl
    84fa:	movzx  ecx,ch
    84fd:	mov    DWORD PTR [rsp-0x8],eax
    8501:	mov    DWORD PTR [rsp-0x28],ecx
    8505:	movzx  ecx,BYTE PTR [rsp-0x44]
    850a:	cmp    rdi,QWORD PTR [rsp-0x20]
    850f:	jne    8360 <AES_decrypt+0xf0>
    8515:	mov    edx,DWORD PTR [rsp-0x4]
    8519:	mov    r8,QWORD PTR [rsp-0x18]
    851e:	mov    eax,r14d
    8521:	mov    r14d,esi
    8524:	lea    rdi,[rip+0x15a75]        # 1dfa0 <Td4>
    852b:	mov    r9,QWORD PTR [rsp-0x10]
    8530:	mov    ebx,ebx
    8532:	add    rdx,0x1
    8536:	movzx  esi,BYTE PTR [rdi+r13*4]
    853b:	shl    rdx,0x5
    853f:	add    r8,rdx
    8542:	mov    edx,DWORD PTR [rdi+r14*4]
    8546:	and    edx,0xff00
    854c:	or     edx,esi
    854e:	mov    esi,edx
    8550:	mov    edx,DWORD PTR [rdi+rbp*4]
    8553:	xor    esi,eax
    8555:	mov    eax,DWORD PTR [rdi+r12*4]
    8559:	and    edx,0xff0000
    855f:	and    eax,0xff000000
    8564:	or     eax,edx
    8566:	xor    eax,esi
    8568:	bswap  eax
    856a:	mov    DWORD PTR [r9],eax
    856d:	mov    eax,DWORD PTR [rsp-0x38]
    8571:	mov    edx,DWORD PTR [rdi+rax*4]
    8574:	mov    eax,DWORD PTR [rsp-0x34]
    8578:	movzx  eax,BYTE PTR [rdi+rax*4]
    857c:	and    edx,0xff00
    8582:	or     edx,eax
    8584:	mov    eax,DWORD PTR [rsp-0x40]
    8588:	xor    edx,DWORD PTR [r8+0x4]
    858c:	mov    eax,DWORD PTR [rdi+rax*4]
    858f:	and    eax,0xff000000
    8594:	mov    esi,eax
    8596:	mov    eax,DWORD PTR [rsp-0x3c]
    859a:	mov    eax,DWORD PTR [rdi+rax*4]
    859d:	and    eax,0xff0000
    85a2:	or     eax,esi
    85a4:	xor    edx,eax
    85a6:	mov    eax,DWORD PTR [rsp-0x28]
    85aa:	bswap  edx
    85ac:	mov    DWORD PTR [r9+0x4],edx
    85b0:	movzx  edx,BYTE PTR [rdi+r15*4]
    85b5:	mov    eax,DWORD PTR [rdi+rax*4]
    85b8:	mov    r15d,DWORD PTR [rsp-0x2c]
    85bd:	and    eax,0xff00
    85c2:	mov    esi,DWORD PTR [rdi+r15*4]
    85c6:	or     eax,edx
    85c8:	xor    eax,DWORD PTR [r8+0x8]
    85cc:	mov    edx,eax
    85ce:	mov    eax,DWORD PTR [rsp-0x30]
    85d2:	and    esi,0xff0000
    85d8:	mov    eax,DWORD PTR [rdi+rax*4]
    85db:	and    eax,0xff000000
    85e0:	or     eax,esi
    85e2:	mov    esi,DWORD PTR [rsp-0x24]
    85e6:	xor    eax,edx
    85e8:	movzx  edx,BYTE PTR [rdi+rcx*4]
    85ec:	bswap  eax
    85ee:	mov    DWORD PTR [r9+0x8],eax
    85f2:	mov    eax,DWORD PTR [rdi+rbx*4]
    85f5:	and    eax,0xff00
    85fa:	or     eax,edx
    85fc:	mov    edx,DWORD PTR [rdi+rsi*4]
    85ff:	xor    eax,DWORD PTR [r8+0xc]
    8603:	mov    ecx,edx
    8605:	mov    edx,DWORD PTR [rsp-0x8]
    8609:	and    ecx,0xff000000
    860f:	mov    edx,DWORD PTR [rdi+rdx*4]
    8612:	and    edx,0xff0000
    8618:	or     edx,ecx
    861a:	xor    eax,edx
    861c:	bswap  eax
    861e:	mov    DWORD PTR [r9+0xc],eax
    8622:	pop    rbx
    8623:	pop    rbp
    8624:	pop    r12
    8626:	pop    r13
    8628:	pop    r14
    862a:	pop    r15
    862c:	ret
    862d:	nop    DWORD PTR [rax]

0000000000008630 <AES_cbc_encrypt>:
    8630:	push   r15
    8632:	mov    r15,rdx
    8635:	push   r14
    8637:	mov    r14,r8
    863a:	push   r13
    863c:	push   r12
    863e:	push   rbp
    863f:	mov    rbp,rcx
    8642:	push   rbx
    8643:	mov    rbx,rsi
    8646:	sub    rsp,0x48
    864a:	mov    QWORD PTR [rsp+0x8],rdi
    864f:	mov    rax,QWORD PTR fs:0x28
    8658:	mov    QWORD PTR [rsp+0x38],rax
    865d:	xor    eax,eax
    865f:	test   r9d,r9d
    8662:	jne    8713 <AES_cbc_encrypt+0xe3>
    8668:	mov    r12,rsi
    866b:	cmp    rdx,0xf
    866f:	jbe    86e7 <AES_cbc_encrypt+0xb7>
    8671:	lea    rax,[rdx-0x10]
    8675:	mov    r13,QWORD PTR [rsp+0x8]
    867a:	and    rax,0xfffffffffffffff0
    867e:	add    rax,0x10
    8682:	mov    QWORD PTR [rsp+0x10],rax
    8687:	lea    r12,[rsi+rax*1]
    868b:	nop    DWORD PTR [rax+rax*1+0x0]
    8690:	movdqu xmm2,XMMWORD PTR [r13+0x0]
    8696:	mov    rdx,rbp
    8699:	mov    rsi,rbx
    869c:	mov    rdi,r13
    869f:	movaps XMMWORD PTR [rsp+0x20],xmm2
    86a4:	call   8270 <AES_decrypt>
    86a9:	xor    eax,eax
    86ab:	nop    DWORD PTR [rax+rax*1+0x0]
    86b0:	movzx  edx,BYTE PTR [r14+rax*1]
    86b5:	xor    BYTE PTR [rbx+rax*1],dl
    86b8:	add    rax,0x1
    86bc:	cmp    rax,0x10
    86c0:	jne    86b0 <AES_cbc_encrypt+0x80>
    86c2:	movdqa xmm3,XMMWORD PTR [rsp+0x20]
    86c8:	add    rbx,0x10
    86cc:	add    r13,0x10
    86d0:	movups XMMWORD PTR [r14],xmm3
    86d4:	cmp    rbx,r12
    86d7:	jne    8690 <AES_cbc_encrypt+0x60>
    86d9:	mov    rcx,QWORD PTR [rsp+0x10]
    86de:	add    QWORD PTR [rsp+0x8],rcx
    86e3:	and    r15d,0xf
    86e7:	test   r15,r15
    86ea:	jne    8801 <AES_cbc_encrypt+0x1d1>
    86f0:	mov    rax,QWORD PTR [rsp+0x38]
    86f5:	xor    rax,QWORD PTR fs:0x28
    86fe:	jne    8858 <AES_cbc_encrypt+0x228>
    8704:	add    rsp,0x48
    8708:	pop    rbx
    8709:	pop    rbp
    870a:	pop    r12
    870c:	pop    r13
    870e:	pop    r14
    8710:	pop    r15
    8712:	ret
    8713:	cmp    rdx,0xf
    8717:	jbe    884e <AES_cbc_encrypt+0x21e>
    871d:	lea    rax,[rdx-0x10]
    8721:	mov    r12,QWORD PTR [rsp+0x8]
    8726:	lea    r13,[rsp+0x20]
    872b:	and    rax,0xfffffffffffffff0
    872f:	add    rax,0x10
    8733:	mov    QWORD PTR [rsp+0x18],rax
    8738:	add    rax,rsi
    873b:	mov    QWORD PTR [rsp+0x10],rax
    8740:	xor    eax,eax
    8742:	nop    WORD PTR [rax+rax*1+0x0]
    8748:	movzx  edx,BYTE PTR [r12+rax*1]
    874d:	xor    dl,BYTE PTR [r14+rax*1]
    8751:	mov    BYTE PTR [r13+rax*1+0x0],dl
    8756:	add    rax,0x1
    875a:	cmp    rax,0x10
    875e:	jne    8748 <AES_cbc_encrypt+0x118>
    8760:	mov    rsi,rbx
    8763:	mov    rdx,rbp
    8766:	mov    rdi,r13
    8769:	add    r12,0x10
    876d:	call   7ea0 <AES_encrypt>
    8772:	movdqu xmm1,XMMWORD PTR [rbx]
    8776:	add    rbx,0x10
    877a:	movups XMMWORD PTR [r14],xmm1
    877e:	cmp    rbx,QWORD PTR [rsp+0x10]
    8783:	jne    8740 <AES_cbc_encrypt+0x110>
    8785:	mov    rcx,QWORD PTR [rsp+0x18]
    878a:	add    QWORD PTR [rsp+0x8],rcx
    878f:	and    r15d,0xf
    8793:	test   r15,r15
    8796:	je     86f0 <AES_cbc_encrypt+0xc0>
    879c:	xor    eax,eax
    879e:	lea    r13,[rsp+0x20]
    87a3:	nop    DWORD PTR [rax+rax*1+0x0]
    87a8:	mov    rcx,QWORD PTR [rsp+0x8]
    87ad:	movzx  edx,BYTE PTR [rcx+rax*1]
    87b1:	xor    dl,BYTE PTR [r14+rax*1]
    87b5:	mov    BYTE PTR [r13+rax*1+0x0],dl
    87ba:	add    rax,0x1
    87be:	cmp    rax,r15
    87c1:	jne    87a8 <AES_cbc_encrypt+0x178>
    87c3:	nop    DWORD PTR [rax+rax*1+0x0]
    87c8:	movzx  eax,BYTE PTR [r14+r15*1]
    87cd:	mov    BYTE PTR [r13+r15*1+0x0],al
    87d2:	add    r15,0x1
    87d6:	cmp    r15,0x10
    87da:	jne    87c8 <AES_cbc_encrypt+0x198>
    87dc:	mov    rdx,rbp
    87df:	mov    rsi,r13
    87e2:	mov    rdi,r13
    87e5:	call   7ea0 <AES_encrypt>
    87ea:	movdqa xmm0,XMMWORD PTR [rsp+0x20]
    87f0:	mov    rax,QWORD PTR [rsp+0x10]
    87f5:	movups XMMWORD PTR [rax],xmm0
    87f8:	movups XMMWORD PTR [r14],xmm0
    87fc:	jmp    86f0 <AES_cbc_encrypt+0xc0>
    8801:	mov    rax,QWORD PTR [rsp+0x8]
    8806:	lea    r13,[rsp+0x20]
    880b:	mov    rdx,rbp
    880e:	mov    rsi,r13
    8811:	mov    rdi,r13
    8814:	movdqu xmm4,XMMWORD PTR [rax]
    8818:	movaps XMMWORD PTR [rsp+0x20],xmm4
    881d:	call   8270 <AES_decrypt>
    8822:	xor    eax,eax
    8824:	nop    DWORD PTR [rax+0x0]
    8828:	movzx  edx,BYTE PTR [r13+rax*1+0x0]
    882e:	xor    dl,BYTE PTR [r14+rax*1]
    8832:	mov    BYTE PTR [r12+rax*1],dl
    8836:	add    rax,0x1
    883a:	cmp    rax,r15
    883d:	jne    8828 <AES_cbc_encrypt+0x1f8>
    883f:	movdqa xmm5,XMMWORD PTR [rsp+0x20]
    8845:	movups XMMWORD PTR [r14],xmm5
    8849:	jmp    86f0 <AES_cbc_encrypt+0xc0>
    884e:	mov    QWORD PTR [rsp+0x10],rsi
    8853:	jmp    8793 <AES_cbc_encrypt+0x163>
    8858:	call   31c0 <__stack_chk_fail@plt>
    885d:	nop    DWORD PTR [rax]

0000000000008860 <vmdk_flush>:
    8860:	mov    rax,QWORD PTR [rdi+0x40]
    8864:	mov    rdi,QWORD PTR [rax]
    8867:	jmp    19700 <bdrv_flush>
    886c:	nop    DWORD PTR [rax+0x0]

0000000000008870 <vmdk_snapshot_create>:
    8870:	push   r15
    8872:	mov    edx,0x1a4
    8877:	mov    r15,rsi
    887a:	mov    esi,0x242
    887f:	push   r14
    8881:	push   r13
    8883:	push   r12
    8885:	push   rbp
    8886:	mov    rbp,rdi
    8889:	push   rbx
    888a:	sub    rsp,0x5298
    8891:	mov    rax,QWORD PTR fs:0x28
    889a:	mov    QWORD PTR [rsp+0x5288],rax
    88a2:	xor    eax,eax
    88a4:	call   3500 <open64@plt>
    88a9:	test   eax,eax
    88ab:	js     8c80 <vmdk_snapshot_create+0x410>
    88b1:	mov    r12d,eax
    88b4:	xor    esi,esi
    88b6:	mov    rdi,r15
    88b9:	xor    eax,eax
    88bb:	call   3500 <open64@plt>
    88c0:	mov    r13d,eax
    88c3:	test   eax,eax
    88c5:	js     8c68 <vmdk_snapshot_create+0x3f8>
    88cb:	xor    edx,edx
    88cd:	xor    esi,esi
    88cf:	mov    edi,eax
    88d1:	call   3650 <lseek64@plt>
    88d6:	cmp    rax,0xffffffffffffffff
    88da:	je     8c60 <vmdk_snapshot_create+0x3f0>
    88e0:	lea    rbx,[rsp+0x80]
    88e8:	mov    edx,0x200
    88ed:	mov    edi,r13d
    88f0:	mov    rsi,rbx
    88f3:	call   52c0 <qemu_read_ok>
    88f8:	test   eax,eax
    88fa:	js     8c60 <vmdk_snapshot_create+0x3f0>
    8900:	xor    edx,edx
    8902:	xor    esi,esi
    8904:	mov    edi,r12d
    8907:	call   3650 <lseek64@plt>
    890c:	cmp    rax,0xffffffffffffffff
    8910:	je     8c60 <vmdk_snapshot_create+0x3f0>
    8916:	mov    edx,0x200
    891b:	mov    rsi,rbx
    891e:	mov    edi,r12d
    8921:	call   5390 <qemu_write_ok>
    8926:	cmp    eax,0xffffffff
    8929:	je     8c60 <vmdk_snapshot_create+0x3f0>
    892f:	mov    rax,QWORD PTR [rsp+0x94]
    8937:	mov    edi,r12d
    893a:	movdqu xmm2,XMMWORD PTR [rsp+0xa4]
    8943:	mov    rdx,QWORD PTR [rsp+0xc4]
    894b:	movdqu xmm3,XMMWORD PTR [rsp+0xb4]
    8954:	movdqu xmm0,XMMWORD PTR [rsp+0x84]
    895d:	movaps XMMWORD PTR [rsp+0x50],xmm2
    8962:	movdqu xmm1,XMMWORD PTR [rsp+0x94]
    896b:	mov    QWORD PTR [rsp+0x18],rax
    8970:	mov    eax,DWORD PTR [rsp+0x58]
    8974:	movaps XMMWORD PTR [rsp+0x60],xmm3
    8979:	mov    r14,QWORD PTR [rsp+0x64]
    897e:	mov    QWORD PTR [rsp+0x70],rdx
    8983:	mov    rsi,QWORD PTR [rsp+0x6c]
    8988:	movzx  edx,BYTE PTR [rsp+0xcc]
    8990:	mov    DWORD PTR [rsp+0xc],eax
    8994:	mov    rax,QWORD PTR [rsp+0x5c]
    8999:	shl    rsi,0x9
    899d:	movaps XMMWORD PTR [rsp+0x30],xmm0
    89a2:	mov    rbx,QWORD PTR [rsp+0x38]
    89a7:	mov    BYTE PTR [rsp+0x78],dl
    89ab:	movaps XMMWORD PTR [rsp+0x40],xmm1
    89b0:	mov    QWORD PTR [rsp+0x10],rax
    89b5:	call   34c0 <ftruncate64@plt>
    89ba:	xor    edx,edx
    89bc:	mov    esi,0x200
    89c1:	mov    edi,r13d
    89c4:	call   3650 <lseek64@plt>
    89c9:	cmp    rax,0xffffffffffffffff
    89cd:	je     8c60 <vmdk_snapshot_create+0x3f0>
    89d3:	lea    rcx,[rsp+0x280]
    89db:	mov    edx,0x2800
    89e0:	mov    edi,r13d
    89e3:	mov    rsi,rcx
    89e6:	mov    QWORD PTR [rsp],rcx
    89ea:	call   52c0 <qemu_read_ok>
    89ef:	test   eax,eax
    89f1:	js     8c60 <vmdk_snapshot_create+0x3f0>
    89f7:	mov    rcx,QWORD PTR [rsp]
    89fb:	lea    rsi,[rip+0x17da7]        # 207a9 <Te0+0x409>
    8a02:	mov    rdi,rcx
    8a05:	call   36b0 <strstr@plt>
    8a0a:	test   rax,rax
    8a0d:	je     8a26 <vmdk_snapshot_create+0x1b6>
    8a0f:	lea    rdi,[rax+0x4]
    8a13:	lea    rdx,[rsp+0x2c]
    8a18:	xor    eax,eax
    8a1a:	lea    rsi,[rip+0x17d7f]        # 207a0 <Te0+0x400>
    8a21:	call   3480 <sscanf@plt>
    8a26:	mov    rdi,rbp
    8a29:	mov    esi,0x5c
    8a2e:	call   3210 <strrchr@plt>
    8a33:	mov    esi,0x2f
    8a38:	lea    rdx,[rax+0x1]
    8a3c:	test   rax,rax
    8a3f:	cmovne rbp,rdx
    8a43:	mov    rdi,rbp
    8a46:	call   3210 <strrchr@plt>
    8a4b:	mov    esi,0x3a
    8a50:	lea    rdx,[rax+0x1]
    8a54:	test   rax,rax
    8a57:	cmovne rbp,rdx
    8a5b:	mov    rdi,rbp
    8a5e:	call   3210 <strrchr@plt>
    8a63:	mov    r9d,DWORD PTR [rsp+0x2c]
    8a68:	lea    r10,[rsp+0x2a80]
    8a70:	mov    esi,0x2800
    8a75:	test   rax,rax
    8a78:	lea    rdx,[rax+0x1]
    8a7c:	mov    rdi,r10
    8a7f:	mov    ecx,0x2800
    8a84:	cmovne rbp,rdx
    8a88:	lea    r8,[rip+0x17d91]        # 20820 <desc_template.13799>
    8a8f:	mov    edx,0x1
    8a94:	xor    eax,eax
    8a96:	push   rbp
    8a97:	push   rbx
    8a98:	push   r15
    8a9a:	push   r9
    8a9c:	mov    QWORD PTR [rsp+0x20],r10
    8aa1:	call   3060 <__snprintf_chk@plt>
    8aa6:	add    rsp,0x20
    8aaa:	xor    edx,edx
    8aac:	mov    esi,0x200
    8ab1:	mov    edi,r12d
    8ab4:	call   3650 <lseek64@plt>
    8ab9:	cmp    rax,0xffffffffffffffff
    8abd:	je     8c60 <vmdk_snapshot_create+0x3f0>
    8ac3:	mov    r10,QWORD PTR [rsp]
    8ac7:	mov    rdx,r10
    8aca:	mov    ecx,DWORD PTR [rdx]
    8acc:	add    rdx,0x4
    8ad0:	lea    eax,[rcx-0x1010101]
    8ad6:	not    ecx
    8ad8:	and    eax,ecx
    8ada:	and    eax,0x80808080
    8adf:	je     8aca <vmdk_snapshot_create+0x25a>
    8ae1:	mov    ecx,eax
    8ae3:	mov    rsi,r10
    8ae6:	mov    edi,r12d
    8ae9:	shr    ecx,0x10
    8aec:	test   eax,0x8080
    8af1:	cmove  eax,ecx
    8af4:	lea    rcx,[rdx+0x2]
    8af8:	cmove  rdx,rcx
    8afc:	mov    ecx,eax
    8afe:	add    cl,al
    8b00:	sbb    rdx,0x3
    8b04:	sub    rdx,r10
    8b07:	call   5390 <qemu_write_ok>
    8b0c:	cmp    eax,0xffffffff
    8b0f:	je     8c60 <vmdk_snapshot_create+0x3f0>
    8b15:	movsxd rcx,DWORD PTR [rsp+0xc]
    8b1a:	mov    rbp,QWORD PTR [rsp+0x10]
    8b1f:	mov    rax,rbx
    8b22:	shl    r14,0x9
    8b26:	imul   rcx,QWORD PTR [rsp+0x18]
    8b2c:	shl    rax,0x9
    8b30:	shl    rbp,0x9
    8b34:	shl    rcx,0x9
    8b38:	je     8c60 <vmdk_snapshot_create+0x3f0>
    8b3e:	cqo
    8b40:	idiv   rcx
    8b43:	lea    ebx,[rax*4+0x0]
    8b4a:	mov    rdi,rbx
    8b4d:	call   5970 <qemu_malloc>
    8b52:	xor    edx,edx
    8b54:	mov    rsi,rbp
    8b57:	mov    edi,r13d
    8b5a:	mov    r15,rax
    8b5d:	call   3650 <lseek64@plt>
    8b62:	cmp    rax,0xffffffffffffffff
    8b66:	je     8c58 <vmdk_snapshot_create+0x3e8>
    8b6c:	mov    rdx,rbx
    8b6f:	mov    rsi,r15
    8b72:	mov    edi,r13d
    8b75:	call   52c0 <qemu_read_ok>
    8b7a:	test   eax,eax
    8b7c:	js     8c58 <vmdk_snapshot_create+0x3e8>
    8b82:	xor    edx,edx
    8b84:	mov    rsi,rbp
    8b87:	mov    edi,r12d
    8b8a:	call   3650 <lseek64@plt>
    8b8f:	cmp    rax,0xffffffffffffffff
    8b93:	je     8c58 <vmdk_snapshot_create+0x3e8>
    8b99:	mov    rdx,rbx
    8b9c:	mov    rsi,r15
    8b9f:	mov    edi,r12d
    8ba2:	call   5390 <qemu_write_ok>
    8ba7:	cmp    eax,0xffffffff
    8baa:	je     8c58 <vmdk_snapshot_create+0x3e8>
    8bb0:	mov    rdi,r15
    8bb3:	call   5960 <qemu_free>
    8bb8:	mov    rdi,rbx
    8bbb:	call   5970 <qemu_malloc>
    8bc0:	xor    edx,edx
    8bc2:	mov    rsi,r14
    8bc5:	mov    edi,r13d
    8bc8:	mov    rbp,rax
    8bcb:	call   3650 <lseek64@plt>
    8bd0:	cmp    rax,0xffffffffffffffff
    8bd4:	je     8c50 <vmdk_snapshot_create+0x3e0>
    8bd6:	mov    rdx,rbx
    8bd9:	mov    rsi,rbp
    8bdc:	mov    edi,r13d
    8bdf:	call   52c0 <qemu_read_ok>
    8be4:	test   eax,eax
    8be6:	js     8c50 <vmdk_snapshot_create+0x3e0>
    8be8:	xor    edx,edx
    8bea:	mov    rsi,r14
    8bed:	mov    edi,r12d
    8bf0:	call   3650 <lseek64@plt>
    8bf5:	cmp    rax,0xffffffffffffffff
    8bf9:	je     8c50 <vmdk_snapshot_create+0x3e0>
    8bfb:	mov    rdx,rbx
    8bfe:	mov    rsi,rbp
    8c01:	mov    edi,r12d
    8c04:	call   5390 <qemu_write_ok>
    8c09:	cmp    eax,0xffffffff
    8c0c:	je     8c50 <vmdk_snapshot_create+0x3e0>
    8c0e:	mov    rdi,rbp
    8c11:	call   5960 <qemu_free>
    8c16:	mov    edi,r13d
    8c19:	call   3270 <close@plt>
    8c1e:	mov    edi,r12d
    8c21:	call   3270 <close@plt>
    8c26:	xor    eax,eax
    8c28:	mov    rbx,QWORD PTR [rsp+0x5288]
    8c30:	xor    rbx,QWORD PTR fs:0x28
    8c39:	jne    8c87 <vmdk_snapshot_create+0x417>
    8c3b:	add    rsp,0x5298
    8c42:	pop    rbx
    8c43:	pop    rbp
    8c44:	pop    r12
    8c46:	pop    r13
    8c48:	pop    r14
    8c4a:	pop    r15
    8c4c:	ret
    8c4d:	nop    DWORD PTR [rax]
    8c50:	mov    rdi,rbp
    8c53:	call   5960 <qemu_free>
    8c58:	mov    rdi,r15
    8c5b:	call   5960 <qemu_free>
    8c60:	mov    edi,r13d
    8c63:	call   3270 <close@plt>
    8c68:	mov    edi,r12d
    8c6b:	call   3270 <close@plt>
    8c70:	mov    eax,0xffffffff
    8c75:	jmp    8c28 <vmdk_snapshot_create+0x3b8>
    8c77:	nop    WORD PTR [rax+rax*1+0x0]
    8c80:	mov    eax,0xffffffff
    8c85:	jmp    8c28 <vmdk_snapshot_create+0x3b8>
    8c87:	call   31c0 <__stack_chk_fail@plt>
    8c8c:	nop    DWORD PTR [rax+0x0]

0000000000008c90 <vmdk_close>:
    8c90:	push   rbx
    8c91:	mov    rbx,QWORD PTR [rdi+0x40]
    8c95:	mov    rdi,QWORD PTR [rbx+0x18]
    8c99:	call   5960 <qemu_free>
    8c9e:	mov    rdi,QWORD PTR [rbx+0x38]
    8ca2:	call   5960 <qemu_free>
    8ca7:	mov    rdi,QWORD PTR [rbx]
    8caa:	mov    rax,QWORD PTR [rdi+0x850]
    8cb1:	test   rax,rax
    8cb4:	je     8cc1 <vmdk_close+0x31>
    8cb6:	mov    rdi,rax
    8cb9:	call   181a0 <bdrv_close>
    8cbe:	mov    rdi,QWORD PTR [rbx]
    8cc1:	pop    rbx
    8cc2:	jmp    18130 <bdrv_delete>
    8cc7:	nop    WORD PTR [rax+rax*1+0x0]

0000000000008cd0 <vmdk_probe>:
    8cd0:	xor    eax,eax
    8cd2:	cmp    esi,0x3
    8cd5:	jg     8ce0 <vmdk_probe+0x10>
    8cd7:	ret
    8cd8:	nop    DWORD PTR [rax+rax*1+0x0]
    8ce0:	mov    edx,DWORD PTR [rdi]
    8ce2:	bswap  edx
    8ce4:	cmp    edx,0x434f5744
    8cea:	je     8cf4 <vmdk_probe+0x24>
    8cec:	cmp    edx,0x4b444d56
    8cf2:	jne    8cd7 <vmdk_probe+0x7>
    8cf4:	mov    eax,0x64
    8cf9:	ret
    8cfa:	nop    WORD PTR [rax+rax*1+0x0]

0000000000008d00 <vmdk_read_cid.isra.2>:
    8d00:	push   r12
    8d02:	mov    ecx,0x2800
    8d07:	mov    r12d,esi
    8d0a:	mov    esi,0x200
    8d0f:	push   rbp
    8d10:	push   rbx
    8d11:	sub    rsp,0x2820
    8d18:	mov    rdi,QWORD PTR [rdi]
    8d1b:	mov    rax,QWORD PTR fs:0x28
    8d24:	mov    QWORD PTR [rsp+0x2818],rax
    8d2c:	xor    eax,eax
    8d2e:	lea    rbp,[rsp+0x10]
    8d33:	mov    rdx,rbp
    8d36:	call   18b00 <bdrv_pread>
    8d3b:	xor    edx,edx
    8d3d:	cmp    eax,0x2800
    8d42:	jne    8d90 <vmdk_read_cid.isra.2+0x90>
    8d44:	cmp    r12d,0x1
    8d48:	lea    rsi,[rip+0x17a54]        # 207a3 <Te0+0x403>
    8d4f:	lea    rax,[rip+0x17a53]        # 207a9 <Te0+0x409>
    8d56:	mov    rdi,rbp
    8d59:	sbb    rbx,rbx
    8d5c:	and    rbx,0xfffffffffffffffa
    8d60:	add    rbx,0xa
    8d64:	test   r12d,r12d
    8d67:	cmove  rsi,rax
    8d6b:	call   36b0 <strstr@plt>
    8d70:	test   rax,rax
    8d73:	je     8d8c <vmdk_read_cid.isra.2+0x8c>
    8d75:	lea    rdi,[rax+rbx*1]
    8d79:	lea    rdx,[rsp+0xc]
    8d7e:	xor    eax,eax
    8d80:	lea    rsi,[rip+0x17a19]        # 207a0 <Te0+0x400>
    8d87:	call   3480 <sscanf@plt>
    8d8c:	mov    edx,DWORD PTR [rsp+0xc]
    8d90:	mov    rcx,QWORD PTR [rsp+0x2818]
    8d98:	xor    rcx,QWORD PTR fs:0x28
    8da1:	mov    eax,edx
    8da3:	jne    8db1 <vmdk_read_cid.isra.2+0xb1>
    8da5:	add    rsp,0x2820
    8dac:	pop    rbx
    8dad:	pop    rbp
    8dae:	pop    r12
    8db0:	ret
    8db1:	call   31c0 <__stack_chk_fail@plt>
    8db6:	nop    WORD PTR cs:[rax+rax*1+0x0]

0000000000008dc0 <vmdk_is_cid_valid.isra.3>:
    8dc0:	mov    rax,QWORD PTR [rdi]
    8dc3:	mov    rdx,QWORD PTR [rax+0x850]
    8dca:	test   rdx,rdx
    8dcd:	je     8df0 <vmdk_is_cid_valid.isra.3+0x30>
    8dcf:	push   rbx
    8dd0:	mov    rbx,rdi
    8dd3:	mov    rdi,QWORD PTR [rdx+0x40]
    8dd7:	xor    esi,esi
    8dd9:	call   8d00 <vmdk_read_cid.isra.2>
    8dde:	cmp    DWORD PTR [rbx+0xc4],eax
    8de4:	pop    rbx
    8de5:	sete   al
    8de8:	movzx  eax,al
    8deb:	ret
    8dec:	nop    DWORD PTR [rax+0x0]
    8df0:	mov    eax,0x1
    8df5:	ret
    8df6:	nop    WORD PTR cs:[rax+rax*1+0x0]

0000000000008e00 <get_cluster_offset>:
    8e00:	push   rbp
    8e01:	mov    r8,rdi
    8e04:	mov    r9,rdx
    8e07:	mov    r10d,ecx
    8e0a:	mov    rbp,rsp
    8e0d:	push   r15
    8e0f:	push   r14
    8e11:	mov    r14,rsi
    8e14:	push   r13
    8e16:	push   r12
    8e18:	push   rbx
    8e19:	sub    rsp,0x58
    8e1d:	mov    rbx,QWORD PTR [rdi+0x40]
    8e21:	mov    rax,QWORD PTR fs:0x28
    8e2a:	mov    QWORD PTR [rbp-0x38],rax
    8e2e:	xor    eax,eax
    8e30:	test   rsi,rsi
    8e33:	je     8e3c <get_cluster_offset+0x3c>
    8e35:	mov    DWORD PTR [rsi+0x10],0x0
    8e3c:	mov    r13,r9
    8e3f:	mov    ecx,DWORD PTR [rbx+0x2c]
    8e42:	xor    edx,edx
    8e44:	shr    r13,0x9
    8e48:	mov    rax,r13
    8e4b:	div    rcx
    8e4e:	mov    r11,rax
    8e51:	cmp    DWORD PTR [rbx+0x28],eax
    8e54:	jbe    8f00 <get_cluster_offset+0x100>
    8e5a:	mov    rdx,QWORD PTR [rbx+0x18]
    8e5e:	mov    eax,eax
    8e60:	mov    r12d,DWORD PTR [rdx+rax*4]
    8e64:	test   r12d,r12d
    8e67:	je     8f00 <get_cluster_offset+0x100>
    8e6d:	xor    eax,eax
    8e6f:	nop
    8e70:	movsxd rdx,eax
    8e73:	cmp    DWORD PTR [rbx+rax*4+0x40],r12d
    8e78:	je     8f30 <get_cluster_offset+0x130>
    8e7e:	add    rax,0x1
    8e82:	cmp    rax,0x10
    8e86:	jne    8e70 <get_cluster_offset+0x70>
    8e88:	xor    eax,eax
    8e8a:	mov    ecx,0xffffffff
    8e8f:	xor    r15d,r15d
    8e92:	nop    WORD PTR [rax+rax*1+0x0]
    8e98:	mov    edx,DWORD PTR [rbx+rax*4+0x80]
    8e9f:	cmp    edx,ecx
    8ea1:	jae    8ea8 <get_cluster_offset+0xa8>
    8ea3:	mov    ecx,edx
    8ea5:	movsxd r15,eax
    8ea8:	add    rax,0x1
    8eac:	cmp    rax,0x10
    8eb0:	jne    8e98 <get_cluster_offset+0x98>
    8eb2:	mov    ecx,DWORD PTR [rbx+0x30]
    8eb5:	mov    edx,r15d
    8eb8:	mov    rax,QWORD PTR [rbx+0x38]
    8ebc:	mov    esi,r12d
    8ebf:	mov    rdi,QWORD PTR [rbx]
    8ec2:	shl    rsi,0x9
    8ec6:	mov    QWORD PTR [rbp-0x68],r8
    8eca:	imul   edx,ecx
    8ecd:	shl    ecx,0x2
    8ed0:	mov    QWORD PTR [rbp-0x60],r9
    8ed4:	mov    DWORD PTR [rbp-0x58],r10d
    8ed8:	mov    QWORD PTR [rbp-0x50],r11
    8edc:	lea    rdx,[rax+rdx*4]
    8ee0:	mov    QWORD PTR [rbp-0x48],rdx
    8ee4:	call   18b00 <bdrv_pread>
    8ee9:	mov    ecx,DWORD PTR [rbx+0x30]
    8eec:	cdqe
    8eee:	lea    rdx,[rcx*4+0x0]
    8ef6:	cmp    rax,rdx
    8ef9:	je     9068 <get_cluster_offset+0x268>
    8eff:	nop
    8f00:	xor    r13d,r13d
    8f03:	mov    rdi,QWORD PTR [rbp-0x38]
    8f07:	xor    rdi,QWORD PTR fs:0x28
    8f10:	mov    rax,r13
    8f13:	jne    919a <get_cluster_offset+0x39a>
    8f19:	lea    rsp,[rbp-0x28]
    8f1d:	pop    rbx
    8f1e:	pop    r12
    8f20:	pop    r13
    8f22:	pop    r14
    8f24:	pop    r15
    8f26:	pop    rbp
    8f27:	ret
    8f28:	nop    DWORD PTR [rax+rax*1+0x0]
    8f30:	lea    rcx,[rbx+rdx*4]
    8f34:	mov    edi,DWORD PTR [rcx+0x80]
    8f3a:	lea    edx,[rdi+0x1]
    8f3d:	mov    DWORD PTR [rcx+0x80],edx
    8f43:	cmp    edx,0xffffffff
    8f46:	je     9090 <get_cluster_offset+0x290>
    8f4c:	mov    ecx,DWORD PTR [rbx+0x30]
    8f4f:	mov    rdx,QWORD PTR [rbx+0x38]
    8f53:	imul   eax,ecx
    8f56:	lea    rax,[rdx+rax*4]
    8f5a:	mov    QWORD PTR [rbp-0x48],rax
    8f5e:	mov    esi,DWORD PTR [rbx+0xc0]
    8f64:	mov    rax,r13
    8f67:	xor    edx,edx
    8f69:	div    rsi
    8f6c:	xor    edx,edx
    8f6e:	div    rcx
    8f71:	mov    rax,QWORD PTR [rbp-0x48]
    8f75:	mov    r15,rdx
    8f78:	lea    rdx,[rax+rdx*4]
    8f7c:	mov    r13d,DWORD PTR [rdx]
    8f7f:	test   r13,r13
    8f82:	jne    9058 <get_cluster_offset+0x258>
    8f88:	test   r10d,r10d
    8f8b:	je     8f00 <get_cluster_offset+0x100>
    8f91:	mov    eax,DWORD PTR [rbx+0xc8]
    8f97:	xor    r10d,r10d
    8f9a:	mov    DWORD PTR [rbp-0x48],0x0
    8fa1:	test   eax,eax
    8fa3:	je     9138 <get_cluster_offset+0x338>
    8fa9:	mov    rdx,QWORD PTR [r8+0x40]
    8fad:	mov    rdi,rsp
    8fb0:	mov    QWORD PTR [rbp-0x50],rdi
    8fb4:	mov    eax,DWORD PTR [rdx+0xc0]
    8fba:	shl    eax,0x9
    8fbd:	mov    ebx,eax
    8fbf:	mov    DWORD PTR [rbp-0x58],eax
    8fc2:	mov    rax,QWORD PTR [rdx]
    8fc5:	sub    rsp,rbx
    8fc8:	mov    rax,QWORD PTR [rax+0x850]
    8fcf:	test   rax,rax
    8fd2:	je     9130 <get_cluster_offset+0x330>
    8fd8:	mov    rax,QWORD PTR [rax+0x40]
    8fdc:	mov    rdi,rdx
    8fdf:	mov    QWORD PTR [rbp-0x78],r11
    8fe3:	mov    QWORD PTR [rbp-0x70],r9
    8fe7:	mov    QWORD PTR [rbp-0x68],r10
    8feb:	mov    QWORD PTR [rbp-0x80],rax
    8fef:	mov    QWORD PTR [rbp-0x60],rdx
    8ff3:	call   8dc0 <vmdk_is_cid_valid.isra.3>
    8ff8:	test   eax,eax
    8ffa:	je     9124 <get_cluster_offset+0x324>
    9000:	mov    rdx,QWORD PTR [rbp-0x60]
    9004:	mov    r9,QWORD PTR [rbp-0x70]
    9008:	xor    esi,esi
    900a:	mov    ecx,0x1
    900f:	mov    rax,QWORD PTR [rdx]
    9012:	mov    rdx,r9
    9015:	mov    rdi,QWORD PTR [rax+0x850]
    901c:	call   8e00 <get_cluster_offset>
    9021:	mov    r10,QWORD PTR [rbp-0x68]
    9025:	mov    r11,QWORD PTR [rbp-0x78]
    9029:	test   rax,rax
    902c:	jne    90b0 <get_cluster_offset+0x2b0>
    9032:	mov    rsp,QWORD PTR [rbp-0x50]
    9036:	mov    r13,r10
    9039:	test   r14,r14
    903c:	je     9058 <get_cluster_offset+0x258>
    903e:	mov    eax,DWORD PTR [rbp-0x48]
    9041:	mov    DWORD PTR [r14+0x4],r11d
    9045:	mov    DWORD PTR [r14+0x8],r15d
    9049:	mov    DWORD PTR [r14],eax
    904c:	mov    DWORD PTR [r14+0xc],r12d
    9050:	mov    DWORD PTR [r14+0x10],0x1
    9058:	shl    r13,0x9
    905c:	jmp    8f03 <get_cluster_offset+0x103>
    9061:	nop    DWORD PTR [rax+0x0]
    9068:	lea    rax,[rbx+r15*4]
    906c:	mov    r8,QWORD PTR [rbp-0x68]
    9070:	mov    r9,QWORD PTR [rbp-0x60]
    9074:	mov    r10d,DWORD PTR [rbp-0x58]
    9078:	mov    r11,QWORD PTR [rbp-0x50]
    907c:	mov    DWORD PTR [rax+0x40],r12d
    9080:	mov    DWORD PTR [rax+0x80],0x1
    908a:	jmp    8f5e <get_cluster_offset+0x15e>
    908f:	nop
    9090:	lea    rdx,[rbx+0x80]
    9097:	lea    rcx,[rbx+0xc0]
    909e:	xchg   ax,ax
    90a0:	shr    DWORD PTR [rdx],1
    90a2:	add    rdx,0x4
    90a6:	cmp    rcx,rdx
    90a9:	jne    90a0 <get_cluster_offset+0x2a0>
    90ab:	jmp    8f4c <get_cluster_offset+0x14c>
    90b0:	mov    rdi,QWORD PTR [rbp-0x80]
    90b4:	mov    rdx,QWORD PTR [rip+0x212b5]        # 2a370 <activeBDRV>
    90bb:	mov    QWORD PTR [rbp-0x70],r10
    90bf:	mov    esi,DWORD PTR [rdi+0xc0]
    90c5:	mov    r8,QWORD PTR [rdx+0x40]
    90c9:	mov    rdx,rsp
    90cc:	mov    rdi,QWORD PTR [rdi]
    90cf:	mov    ecx,esi
    90d1:	mov    DWORD PTR [rbp-0x60],esi
    90d4:	mov    rsi,rax
    90d7:	shl    ecx,0x9
    90da:	mov    QWORD PTR [rbp-0x68],r8
    90de:	call   18b00 <bdrv_pread>
    90e3:	mov    rdi,QWORD PTR [rbp-0x80]
    90e7:	mov    edx,DWORD PTR [rdi+0xc0]
    90ed:	shl    edx,0x9
    90f0:	cmp    eax,edx
    90f2:	jne    9124 <get_cluster_offset+0x324>
    90f4:	mov    r8,QWORD PTR [rbp-0x68]
    90f8:	mov    rsi,QWORD PTR [rip+0x21279]        # 2a378 <activeBDRV+0x8>
    90ff:	mov    rdx,rsp
    9102:	mov    ecx,DWORD PTR [rbp-0x58]
    9105:	mov    rdi,QWORD PTR [r8]
    9108:	shl    rsi,0x9
    910c:	call   19110 <bdrv_pwrite>
    9111:	mov    r10,QWORD PTR [rbp-0x70]
    9115:	mov    r11,QWORD PTR [rbp-0x78]
    9119:	cdqe
    911b:	cmp    rbx,rax
    911e:	je     9032 <get_cluster_offset+0x232>
    9124:	mov    rsp,QWORD PTR [rbp-0x50]
    9128:	jmp    8f03 <get_cluster_offset+0x103>
    912d:	nop    DWORD PTR [rax]
    9130:	mov    rsp,rdi
    9133:	jmp    9036 <get_cluster_offset+0x236>
    9138:	mov    rdi,QWORD PTR [rbx]
    913b:	mov    QWORD PTR [rbp-0x68],r11
    913f:	mov    QWORD PTR [rbp-0x60],r9
    9143:	mov    QWORD PTR [rbp-0x58],r8
    9147:	mov    QWORD PTR [rbp-0x50],rdx
    914b:	call   191c0 <bdrv_getlength>
    9150:	mov    esi,DWORD PTR [rbx+0xc0]
    9156:	mov    rdi,QWORD PTR [rbx]
    9159:	mov    QWORD PTR [rbp-0x48],rax
    915d:	shl    esi,0x9
    9160:	add    rsi,rax
    9163:	call   19190 <bdrv_truncate>
    9168:	mov    r10,QWORD PTR [rbp-0x48]
    916c:	mov    rdx,QWORD PTR [rbp-0x50]
    9170:	mov    r8,QWORD PTR [rbp-0x58]
    9174:	mov    r11,QWORD PTR [rbp-0x68]
    9178:	shr    r10,0x9
    917c:	mov    r9,QWORD PTR [rbp-0x60]
    9180:	mov    DWORD PTR [rbp-0x48],r10d
    9184:	mov    DWORD PTR [rdx],r10d
    9187:	mov    QWORD PTR [rip+0x211ea],r10        # 2a378 <activeBDRV+0x8>
    918e:	mov    QWORD PTR [rip+0x211db],r8        # 2a370 <activeBDRV>
    9195:	jmp    8fa9 <get_cluster_offset+0x1a9>
    919a:	call   31c0 <__stack_chk_fail@plt>
    919f:	nop

00000000000091a0 <vmdk_is_allocated>:
    91a0:	push   r13
    91a2:	push   r12
    91a4:	mov    r12,rcx
    91a7:	xor    ecx,ecx
    91a9:	push   rbp
    91aa:	mov    ebp,edx
    91ac:	mov    rdx,rsi
    91af:	push   rbx
    91b0:	shl    rdx,0x9
    91b4:	mov    rbx,rsi
    91b7:	xor    esi,esi
    91b9:	sub    rsp,0x8
    91bd:	mov    r13,QWORD PTR [rdi+0x40]
    91c1:	call   8e00 <get_cluster_offset>
    91c6:	mov    rdi,rax
    91c9:	mov    esi,DWORD PTR [r13+0xc0]
    91d0:	mov    rax,rbx
    91d3:	cqo
    91d5:	idiv   rsi
    91d8:	mov    rcx,rsi
    91db:	sub    ecx,edx
    91dd:	cmp    ecx,ebp
    91df:	cmovg  ecx,ebp
    91e2:	xor    eax,eax
    91e4:	test   rdi,rdi
    91e7:	setne  al
    91ea:	mov    DWORD PTR [r12],ecx
    91ee:	add    rsp,0x8
    91f2:	pop    rbx
    91f3:	pop    rbp
    91f4:	pop    r12
    91f6:	pop    r13
    91f8:	ret
    91f9:	nop    DWORD PTR [rax+0x0]

0000000000009200 <vmdk_read>:
    9200:	push   r15
    9202:	push   r14
    9204:	push   r13
    9206:	push   r12
    9208:	push   rbp
    9209:	push   rbx
    920a:	sub    rsp,0x18
    920e:	mov    r14,QWORD PTR [rdi+0x40]
    9212:	test   ecx,ecx
    9214:	jle    9340 <vmdk_read+0x140>
    921a:	mov    r15,rdi
    921d:	mov    rbp,rsi
    9220:	mov    r13,rdx
    9223:	mov    r12d,ecx
    9226:	jmp    928e <vmdk_read+0x8e>
    9228:	nop    DWORD PTR [rax+rax*1+0x0]
    9230:	mov    rax,QWORD PTR [r14]
    9233:	cmp    QWORD PTR [rax+0x850],0x0
    923b:	je     9300 <vmdk_read+0x100>
    9241:	mov    rdi,QWORD PTR [r15+0x40]
    9245:	call   8dc0 <vmdk_is_cid_valid.isra.3>
    924a:	test   eax,eax
    924c:	je     9328 <vmdk_read+0x128>
    9252:	mov    rax,QWORD PTR [r14]
    9255:	mov    ecx,ebx
    9257:	mov    rdx,r13
    925a:	mov    rsi,rbp
    925d:	mov    rdi,QWORD PTR [rax+0x850]
    9264:	call   18210 <bdrv_read>
    9269:	test   eax,eax
    926b:	js     9328 <vmdk_read+0x128>
    9271:	mov    ecx,ebx
    9273:	shl    ecx,0x9
    9276:	movsxd rcx,ecx
    9279:	sub    r12d,ebx
    927c:	movsxd rbx,ebx
    927f:	add    r13,rcx
    9282:	add    rbp,rbx
    9285:	test   r12d,r12d
    9288:	jle    9340 <vmdk_read+0x140>
    928e:	mov    rdx,rbp
    9291:	xor    ecx,ecx
    9293:	xor    esi,esi
    9295:	mov    rdi,r15
    9298:	shl    rdx,0x9
    929c:	call   8e00 <get_cluster_offset>
    92a1:	mov    esi,DWORD PTR [r14+0xc0]
    92a8:	mov    rcx,rax
    92ab:	mov    rax,rbp
    92ae:	cqo
    92b0:	mov    rbx,rsi
    92b3:	idiv   rsi
    92b6:	sub    ebx,edx
    92b8:	cmp    ebx,r12d
    92bb:	cmovg  ebx,r12d
    92bf:	test   rcx,rcx
    92c2:	je     9230 <vmdk_read+0x30>
    92c8:	shl    edx,0x9
    92cb:	mov    r8d,ebx
    92ce:	mov    rdi,QWORD PTR [r14]
    92d1:	shl    r8d,0x9
    92d5:	movsxd rsi,edx
    92d8:	mov    rdx,r13
    92db:	add    rsi,rcx
    92de:	mov    ecx,r8d
    92e1:	mov    DWORD PTR [rsp+0x8],r8d
    92e6:	call   18b00 <bdrv_pread>
    92eb:	mov    r8d,DWORD PTR [rsp+0x8]
    92f0:	cmp    r8d,eax
    92f3:	jne    9328 <vmdk_read+0x128>
    92f5:	movsxd rcx,r8d
    92f8:	jmp    9279 <vmdk_read+0x79>
    92fd:	nop    DWORD PTR [rax]
    9300:	mov    ecx,ebx
    9302:	xor    esi,esi
    9304:	mov    rdi,r13
    9307:	shl    ecx,0x9
    930a:	movsxd rcx,ecx
    930d:	mov    rdx,rcx
    9310:	mov    QWORD PTR [rsp+0x8],rcx
    9315:	call   3250 <memset@plt>
    931a:	mov    rcx,QWORD PTR [rsp+0x8]
    931f:	jmp    9279 <vmdk_read+0x79>
    9324:	nop    DWORD PTR [rax+0x0]
    9328:	add    rsp,0x18
    932c:	mov    eax,0xffffffff
    9331:	pop    rbx
    9332:	pop    rbp
    9333:	pop    r12
    9335:	pop    r13
    9337:	pop    r14
    9339:	pop    r15
    933b:	ret
    933c:	nop    DWORD PTR [rax+0x0]
    9340:	add    rsp,0x18
    9344:	xor    eax,eax
    9346:	pop    rbx
    9347:	pop    rbp
    9348:	pop    r12
    934a:	pop    r13
    934c:	pop    r14
    934e:	pop    r15
    9350:	ret
    9351:	data16 nop WORD PTR cs:[rax+rax*1+0x0]
    935c:	nop    DWORD PTR [rax+0x0]

0000000000009360 <vmdk_write_cid.isra.7>:
    9360:	push   r13
    9362:	mov    ecx,0x2800
    9367:	mov    r13d,esi
    936a:	mov    esi,0x200
    936f:	push   r12
    9371:	push   rbp
    9372:	mov    rbp,rdi
    9375:	push   rbx
    9376:	sub    rsp,0x5018
    937d:	mov    rdi,QWORD PTR [rdi]
    9380:	mov    rax,QWORD PTR fs:0x28
    9389:	mov    QWORD PTR [rsp+0x5008],rax
    9391:	xor    eax,eax
    9393:	mov    rbx,rsp
    9396:	mov    rdx,rbx
    9399:	call   18b00 <bdrv_pread>
    939e:	cmp    eax,0x2800
    93a3:	jne    9470 <vmdk_write_cid.isra.7+0x110>
    93a9:	lea    rsi,[rip+0x173f3]        # 207a3 <Te0+0x403>
    93b0:	mov    rdi,rbx
    93b3:	lea    r12,[rsp+0x2800]
    93bb:	call   36b0 <strstr@plt>
    93c0:	mov    esi,0x2800
    93c5:	mov    rdi,r12
    93c8:	mov    rdx,rax
    93cb:	call   5560 <pstrcpy>
    93d0:	lea    rsi,[rip+0x173d2]        # 207a9 <Te0+0x409>
    93d7:	mov    rdi,rbx
    93da:	call   36b0 <strstr@plt>
    93df:	test   rax,rax
    93e2:	je     9422 <vmdk_write_cid.isra.7+0xc2>
    93e4:	lea    rdi,[rax+0x4]
    93e8:	mov    rax,rbx
    93eb:	mov    edx,0x1
    93f0:	mov    r9d,r13d
    93f3:	sub    rax,rdi
    93f6:	lea    r8,[rip+0x173b0]        # 207ad <Te0+0x40d>
    93fd:	mov    rcx,0xffffffffffffffff
    9404:	lea    rsi,[rax+0x2800]
    940b:	xor    eax,eax
    940d:	call   3060 <__snprintf_chk@plt>
    9412:	mov    rdx,r12
    9415:	mov    esi,0x2800
    941a:	mov    rdi,rbx
    941d:	call   55a0 <pstrcat>
    9422:	mov    rdi,QWORD PTR [rbp+0x0]
    9426:	mov    ecx,0x2800
    942b:	mov    rdx,rbx
    942e:	mov    esi,0x200
    9433:	call   19110 <bdrv_pwrite>
    9438:	cmp    eax,0x2800
    943d:	setne  al
    9440:	movzx  eax,al
    9443:	neg    eax
    9445:	mov    rcx,QWORD PTR [rsp+0x5008]
    944d:	xor    rcx,QWORD PTR fs:0x28
    9456:	jne    9477 <vmdk_write_cid.isra.7+0x117>
    9458:	add    rsp,0x5018
    945f:	pop    rbx
    9460:	pop    rbp
    9461:	pop    r12
    9463:	pop    r13
    9465:	ret
    9466:	nop    WORD PTR cs:[rax+rax*1+0x0]
    9470:	mov    eax,0xffffffff
    9475:	jmp    9445 <vmdk_write_cid.isra.7+0xe5>
    9477:	call   31c0 <__stack_chk_fail@plt>
    947c:	nop    DWORD PTR [rax+0x0]

0000000000009480 <vmdk_write>:
    9480:	push   r15
    9482:	push   r14
    9484:	push   r13
    9486:	push   r12
    9488:	mov    r12,rsi
    948b:	push   rbp
    948c:	mov    ebp,ecx
    948e:	push   rbx
    948f:	sub    rsp,0x48
    9493:	mov    r8,QWORD PTR [rdi]
    9496:	mov    r14,QWORD PTR [rdi+0x40]
    949a:	mov    QWORD PTR [rsp+0x10],rdi
    949f:	mov    rcx,QWORD PTR fs:0x28
    94a8:	mov    QWORD PTR [rsp+0x38],rcx
    94ad:	xor    ecx,ecx
    94af:	cmp    r8,rsi
    94b2:	jl     9642 <vmdk_write+0x1c2>
    94b8:	lea    rax,[rsp+0x20]
    94bd:	mov    r13,rdx
    94c0:	mov    QWORD PTR [rsp+0x18],rax
    94c5:	test   ebp,ebp
    94c7:	jg     94f4 <vmdk_write+0x74>
    94c9:	jmp    963e <vmdk_write+0x1be>
    94ce:	xchg   ax,ax
    94d0:	mov    eax,DWORD PTR [rip+0x20e8a]        # 2a360 <cid_update.13920>
    94d6:	sub    ebp,ebx
    94d8:	movsxd r9,r15d
    94db:	movsxd rbx,ebx
    94de:	add    r12,rbx
    94e1:	add    r13,r9
    94e4:	test   eax,eax
    94e6:	je     9618 <vmdk_write+0x198>
    94ec:	test   ebp,ebp
    94ee:	jle    963e <vmdk_write+0x1be>
    94f4:	mov    ebx,DWORD PTR [r14+0xc0]
    94fb:	mov    rdx,r12
    94fe:	mov    rsi,QWORD PTR [rsp+0x18]
    9503:	mov    ecx,0x1
    9508:	mov    rdi,QWORD PTR [rsp+0x10]
    950d:	lea    r8d,[rbx-0x1]
    9511:	and    r8d,r12d
    9514:	sub    ebx,r8d
    9517:	mov    DWORD PTR [rsp+0x8],r8d
    951c:	cmp    ebx,ebp
    951e:	cmovg  ebx,ebp
    9521:	shl    rdx,0x9
    9525:	call   8e00 <get_cluster_offset>
    952a:	mov    r8d,DWORD PTR [rsp+0x8]
    952f:	test   rax,rax
    9532:	je     95f0 <vmdk_write+0x170>
    9538:	shl    r8d,0x9
    953c:	mov    r15d,ebx
    953f:	mov    rdi,QWORD PTR [r14]
    9542:	mov    rdx,r13
    9545:	shl    r15d,0x9
    9549:	movsxd rsi,r8d
    954c:	add    rsi,rax
    954f:	mov    ecx,r15d
    9552:	call   19110 <bdrv_pwrite>
    9557:	cmp    r15d,eax
    955a:	jne    95f0 <vmdk_write+0x170>
    9560:	mov    edx,DWORD PTR [rsp+0x30]
    9564:	test   edx,edx
    9566:	je     94d0 <vmdk_write+0x50>
    956c:	mov    rax,QWORD PTR [rsp+0x10]
    9571:	mov    edx,DWORD PTR [rsp+0x28]
    9575:	mov    ecx,0x4
    957a:	mov    r8,QWORD PTR [rax+0x40]
    957e:	mov    eax,DWORD PTR [rsp+0x2c]
    9582:	shl    rax,0x9
    9586:	mov    rdi,QWORD PTR [r8]
    9589:	mov    QWORD PTR [rsp+0x8],r8
    958e:	lea    rsi,[rax+rdx*4]
    9592:	mov    rdx,QWORD PTR [rsp+0x18]
    9597:	call   19110 <bdrv_pwrite>
    959c:	cmp    eax,0x4
    959f:	jne    95f0 <vmdk_write+0x170>
    95a1:	mov    r8,QWORD PTR [rsp+0x8]
    95a6:	cmp    QWORD PTR [r8+0x10],0x0
    95ab:	je     94d0 <vmdk_write+0x50>
    95b1:	mov    edx,DWORD PTR [rsp+0x24]
    95b5:	mov    rax,QWORD PTR [r8+0x20]
    95b9:	mov    ecx,0x4
    95be:	mov    eax,DWORD PTR [rax+rdx*4]
    95c1:	mov    edx,DWORD PTR [rsp+0x28]
    95c5:	mov    DWORD PTR [rsp+0x2c],eax
    95c9:	shl    rax,0x9
    95cd:	mov    rdi,QWORD PTR [r8]
    95d0:	lea    rsi,[rax+rdx*4]
    95d4:	mov    rdx,QWORD PTR [rsp+0x18]
    95d9:	call   19110 <bdrv_pwrite>
    95de:	cmp    eax,0x4
    95e1:	je     94d0 <vmdk_write+0x50>
    95e7:	nop    WORD PTR [rax+rax*1+0x0]
    95f0:	mov    eax,0xffffffff
    95f5:	mov    rcx,QWORD PTR [rsp+0x38]
    95fa:	xor    rcx,QWORD PTR fs:0x28
    9603:	jne    9666 <vmdk_write+0x1e6>
    9605:	add    rsp,0x48
    9609:	pop    rbx
    960a:	pop    rbp
    960b:	pop    r12
    960d:	pop    r13
    960f:	pop    r14
    9611:	pop    r15
    9613:	ret
    9614:	nop    DWORD PTR [rax+0x0]
    9618:	xor    edi,edi
    961a:	call   33e0 <time@plt>
    961f:	mov    rcx,QWORD PTR [rsp+0x10]
    9624:	mov    esi,eax
    9626:	mov    rdi,QWORD PTR [rcx+0x40]
    962a:	call   9360 <vmdk_write_cid.isra.7>
    962f:	add    DWORD PTR [rip+0x20d2a],0x1        # 2a360 <cid_update.13920>
    9636:	test   ebp,ebp
    9638:	jg     94f4 <vmdk_write+0x74>
    963e:	xor    eax,eax
    9640:	jmp    95f5 <vmdk_write+0x175>
    9642:	mov    rdi,QWORD PTR [rip+0x20cb7]        # 2a300 <stderr@@GLIBC_2.2.5>
    9649:	mov    rcx,rsi
    964c:	lea    rdx,[rip+0x1717d]        # 207d0 <Te0+0x430>
    9653:	xor    eax,eax
    9655:	mov    esi,0x1
    965a:	call   3660 <__fprintf_chk@plt>
    965f:	mov    eax,0xffffffff
    9664:	jmp    95f5 <vmdk_write+0x175>
    9666:	call   31c0 <__stack_chk_fail@plt>
    966b:	nop    DWORD PTR [rax+rax*1+0x0]

0000000000009670 <vmdk_parent_open.isra.8>:
    9670:	push   r12
    9672:	mov    ecx,0x2800
    9677:	mov    r12,rsi
    967a:	mov    esi,0x200
    967f:	push   rbp
    9680:	mov    rbp,rdi
    9683:	push   rbx
    9684:	sub    rsp,0x2ca0
    968b:	mov    rdi,QWORD PTR [rdi]
    968e:	mov    rax,QWORD PTR fs:0x28
    9697:	mov    QWORD PTR [rsp+0x2c98],rax
    969f:	xor    eax,eax
    96a1:	lea    rbx,[rsp+0x490]
    96a9:	mov    rdx,rbx
    96ac:	call   18b00 <bdrv_pread>
    96b1:	cmp    eax,0x2800
    96b6:	jne    9800 <vmdk_parent_open.isra.8+0x190>
    96bc:	mov    rdi,rbx
    96bf:	lea    rsi,[rip+0x170eb]        # 207b1 <Te0+0x411>
    96c6:	call   36b0 <strstr@plt>
    96cb:	mov    rbx,rax
    96ce:	xor    eax,eax
    96d0:	test   rbx,rbx
    96d3:	je     97a5 <vmdk_parent_open.isra.8+0x135>
    96d9:	add    rbx,0x14
    96dd:	mov    esi,0x22
    96e2:	mov    rdi,rbx
    96e5:	call   31e0 <strchr@plt>
    96ea:	test   rax,rax
    96ed:	je     9800 <vmdk_parent_open.isra.8+0x190>
    96f3:	sub    rax,rbx
    96f6:	cmp    rax,0x3ff
    96fc:	ja     9800 <vmdk_parent_open.isra.8+0x190>
    9702:	lea    rsi,[rax+0x1]
    9706:	mov    rax,QWORD PTR [rbp+0x0]
    970a:	mov    rdx,rbx
    970d:	lea    rdi,[rax+0x448]
    9714:	call   5560 <pstrcpy>
    9719:	mov    rax,QWORD PTR [rbp+0x0]
    971d:	mov    rdx,rsp
    9720:	mov    edi,0x1
    9725:	lea    rsi,[rax+0x448]
    972c:	call   3180 <__xstat64@plt>
    9731:	test   eax,eax
    9733:	mov    rax,QWORD PTR [rbp+0x0]
    9737:	jne    97c8 <vmdk_parent_open.isra.8+0x158>
    973d:	lea    rbx,[rsp+0x90]
    9745:	lea    rdx,[rax+0x448]
    974c:	mov    esi,0x400
    9751:	mov    rdi,rbx
    9754:	call   5560 <pstrcpy>
    9759:	mov    r12,QWORD PTR [rbp+0x0]
    975d:	lea    rdi,[rip+0x174fe]        # 20c62 <desc_template.13939+0x382>
    9764:	call   17ff0 <bdrv_new>
    9769:	mov    QWORD PTR [r12+0x850],rax
    9771:	mov    rax,QWORD PTR [rbp+0x0]
    9775:	mov    rdi,QWORD PTR [rax+0x850]
    977c:	test   rdi,rdi
    977f:	je     97f0 <vmdk_parent_open.isra.8+0x180>
    9781:	mov    DWORD PTR [rip+0x20bd9],0x1        # 2a364 <parent_open>
    978b:	xor    edx,edx
    978d:	mov    rsi,rbx
    9790:	call   19100 <bdrv_open>
    9795:	test   eax,eax
    9797:	js     97ec <vmdk_parent_open.isra.8+0x17c>
    9799:	mov    DWORD PTR [rip+0x20bc1],0x0        # 2a364 <parent_open>
    97a3:	xor    eax,eax
    97a5:	mov    rcx,QWORD PTR [rsp+0x2c98]
    97ad:	xor    rcx,QWORD PTR fs:0x28
    97b6:	jne    9807 <vmdk_parent_open.isra.8+0x197>
    97b8:	add    rsp,0x2ca0
    97bf:	pop    rbx
    97c0:	pop    rbp
    97c1:	pop    r12
    97c3:	ret
    97c4:	nop    DWORD PTR [rax+0x0]
    97c8:	lea    rbx,[rsp+0x90]
    97d0:	lea    rcx,[rax+0x448]
    97d7:	mov    rdx,r12
    97da:	mov    esi,0x400
    97df:	mov    rdi,rbx
    97e2:	call   17ee0 <path_combine>
    97e7:	jmp    9759 <vmdk_parent_open.isra.8+0xe9>
    97ec:	mov    rax,QWORD PTR [rbp+0x0]
    97f0:	mov    rdi,rax
    97f3:	call   181a0 <bdrv_close>
    97f8:	nop    DWORD PTR [rax+rax*1+0x0]
    9800:	mov    eax,0xffffffff
    9805:	jmp    97a5 <vmdk_parent_open.isra.8+0x135>
    9807:	call   31c0 <__stack_chk_fail@plt>
    980c:	nop    DWORD PTR [rax+0x0]

0000000000009810 <vmdk_open>:
    9810:	push   r13
    9812:	push   r12
    9814:	mov    r12,rsi
    9817:	push   rbp
    9818:	mov    rbp,rdi
    981b:	push   rbx
    981c:	sub    rsp,0xa8
    9823:	mov    ecx,DWORD PTR [rip+0x20b3b]        # 2a364 <parent_open>
    9829:	mov    rbx,QWORD PTR [rdi+0x40]
    982d:	mov    rax,QWORD PTR fs:0x28
    9836:	mov    QWORD PTR [rsp+0x98],rax
    983e:	xor    eax,eax
    9840:	test   ecx,ecx
    9842:	mov    rdi,rbx
    9845:	cmovne edx,eax
    9848:	call   19080 <bdrv_file_open>
    984d:	test   eax,eax
    984f:	js     99bd <vmdk_open+0x1ad>
    9855:	mov    rdi,QWORD PTR [rbx]
    9858:	xor    esi,esi
    985a:	lea    rdx,[rsp+0xc]
    985f:	mov    ecx,0x4
    9864:	call   18b00 <bdrv_pread>
    9869:	cmp    eax,0x4
    986c:	jne    9a50 <vmdk_open+0x240>
    9872:	mov    eax,DWORD PTR [rsp+0xc]
    9876:	bswap  eax
    9878:	mov    DWORD PTR [rsp+0xc],eax
    987c:	cmp    eax,0x434f5744
    9881:	je     99e8 <vmdk_open+0x1d8>
    9887:	cmp    eax,0x4b444d56
    988c:	jne    9a50 <vmdk_open+0x240>
    9892:	mov    rdi,QWORD PTR [rbx]
    9895:	lea    rdx,[rsp+0x40]
    989a:	mov    ecx,0x49
    989f:	mov    esi,0x4
    98a4:	call   18b00 <bdrv_pread>
    98a9:	cmp    eax,0x49
    98ac:	jne    9a50 <vmdk_open+0x240>
    98b2:	mov    rax,QWORD PTR [rsp+0x48]
    98b7:	mov    rdx,QWORD PTR [rsp+0x50]
    98bc:	mov    QWORD PTR [rbp+0x0],rax
    98c0:	mov    eax,DWORD PTR [rsp+0x68]
    98c4:	mov    DWORD PTR [rbx+0xc0],edx
    98ca:	mov    DWORD PTR [rbx+0x30],eax
    98cd:	imul   eax,edx
    98d0:	mov    DWORD PTR [rbx+0x2c],eax
    98d3:	test   eax,eax
    98d5:	je     9a50 <vmdk_open+0x240>
    98db:	mov    ecx,eax
    98dd:	mov    rax,QWORD PTR [rbp+0x0]
    98e1:	mov    rsi,r12
    98e4:	add    rax,rcx
    98e7:	sub    rax,0x1
    98eb:	cqo
    98ed:	idiv   rcx
    98f0:	mov    edx,DWORD PTR [rip+0x20a6e]        # 2a364 <parent_open>
    98f6:	mov    DWORD PTR [rbx+0x28],eax
    98f9:	mov    rax,QWORD PTR [rsp+0x6c]
    98fe:	shl    rax,0x9
    9902:	mov    QWORD PTR [rbx+0x8],rax
    9906:	mov    rax,QWORD PTR [rsp+0x74]
    990b:	shl    rax,0x9
    990f:	mov    QWORD PTR [rbx+0x10],rax
    9913:	xor    eax,eax
    9915:	test   edx,edx
    9917:	setne  al
    991a:	mov    DWORD PTR [rbx+0xc8],eax
    9920:	mov    rdi,QWORD PTR [rbp+0x40]
    9924:	call   9670 <vmdk_parent_open.isra.8>
    9929:	test   eax,eax
    992b:	jne    9a50 <vmdk_open+0x240>
    9931:	mov    rdi,QWORD PTR [rbp+0x40]
    9935:	mov    esi,0x1
    993a:	call   8d00 <vmdk_read_cid.isra.2>
    993f:	mov    DWORD PTR [rbx+0xc4],eax
    9945:	mov    eax,DWORD PTR [rbx+0x28]
    9948:	lea    ebp,[rax*4+0x0]
    994f:	movsxd r13,ebp
    9952:	mov    rdi,r13
    9955:	call   5970 <qemu_malloc>
    995a:	mov    rsi,QWORD PTR [rbx+0x8]
    995e:	mov    rdi,QWORD PTR [rbx]
    9961:	mov    ecx,ebp
    9963:	mov    QWORD PTR [rbx+0x18],rax
    9967:	mov    rdx,rax
    996a:	call   18b00 <bdrv_pread>
    996f:	mov    r12d,eax
    9972:	cmp    eax,ebp
    9974:	jne    9a50 <vmdk_open+0x240>
    997a:	cmp    QWORD PTR [rbx+0x10],0x0
    997f:	je     99a8 <vmdk_open+0x198>
    9981:	mov    rdi,r13
    9984:	call   5970 <qemu_malloc>
    9989:	mov    rsi,QWORD PTR [rbx+0x10]
    998d:	mov    rdi,QWORD PTR [rbx]
    9990:	mov    ecx,r12d
    9993:	mov    QWORD PTR [rbx+0x20],rax
    9997:	mov    rdx,rax
    999a:	call   18b00 <bdrv_pread>
    999f:	cmp    eax,r12d
    99a2:	jne    9a50 <vmdk_open+0x240>
    99a8:	mov    edi,DWORD PTR [rbx+0x30]
    99ab:	shl    edi,0x4
    99ae:	shl    rdi,0x2
    99b2:	call   5970 <qemu_malloc>
    99b7:	mov    QWORD PTR [rbx+0x38],rax
    99bb:	xor    eax,eax
    99bd:	mov    rcx,QWORD PTR [rsp+0x98]
    99c5:	xor    rcx,QWORD PTR fs:0x28
    99ce:	jne    9a7d <vmdk_open+0x26d>
    99d4:	add    rsp,0xa8
    99db:	pop    rbx
    99dc:	pop    rbp
    99dd:	pop    r12
    99df:	pop    r13
    99e1:	ret
    99e2:	nop    WORD PTR [rax+rax*1+0x0]
    99e8:	mov    rdi,QWORD PTR [rbx]
    99eb:	lea    rdx,[rsp+0x10]
    99f0:	mov    ecx,0x28
    99f5:	mov    esi,0x4
    99fa:	call   18b00 <bdrv_pread>
    99ff:	cmp    eax,0x28
    9a02:	jne    9a50 <vmdk_open+0x240>
    9a04:	mov    eax,DWORD PTR [rsp+0x1c]
    9a08:	mov    DWORD PTR [rbx+0x30],0x200
    9a0f:	mov    DWORD PTR [rbx+0x28],0x40
    9a16:	mov    DWORD PTR [rbx+0xc0],eax
    9a1c:	mov    eax,DWORD PTR [rsp+0x18]
    9a20:	mov    QWORD PTR [rbp+0x0],rax
    9a24:	mov    eax,DWORD PTR [rsp+0x20]
    9a28:	mov    QWORD PTR [rbx+0x10],0x0
    9a30:	shl    eax,0x9
    9a33:	mov    QWORD PTR [rbx+0x8],rax
    9a37:	mov    eax,DWORD PTR [rbx+0x30]
    9a3a:	imul   eax,DWORD PTR [rbx+0xc0]
    9a41:	mov    DWORD PTR [rbx+0x2c],eax
    9a44:	jmp    9945 <vmdk_open+0x135>
    9a49:	nop    DWORD PTR [rax+0x0]
    9a50:	mov    rdi,QWORD PTR [rbx+0x20]
    9a54:	call   5960 <qemu_free>
    9a59:	mov    rdi,QWORD PTR [rbx+0x18]
    9a5d:	call   5960 <qemu_free>
    9a62:	mov    rdi,QWORD PTR [rbx+0x38]
    9a66:	call   5960 <qemu_free>
    9a6b:	mov    rdi,QWORD PTR [rbx]
    9a6e:	call   18130 <bdrv_delete>
    9a73:	mov    eax,0xffffffff
    9a78:	jmp    99bd <vmdk_open+0x1ad>
    9a7d:	call   31c0 <__stack_chk_fail@plt>
    9a82:	data16 nop WORD PTR cs:[rax+rax*1+0x0]
    9a8d:	nop    DWORD PTR [rax]

0000000000009a90 <vmdk_create.part.5>:
    9a90:	push   r15
    9a92:	mov    r15,rsi
    9a95:	mov    esi,0x241
    9a9a:	push   r14
    9a9c:	mov    r14,rdi
    9a9f:	push   r13
    9aa1:	push   r12
    9aa3:	push   rbp
    9aa4:	push   rbx
    9aa5:	sub    rsp,0x488
    9aac:	mov    DWORD PTR [rsp+0x4],edx
    9ab0:	mov    edx,0x1a4
    9ab5:	mov    rax,QWORD PTR fs:0x28
    9abe:	mov    QWORD PTR [rsp+0x478],rax
    9ac6:	xor    eax,eax
    9ac8:	call   3500 <open64@plt>
    9acd:	test   eax,eax
    9acf:	js     9dc3 <vmdk_create.part.5+0x333>
    9ad5:	mov    ebx,eax
    9ad7:	lea    rsi,[rsp+0x1c]
    9adc:	movabs rax,0x300000001
    9ae6:	mov    DWORD PTR [rsp+0x1c],0x564d444b
    9aee:	mov    QWORD PTR [rsp+0x20],rax
    9af3:	mov    rax,r15
    9af6:	mov    edi,ebx
    9af8:	lea    rbp,[rsp+0x20]
    9afd:	add    rax,0x7f
    9b01:	lea    r12,[r15+0xfe]
    9b08:	mov    BYTE PTR [rsp+0x64],0x0
    9b0d:	cmovns r12,rax
    9b11:	mov    QWORD PTR [rsp+0x28],r15
    9b16:	mov    QWORD PTR [rsp+0x30],0x80
    9b1f:	sar    r12,0x7
    9b23:	mov    DWORD PTR [rsp+0x48],0x200
    9b2b:	add    r12d,0x1ff
    9b32:	mov    QWORD PTR [rsp+0x38],0x1
    9b3b:	shr    r12d,0x9
    9b3f:	mov    DWORD PTR [rsp+0x65],0xa0d200a
    9b47:	mov    eax,r12d
    9b4a:	lea    edx,[r12*4+0x0]
    9b52:	mov    QWORD PTR [rsp+0x40],0x14
    9b5b:	lea    rax,[rax*4+0x1ff]
    9b63:	mov    QWORD PTR [rsp+0x4c],0x15
    9b6c:	mov    r13,rax
    9b6f:	shr    r13,0x9
    9b73:	lea    rax,[r13+rdx*1+0x15]
    9b78:	mov    QWORD PTR [rsp+0x8],r13
    9b7d:	mov    QWORD PTR [rsp+0x54],rax
    9b82:	add    rax,r13
    9b85:	lea    rax,[rdx+rax*1+0x7f]
    9b8a:	mov    edx,0x4
    9b8f:	and    eax,0x3fffff80
    9b94:	mov    QWORD PTR [rsp+0x5c],rax
    9b99:	call   3160 <write@plt>
    9b9e:	mov    edx,0x49
    9ba3:	mov    rsi,rbp
    9ba6:	mov    edi,ebx
    9ba8:	call   3160 <write@plt>
    9bad:	mov    rsi,QWORD PTR [rsp+0x5c]
    9bb2:	mov    edi,ebx
    9bb4:	shl    rsi,0x9
    9bb8:	call   34c0 <ftruncate64@plt>
    9bbd:	mov    rsi,QWORD PTR [rsp+0x4c]
    9bc2:	xor    edx,edx
    9bc4:	mov    edi,ebx
    9bc6:	shl    rsi,0x9
    9bca:	call   3650 <lseek64@plt>
    9bcf:	mov    eax,DWORD PTR [rsp+0x4c]
    9bd3:	add    eax,r13d
    9bd6:	mov    DWORD PTR [rsp+0x18],eax
    9bda:	test   r12d,r12d
    9bdd:	je     9da0 <vmdk_create.part.5+0x310>
    9be3:	xor    ebp,ebp
    9be5:	lea    r13,[rsp+0x18]
    9bea:	jmp    9bf2 <vmdk_create.part.5+0x162>
    9bec:	nop    DWORD PTR [rax+0x0]
    9bf0:	mov    ebp,eax
    9bf2:	mov    edx,0x4
    9bf7:	mov    rsi,r13
    9bfa:	mov    edi,ebx
    9bfc:	call   3160 <write@plt>
    9c01:	lea    eax,[rbp+0x1]
    9c04:	add    DWORD PTR [rsp+0x18],0x4
    9c09:	cmp    eax,r12d
    9c0c:	jne    9bf0 <vmdk_create.part.5+0x160>
    9c0e:	mov    rsi,QWORD PTR [rsp+0x54]
    9c13:	xor    edx,edx
    9c15:	mov    edi,ebx
    9c17:	xor    r12d,r12d
    9c1a:	shl    rsi,0x9
    9c1e:	call   3650 <lseek64@plt>
    9c23:	mov    eax,DWORD PTR [rsp+0x8]
    9c27:	add    eax,DWORD PTR [rsp+0x54]
    9c2b:	mov    DWORD PTR [rsp+0x18],eax
    9c2f:	jmp    9c3b <vmdk_create.part.5+0x1ab>
    9c31:	nop    DWORD PTR [rax+0x0]
    9c38:	mov    r12d,eax
    9c3b:	mov    edx,0x4
    9c40:	mov    rsi,r13
    9c43:	mov    edi,ebx
    9c45:	call   3160 <write@plt>
    9c4a:	lea    eax,[r12+0x1]
    9c4f:	add    DWORD PTR [rsp+0x18],0x4
    9c54:	cmp    r12d,ebp
    9c57:	jne    9c38 <vmdk_create.part.5+0x1a8>
    9c59:	mov    rdi,r14
    9c5c:	mov    esi,0x5c
    9c61:	lea    r12,[rsp+0x70]
    9c66:	call   3210 <strrchr@plt>
    9c6b:	mov    esi,0x2f
    9c70:	lea    rdx,[rax+0x1]
    9c74:	test   rax,rax
    9c77:	cmovne r14,rdx
    9c7b:	mov    rdi,r14
    9c7e:	call   3210 <strrchr@plt>
    9c83:	mov    esi,0x3a
    9c88:	lea    rdx,[rax+0x1]
    9c8c:	test   rax,rax
    9c8f:	cmovne r14,rdx
    9c93:	mov    rdi,r14
    9c96:	call   3210 <strrchr@plt>
    9c9b:	test   rax,rax
    9c9e:	lea    rdx,[rax+0x1]
    9ca2:	mov    rax,r15
    9ca5:	cmovne r14,rdx
    9ca9:	movabs rdx,0x8208208208208209
    9cb3:	imul   rdx
    9cb6:	mov    rax,r15
    9cb9:	sar    rax,0x3f
    9cbd:	lea    rbp,[rdx+r15*1]
    9cc1:	sar    rbp,0x9
    9cc5:	sub    rbp,rax
    9cc8:	mov    eax,DWORD PTR [rsp+0x4]
    9ccc:	and    eax,0x4
    9ccf:	cmp    eax,0x1
    9cd2:	sbb    r13d,r13d
    9cd5:	xor    edi,edi
    9cd7:	call   33e0 <time@plt>
    9cdc:	and    r13d,0xfffffffe
    9ce0:	push   rbp
    9ce1:	mov    ecx,0x400
    9ce6:	add    r13d,0x6
    9cea:	mov    r9d,eax
    9ced:	lea    r8,[rip+0x16bec]        # 208e0 <desc_template.13939>
    9cf4:	xor    eax,eax
    9cf6:	push   r13
    9cf8:	mov    edx,0x1
    9cfd:	mov    esi,0x400
    9d02:	mov    rdi,r12
    9d05:	push   r14
    9d07:	push   r15
    9d09:	call   3060 <__snprintf_chk@plt>
    9d0e:	add    rsp,0x20
    9d12:	mov    rsi,QWORD PTR [rsp+0x38]
    9d17:	xor    edx,edx
    9d19:	mov    edi,ebx
    9d1b:	shl    rsi,0x9
    9d1f:	call   3650 <lseek64@plt>
    9d24:	mov    rdx,r12
    9d27:	mov    ecx,DWORD PTR [rdx]
    9d29:	add    rdx,0x4
    9d2d:	lea    eax,[rcx-0x1010101]
    9d33:	not    ecx
    9d35:	and    eax,ecx
    9d37:	and    eax,0x80808080
    9d3c:	je     9d27 <vmdk_create.part.5+0x297>
    9d3e:	mov    ecx,eax
    9d40:	mov    rsi,r12
    9d43:	mov    edi,ebx
    9d45:	shr    ecx,0x10
    9d48:	test   eax,0x8080
    9d4d:	cmove  eax,ecx
    9d50:	lea    rcx,[rdx+0x2]
    9d54:	cmove  rdx,rcx
    9d58:	mov    ecx,eax
    9d5a:	add    cl,al
    9d5c:	sbb    rdx,0x3
    9d60:	sub    rdx,r12
    9d63:	call   3160 <write@plt>
    9d68:	mov    edi,ebx
    9d6a:	call   3270 <close@plt>
    9d6f:	xor    eax,eax
    9d71:	mov    rcx,QWORD PTR [rsp+0x478]
    9d79:	xor    rcx,QWORD PTR fs:0x28
    9d82:	jne    9dca <vmdk_create.part.5+0x33a>
    9d84:	add    rsp,0x488
    9d8b:	pop    rbx
    9d8c:	pop    rbp
    9d8d:	pop    r12
    9d8f:	pop    r13
    9d91:	pop    r14
    9d93:	pop    r15
    9d95:	ret
    9d96:	nop    WORD PTR cs:[rax+rax*1+0x0]
    9da0:	mov    rsi,QWORD PTR [rsp+0x54]
    9da5:	xor    edx,edx
    9da7:	mov    edi,ebx
    9da9:	shl    rsi,0x9
    9dad:	call   3650 <lseek64@plt>
    9db2:	mov    eax,DWORD PTR [rsp+0x8]
    9db6:	add    eax,DWORD PTR [rsp+0x54]
    9dba:	mov    DWORD PTR [rsp+0x18],eax
    9dbe:	jmp    9c59 <vmdk_create.part.5+0x1c9>
    9dc3:	mov    eax,0xffffffff
    9dc8:	jmp    9d71 <vmdk_create.part.5+0x2e1>
    9dca:	call   31c0 <__stack_chk_fail@plt>
    9dcf:	nop

0000000000009dd0 <vmdk_create>:
    9dd0:	test   rdx,rdx
    9dd3:	je     9de0 <vmdk_create+0x10>
    9dd5:	mov    rsi,rdx
    9dd8:	jmp    8870 <vmdk_snapshot_create>
    9ddd:	nop    DWORD PTR [rax]
    9de0:	mov    edx,ecx
    9de2:	jmp    9a90 <vmdk_create.part.5>
    9de7:	nop    WORD PTR [rax+rax*1+0x0]

0000000000009df0 <cloop_close>:
    9df0:	push   rbx
    9df1:	mov    rbx,QWORD PTR [rdi+0x40]
    9df5:	mov    edi,DWORD PTR [rbx]
    9df7:	call   3270 <close@plt>
    9dfc:	mov    eax,DWORD PTR [rbx+0x8]
    9dff:	test   eax,eax
    9e01:	jne    9e20 <cloop_close+0x30>
    9e03:	mov    rdi,QWORD PTR [rbx+0x20]
    9e07:	call   3070 <free@plt>
    9e0c:	mov    rdi,QWORD PTR [rbx+0x28]
    9e10:	call   3070 <free@plt>
    9e15:	lea    rdi,[rbx+0x30]
    9e19:	pop    rbx
    9e1a:	jmp    33c0 <inflateEnd@plt>
    9e1f:	nop
    9e20:	mov    rdi,QWORD PTR [rbx+0x10]
    9e24:	call   3070 <free@plt>
    9e29:	jmp    9e03 <cloop_close+0x13>
    9e2b:	nop    DWORD PTR [rax+rax*1+0x0]

0000000000009e30 <cloop_read>:
    9e30:	push   r15
    9e32:	push   r14
    9e34:	push   r13
    9e36:	push   r12
    9e38:	push   rbp
    9e39:	push   rbx
    9e3a:	sub    rsp,0x18
    9e3e:	mov    rbp,QWORD PTR [rdi+0x40]
    9e42:	test   ecx,ecx
    9e44:	jle    9f5a <cloop_read+0x12a>
    9e4a:	lea    eax,[rcx-0x1]
    9e4d:	mov    r13,rsi
    9e50:	mov    r12,rdx
    9e53:	lea    rax,[rsi+rax*1+0x1]
    9e58:	mov    QWORD PTR [rsp],rax
    9e5c:	lea    rax,[rbp+0x30]
    9e60:	mov    QWORD PTR [rsp+0x8],rax
    9e65:	nop    DWORD PTR [rax]
    9e68:	mov    ebx,DWORD PTR [rbp+0x18]
    9e6b:	mov    rax,r13
    9e6e:	cqo
    9e70:	idiv   rbx
    9e73:	mov    rbx,rdx
    9e76:	mov    r14,rax
    9e79:	cmp    eax,DWORD PTR [rbp+0x1c]
    9e7c:	je     9f07 <cloop_read+0xd7>
    9e82:	mov    rdx,QWORD PTR [rbp+0x10]
    9e86:	cdqe
    9e88:	mov    edi,DWORD PTR [rbp+0x0]
    9e8b:	add    rax,0x1
    9e8f:	mov    rsi,QWORD PTR [rdx+rax*8-0x8]
    9e94:	mov    r15,QWORD PTR [rdx+rax*8]
    9e98:	xor    edx,edx
    9e9a:	sub    r15d,esi
    9e9d:	call   3650 <lseek64@plt>
    9ea2:	mov    rsi,QWORD PTR [rbp+0x20]
    9ea6:	mov    edi,DWORD PTR [rbp+0x0]
    9ea9:	mov    edx,r15d
    9eac:	call   52c0 <qemu_read_ok>
    9eb1:	test   eax,eax
    9eb3:	js     9f70 <cloop_read+0x140>
    9eb9:	mov    rax,QWORD PTR [rbp+0x20]
    9ebd:	mov    DWORD PTR [rbp+0x38],r15d
    9ec1:	mov    r15,QWORD PTR [rsp+0x8]
    9ec6:	mov    QWORD PTR [rbp+0x30],rax
    9eca:	mov    rax,QWORD PTR [rbp+0x28]
    9ece:	mov    rdi,r15
    9ed1:	mov    QWORD PTR [rbp+0x48],rax
    9ed5:	mov    eax,DWORD PTR [rbp+0x4]
    9ed8:	mov    DWORD PTR [rbp+0x50],eax
    9edb:	call   3600 <inflateReset@plt>
    9ee0:	test   eax,eax
    9ee2:	jne    9f70 <cloop_read+0x140>
    9ee8:	mov    esi,0x4
    9eed:	mov    rdi,r15
    9ef0:	call   3110 <inflate@plt>
    9ef5:	cmp    eax,0x1
    9ef8:	jne    9f70 <cloop_read+0x140>
    9efa:	mov    eax,DWORD PTR [rbp+0x4]
    9efd:	cmp    QWORD PTR [rbp+0x58],rax
    9f01:	jne    9f70 <cloop_read+0x140>
    9f03:	mov    DWORD PTR [rbp+0x1c],r14d
    9f07:	shl    ebx,0x9
    9f0a:	lea    rdi,[r12+0x8]
    9f0f:	mov    rcx,r12
    9f12:	add    r13,0x1
    9f16:	mov    esi,ebx
    9f18:	add    rsi,QWORD PTR [rbp+0x28]
    9f1c:	and    rdi,0xfffffffffffffff8
    9f20:	add    r12,0x200
    9f27:	mov    rax,QWORD PTR [rsi]
    9f2a:	sub    rcx,rdi
    9f2d:	mov    QWORD PTR [r12-0x200],rax
    9f35:	mov    rax,QWORD PTR [rsi+0x1f8]
    9f3c:	sub    rsi,rcx
    9f3f:	add    ecx,0x200
    9f45:	shr    ecx,0x3
    9f48:	mov    QWORD PTR [r12-0x8],rax
    9f4d:	rep movs QWORD PTR es:[rdi],QWORD PTR ds:[rsi]
    9f50:	cmp    QWORD PTR [rsp],r13
    9f54:	jne    9e68 <cloop_read+0x38>
    9f5a:	add    rsp,0x18
    9f5e:	xor    eax,eax
    9f60:	pop    rbx
    9f61:	pop    rbp
    9f62:	pop    r12
    9f64:	pop    r13
    9f66:	pop    r14
    9f68:	pop    r15
    9f6a:	ret
    9f6b:	nop    DWORD PTR [rax+rax*1+0x0]
    9f70:	add    rsp,0x18
    9f74:	mov    eax,0xffffffff
    9f79:	pop    rbx
    9f7a:	pop    rbp
    9f7b:	pop    r12
    9f7d:	pop    r13
    9f7f:	pop    r14
    9f81:	pop    r15
    9f83:	ret
    9f84:	data16 nop WORD PTR cs:[rax+rax*1+0x0]
    9f8f:	nop

0000000000009f90 <cloop_probe>:
    9f90:	sub    rsp,0x8
    9f94:	mov    eax,0x53
    9f99:	cmp    esi,0x53
    9f9c:	cmovge esi,eax
    9f9f:	movsxd rdx,esi
    9fa2:	mov    rsi,rdi
    9fa5:	lea    rdi,[rip+0x16a5c]        # 20a08 <desc_template.13939+0x128>
    9fac:	call   32f0 <memcmp@plt>
    9fb1:	test   eax,eax
    9fb3:	sete   al
    9fb6:	add    rsp,0x8
    9fba:	movzx  eax,al
    9fbd:	add    eax,eax
    9fbf:	ret

0000000000009fc0 <cloop_open>:
    9fc0:	push   r12
    9fc2:	xor    eax,eax
    9fc4:	push   rbp
    9fc5:	mov    rbp,rdi
    9fc8:	mov    rdi,rsi
    9fcb:	xor    esi,esi
    9fcd:	push   rbx
    9fce:	mov    rbx,QWORD PTR [rbp+0x40]
    9fd2:	call   3500 <open64@plt>
    9fd7:	mov    DWORD PTR [rbx],eax
    9fd9:	test   eax,eax
    9fdb:	js     a128 <cloop_open+0x168>
    9fe1:	mov    DWORD PTR [rbp+0x8],0x1
    9fe8:	mov    edi,DWORD PTR [rbx]
    9fea:	xor    edx,edx
    9fec:	mov    esi,0x80
    9ff1:	call   3650 <lseek64@plt>
    9ff6:	test   rax,rax
    9ff9:	js     a136 <cloop_open+0x176>
    9fff:	mov    edi,DWORD PTR [rbx]
    a001:	lea    rsi,[rbx+0x4]
    a005:	mov    edx,0x4
    a00a:	call   52c0 <qemu_read_ok>
    a00f:	test   eax,eax
    a011:	js     a136 <cloop_open+0x176>
    a017:	mov    eax,DWORD PTR [rbx+0x4]
    a01a:	mov    edi,DWORD PTR [rbx]
    a01c:	lea    rsi,[rbx+0x8]
    a020:	mov    edx,0x4
    a025:	bswap  eax
    a027:	mov    DWORD PTR [rbx+0x4],eax
    a02a:	call   52c0 <qemu_read_ok>
    a02f:	test   eax,eax
    a031:	js     a136 <cloop_open+0x176>
    a037:	mov    r12d,DWORD PTR [rbx+0x8]
    a03b:	bswap  r12d
    a03e:	mov    DWORD PTR [rbx+0x8],r12d
    a042:	shl    r12d,0x3
    a046:	mov    rdi,r12
    a049:	call   3450 <malloc@plt>
    a04e:	mov    edi,DWORD PTR [rbx]
    a050:	mov    QWORD PTR [rbx+0x10],rax
    a054:	test   rax,rax
    a057:	je     a138 <cloop_open+0x178>
    a05d:	mov    rdx,r12
    a060:	mov    rsi,rax
    a063:	call   32e0 <read@plt>
    a068:	cmp    r12,rax
    a06b:	jg     a136 <cloop_open+0x176>
    a071:	mov    eax,DWORD PTR [rbx+0x8]
    a074:	mov    edi,0x2
    a079:	test   eax,eax
    a07b:	je     a0d7 <cloop_open+0x117>
    a07d:	mov    rdx,QWORD PTR [rbx+0x10]
    a081:	xor    ecx,ecx
    a083:	mov    r8d,0x1
    a089:	mov    rax,QWORD PTR [rdx]
    a08c:	bswap  rax
    a08f:	mov    QWORD PTR [rdx],rax
    a092:	lea    eax,[rcx+0x1]
    a095:	cmp    DWORD PTR [rbx+0x8],eax
    a098:	jbe    a0d3 <cloop_open+0x113>
    a09a:	nop    WORD PTR [rax+rax*1+0x0]
    a0a0:	mov    rdx,QWORD PTR [rbx+0x10]
    a0a4:	mov    edi,eax
    a0a6:	lea    rsi,[rdx+rdi*8]
    a0aa:	mov    rdx,QWORD PTR [rsi]
    a0ad:	bswap  rdx
    a0b0:	mov    QWORD PTR [rsi],rdx
    a0b3:	test   eax,eax
    a0b5:	je     a0c9 <cloop_open+0x109>
    a0b7:	mov    rsi,QWORD PTR [rbx+0x10]
    a0bb:	mov    rdx,QWORD PTR [rsi+rdi*8]
    a0bf:	sub    edx,DWORD PTR [rsi+rcx*8]
    a0c2:	cmp    r8d,edx
    a0c5:	cmovb  r8d,edx
    a0c9:	mov    ecx,eax
    a0cb:	lea    eax,[rcx+0x1]
    a0ce:	cmp    DWORD PTR [rbx+0x8],eax
    a0d1:	ja     a0a0 <cloop_open+0xe0>
    a0d3:	lea    edi,[r8+0x1]
    a0d7:	call   5970 <qemu_malloc>
    a0dc:	mov    edi,DWORD PTR [rbx+0x4]
    a0df:	mov    QWORD PTR [rbx+0x20],rax
    a0e3:	call   5970 <qemu_malloc>
    a0e8:	lea    rdi,[rbx+0x30]
    a0ec:	mov    edx,0x70
    a0f1:	lea    rsi,[rip+0x13e47]        # 1df3f <__PRETTY_FUNCTION__.13430+0x8f>
    a0f8:	mov    QWORD PTR [rbx+0x28],rax
    a0fc:	call   34e0 <inflateInit_@plt>
    a101:	test   eax,eax
    a103:	jne    a136 <cloop_open+0x176>
    a105:	mov    ecx,DWORD PTR [rbx+0x4]
    a108:	mov    edx,DWORD PTR [rbx+0x8]
    a10b:	shr    ecx,0x9
    a10e:	mov    DWORD PTR [rbx+0x1c],edx
    a111:	imul   edx,ecx
    a114:	mov    DWORD PTR [rbx+0x18],ecx
    a117:	mov    ecx,edx
    a119:	mov    QWORD PTR [rbp+0x0],rcx
    a11d:	pop    rbx
    a11e:	pop    rbp
    a11f:	pop    r12
    a121:	ret
    a122:	nop    WORD PTR [rax+rax*1+0x0]
    a128:	call   30d0 <__errno_location@plt>
    a12d:	pop    rbx
    a12e:	pop    rbp
    a12f:	mov    eax,DWORD PTR [rax]
    a131:	pop    r12
    a133:	neg    eax
    a135:	ret
    a136:	mov    edi,DWORD PTR [rbx]
    a138:	call   3270 <close@plt>
    a13d:	mov    eax,0xffffffff
    a142:	jmp    a11d <cloop_open+0x15d>
    a144:	nop    WORD PTR cs:[rax+rax*1+0x0]
    a14e:	xchg   ax,ax

000000000000a150 <dmg_close>:
    a150:	push   rbx
    a151:	mov    rbx,QWORD PTR [rdi+0x40]
    a155:	mov    edi,DWORD PTR [rbx]
    a157:	call   3270 <close@plt>
    a15c:	mov    eax,DWORD PTR [rbx+0x4]
    a15f:	test   eax,eax
    a161:	jne    a180 <dmg_close+0x30>
    a163:	mov    rdi,QWORD PTR [rbx+0x38]
    a167:	call   3070 <free@plt>
    a16c:	mov    rdi,QWORD PTR [rbx+0x40]
    a170:	call   3070 <free@plt>
    a175:	lea    rdi,[rbx+0x48]
    a179:	pop    rbx
    a17a:	jmp    33c0 <inflateEnd@plt>
    a17f:	nop
    a180:	mov    rdi,QWORD PTR [rbx+0x8]
    a184:	call   3070 <free@plt>
    a189:	mov    rdi,QWORD PTR [rbx+0x10]
    a18d:	call   3070 <free@plt>
    a192:	mov    rdi,QWORD PTR [rbx+0x18]
    a196:	call   3070 <free@plt>
    a19b:	mov    rdi,QWORD PTR [rbx+0x20]
    a19f:	call   3070 <free@plt>
    a1a4:	mov    rdi,QWORD PTR [rbx+0x28]
    a1a8:	call   3070 <free@plt>
    a1ad:	jmp    a163 <dmg_close+0x13>
    a1af:	nop

000000000000a430 <read_uint32>:
    a430:	sub    rsp,0x18
    a434:	mov    edx,0x4
    a439:	mov    rax,QWORD PTR fs:0x28
    a442:	mov    QWORD PTR [rsp+0x8],rax
    a447:	xor    eax,eax
    a449:	lea    rsi,[rsp+0x4]
    a44e:	call   52c0 <qemu_read_ok>
    a453:	xor    edx,edx
    a455:	test   eax,eax
    a457:	js     a461 <read_uint32+0x31>
    a459:	mov    edx,DWORD PTR [rsp+0x4]
    a45d:	bswap  edx
    a45f:	mov    edx,edx
    a461:	mov    rcx,QWORD PTR [rsp+0x8]
    a466:	xor    rcx,QWORD PTR fs:0x28
    a46f:	mov    rax,rdx
    a472:	jne    a479 <read_uint32+0x49>
    a474:	add    rsp,0x18
    a478:	ret
    a479:	call   31c0 <__stack_chk_fail@plt>
    a47e:	xchg   ax,ax

000000000000a480 <read_off>:
    a480:	sub    rsp,0x18
    a484:	mov    edx,0x8
    a489:	mov    rax,QWORD PTR fs:0x28
    a492:	mov    QWORD PTR [rsp+0x8],rax
    a497:	xor    eax,eax
    a499:	mov    rsi,rsp
    a49c:	call   52c0 <qemu_read_ok>
    a4a1:	xor    edx,edx
    a4a3:	test   eax,eax
    a4a5:	js     a4ae <read_off+0x2e>
    a4a7:	mov    rdx,QWORD PTR [rsp]
    a4ab:	bswap  rdx
    a4ae:	mov    rcx,QWORD PTR [rsp+0x8]
    a4b3:	xor    rcx,QWORD PTR fs:0x28
    a4bc:	mov    rax,rdx
    a4bf:	jne    a4c6 <read_off+0x46>
    a4c1:	add    rsp,0x18
    a4c5:	ret
    a4c6:	call   31c0 <__stack_chk_fail@plt>
    a4cb:	nop    DWORD PTR [rax+rax*1+0x0]

000000000000a4d0 <dmg_open>:
    a4d0:	push   r15
    a4d2:	xor    eax,eax
    a4d4:	push   r14
    a4d6:	push   r13
    a4d8:	mov    r13d,edx
    a4db:	push   r12
    a4dd:	push   rbp
    a4de:	mov    rbp,rsi
    a4e1:	xor    esi,esi
    a4e3:	push   rbx
    a4e4:	mov    rbx,rdi
    a4e7:	sub    rsp,0x38
    a4eb:	mov    r15,QWORD PTR [rdi+0x40]
    a4ef:	mov    rdi,rbp
    a4f2:	call   3500 <open64@plt>
    a4f7:	mov    DWORD PTR [r15],eax
    a4fa:	test   eax,eax
    a4fc:	js     a5b0 <dmg_open+0xe0>
    a502:	mov    DWORD PTR [rbx+0x8],0x1
    a509:	mov    edi,DWORD PTR [r15]
    a50c:	mov    edx,0x2
    a511:	mov    rsi,0xfffffffffffffe28
    a518:	mov    DWORD PTR [r15+0x4],0x0
    a520:	mov    QWORD PTR [r15+0x28],0x0
    a528:	mov    QWORD PTR [r15+0x20],0x0
    a530:	mov    QWORD PTR [r15+0x18],0x0
    a538:	mov    QWORD PTR [r15+0x10],0x0
    a540:	call   3650 <lseek64@plt>
    a545:	test   rax,rax
    a548:	js     a57c <dmg_open+0xac>
    a54a:	mov    edi,DWORD PTR [r15]
    a54d:	call   a480 <read_off>
    a552:	mov    r12,rax
    a555:	test   rax,rax
    a558:	je     a57c <dmg_open+0xac>
    a55a:	mov    edi,DWORD PTR [r15]
    a55d:	xor    edx,edx
    a55f:	mov    rsi,rax
    a562:	call   3650 <lseek64@plt>
    a567:	test   rax,rax
    a56a:	js     a57c <dmg_open+0xac>
    a56c:	mov    edi,DWORD PTR [r15]
    a56f:	call   a430 <read_uint32>
    a574:	cmp    rax,0x100
    a57a:	je     a5d0 <dmg_open+0x100>
    a57c:	mov    edi,DWORD PTR [r15]
    a57f:	call   3270 <close@plt>
    a584:	mov    edx,r13d
    a587:	mov    rsi,rbp
    a58a:	mov    rdi,rbx
    a58d:	lea    rax,[rip+0x1fc0c]        # 2a1a0 <bdrv_raw>
    a594:	mov    QWORD PTR [rbx+0x38],rax
    a598:	add    rsp,0x38
    a59c:	pop    rbx
    a59d:	pop    rbp
    a59e:	pop    r12
    a5a0:	pop    r13
    a5a2:	pop    r14
    a5a4:	pop    r15
    a5a6:	jmp    QWORD PTR [rip+0x1fc0c]        # 2a1b8 <bdrv_raw+0x18>
    a5ac:	nop    DWORD PTR [rax+0x0]
    a5b0:	call   30d0 <__errno_location@plt>
    a5b5:	mov    eax,DWORD PTR [rax]
    a5b7:	neg    eax
    a5b9:	add    rsp,0x38
    a5bd:	pop    rbx
    a5be:	pop    rbp
    a5bf:	pop    r12
    a5c1:	pop    r13
    a5c3:	pop    r14
    a5c5:	pop    r15
    a5c7:	ret
    a5c8:	nop    DWORD PTR [rax+rax*1+0x0]
    a5d0:	mov    edi,DWORD PTR [r15]
    a5d3:	call   a430 <read_uint32>
    a5d8:	test   eax,eax
    a5da:	je     a57c <dmg_open+0xac>
    a5dc:	mov    eax,eax
    a5de:	mov    edi,DWORD PTR [r15]
    a5e1:	mov    edx,0x1
    a5e6:	mov    esi,0xf8
    a5eb:	add    rax,r12
    a5ee:	mov    QWORD PTR [rsp+0x18],rax
    a5f3:	call   3650 <lseek64@plt>
    a5f8:	test   rax,rax
    a5fb:	js     a57c <dmg_open+0xac>
    a601:	mov    DWORD PTR [rsp+0x10],0x1
    a609:	mov    DWORD PTR [rsp+0x14],0x1
    a611:	mov    QWORD PTR [rsp+0x28],0x0
    a61a:	mov    QWORD PTR [rsp+0x20],0x0
    a623:	mov    edi,DWORD PTR [r15]
    a626:	xor    esi,esi
    a628:	mov    edx,0x1
    a62d:	call   3650 <lseek64@plt>
    a632:	cmp    rax,QWORD PTR [rsp+0x18]
    a637:	jge    a857 <dmg_open+0x387>
    a63d:	mov    edi,DWORD PTR [r15]
    a640:	call   a430 <read_uint32>
    a645:	mov    r12,rax
    a648:	test   eax,eax
    a64a:	je     a57c <dmg_open+0xac>
    a650:	mov    edi,DWORD PTR [r15]
    a653:	call   a430 <read_uint32>
    a658:	cmp    eax,0x6d697368
    a65d:	jne    a668 <dmg_open+0x198>
    a65f:	cmp    r12d,0xf3
    a666:	ja     a680 <dmg_open+0x1b0>
    a668:	mov    edi,DWORD PTR [r15]
    a66b:	lea    esi,[r12-0x4]
    a670:	mov    edx,0x1
    a675:	call   3650 <lseek64@plt>
    a67a:	jmp    a623 <dmg_open+0x153>
    a67c:	nop    DWORD PTR [rax+0x0]
    a680:	mov    edi,DWORD PTR [r15]
    a683:	mov    edx,0x1
    a688:	mov    esi,0xc8
    a68d:	call   3650 <lseek64@plt>
    a692:	test   rax,rax
    a695:	js     a57c <dmg_open+0xac>
    a69b:	sub    r12d,0xcc
    a6a2:	mov    eax,0xcccccccd
    a6a7:	mov    r14d,DWORD PTR [r15+0x4]
    a6ab:	mov    rdi,QWORD PTR [r15+0x8]
    a6af:	mul    r12d
    a6b2:	mov    r12d,edx
    a6b5:	shr    r12d,0x5
    a6b9:	add    r14d,r12d
    a6bc:	mov    DWORD PTR [rsp+0xc],r12d
    a6c1:	shl    r14d,0x3
    a6c5:	mov    esi,r14d
    a6c8:	movsxd r14,r14d
    a6cb:	sar    esi,1
    a6cd:	movsxd rsi,esi
    a6d0:	call   5990 <qemu_realloc>
    a6d5:	mov    rdi,QWORD PTR [r15+0x10]
    a6d9:	mov    rsi,r14
    a6dc:	mov    QWORD PTR [r15+0x8],rax
    a6e0:	call   5990 <qemu_realloc>
    a6e5:	mov    rdi,QWORD PTR [r15+0x18]
    a6e9:	mov    rsi,r14
    a6ec:	mov    QWORD PTR [r15+0x10],rax
    a6f0:	call   5990 <qemu_realloc>
    a6f5:	mov    rdi,QWORD PTR [r15+0x20]
    a6f9:	mov    rsi,r14
    a6fc:	mov    QWORD PTR [r15+0x18],rax
    a700:	call   5990 <qemu_realloc>
    a705:	mov    rdi,QWORD PTR [r15+0x28]
    a709:	mov    rsi,r14
    a70c:	mov    QWORD PTR [r15+0x20],rax
    a710:	call   5990 <qemu_realloc>
    a715:	mov    r14d,DWORD PTR [r15+0x4]
    a719:	mov    QWORD PTR [r15+0x28],rax
    a71d:	lea    eax,[r12+r14*1]
    a721:	cmp    r14d,eax
    a724:	jae    a7c0 <dmg_open+0x2f0>
    a72a:	nop    WORD PTR [rax+rax*1+0x0]
    a730:	mov    edi,DWORD PTR [r15]
    a733:	mov    r12d,r14d
    a736:	call   a430 <read_uint32>
    a73b:	mov    rsi,QWORD PTR [r15+0x8]
    a73f:	mov    DWORD PTR [rsi+r12*4],eax
    a743:	mov    rax,QWORD PTR [r15+0x8]
    a747:	mov    eax,DWORD PTR [rax+r12*4]
    a74b:	lea    esi,[rax-0x1]
    a74e:	cmp    esi,0x1
    a751:	jbe    a7d0 <dmg_open+0x300>
    a753:	cmp    eax,0x80000005
    a758:	je     a7d0 <dmg_open+0x300>
    a75a:	lea    edx,[r14-0x1]
    a75e:	cmp    eax,0xffffffff
    a761:	jne    a78f <dmg_open+0x2bf>
    a763:	mov    eax,edx
    a765:	mov    rsi,QWORD PTR [r15+0x10]
    a769:	mov    rdx,QWORD PTR [r15+0x18]
    a76d:	mov    rdx,QWORD PTR [rdx+rax*8]
    a771:	add    rdx,QWORD PTR [rsi+rax*8]
    a775:	mov    QWORD PTR [rsp+0x20],rdx
    a77a:	mov    rsi,QWORD PTR [r15+0x20]
    a77e:	mov    rdx,QWORD PTR [r15+0x28]
    a782:	mov    rdx,QWORD PTR [rdx+rax*8]
    a786:	add    rdx,QWORD PTR [rsi+rax*8]
    a78a:	mov    QWORD PTR [rsp+0x28],rdx
    a78f:	mov    edi,DWORD PTR [r15]
    a792:	mov    edx,0x1
    a797:	mov    esi,0x24
    a79c:	call   3650 <lseek64@plt>
    a7a1:	test   rax,rax
    a7a4:	js     a57c <dmg_open+0xac>
    a7aa:	sub    DWORD PTR [rsp+0xc],0x1
    a7af:	mov    eax,DWORD PTR [rsp+0xc]
    a7b3:	add    eax,DWORD PTR [r15+0x4]
    a7b7:	cmp    eax,r14d
    a7ba:	ja     a730 <dmg_open+0x260>
    a7c0:	mov    DWORD PTR [r15+0x4],eax
    a7c4:	jmp    a623 <dmg_open+0x153>
    a7c9:	nop    DWORD PTR [rax+0x0]
    a7d0:	mov    edi,DWORD PTR [r15]
    a7d3:	call   a430 <read_uint32>
    a7d8:	mov    edi,DWORD PTR [r15]
    a7db:	call   a480 <read_off>
    a7e0:	mov    rsi,QWORD PTR [r15+0x20]
    a7e4:	add    rax,QWORD PTR [rsp+0x28]
    a7e9:	mov    QWORD PTR [rsi+r12*8],rax
    a7ed:	mov    edi,DWORD PTR [r15]
    a7f0:	call   a480 <read_off>
    a7f5:	mov    rsi,QWORD PTR [r15+0x28]
    a7f9:	mov    QWORD PTR [rsi+r12*8],rax
    a7fd:	mov    edi,DWORD PTR [r15]
    a800:	call   a480 <read_off>
    a805:	mov    rsi,QWORD PTR [r15+0x10]
    a809:	add    rax,QWORD PTR [rsp+0x20]
    a80e:	mov    QWORD PTR [rsi+r12*8],rax
    a812:	mov    edi,DWORD PTR [r15]
    a815:	call   a480 <read_off>
    a81a:	mov    rsi,QWORD PTR [r15+0x18]
    a81e:	mov    edx,DWORD PTR [rsp+0x10]
    a822:	mov    QWORD PTR [rsi+r12*8],rax
    a826:	mov    rax,QWORD PTR [r15+0x18]
    a82a:	mov    esi,DWORD PTR [rsp+0x14]
    a82e:	mov    rax,QWORD PTR [rax+r12*8]
    a832:	cmp    rax,rsi
    a835:	cmovbe eax,esi
    a838:	add    r14d,0x1
    a83c:	mov    DWORD PTR [rsp+0x14],eax
    a840:	mov    rax,QWORD PTR [r15+0x28]
    a844:	mov    rax,QWORD PTR [rax+r12*8]
    a848:	cmp    rax,rdx
    a84b:	cmovbe eax,edx
    a84e:	mov    DWORD PTR [rsp+0x10],eax
    a852:	jmp    a7af <dmg_open+0x2df>
    a857:	mov    eax,DWORD PTR [rsp+0x14]
    a85b:	lea    edi,[rax+0x1]
    a85e:	call   5970 <qemu_malloc>
    a863:	mov    edi,DWORD PTR [rsp+0x10]
    a867:	mov    QWORD PTR [r15+0x38],rax
    a86b:	shl    edi,0x9
    a86e:	call   5970 <qemu_malloc>
    a873:	lea    rdi,[r15+0x48]
    a877:	mov    edx,0x70
    a87c:	lea    rsi,[rip+0x136bc]        # 1df3f <__PRETTY_FUNCTION__.13430+0x8f>
    a883:	mov    QWORD PTR [r15+0x40],rax
    a887:	call   34e0 <inflateInit_@plt>
    a88c:	test   eax,eax
    a88e:	jne    a57c <dmg_open+0xac>
    a894:	mov    edx,DWORD PTR [r15+0x4]
    a898:	mov    DWORD PTR [r15+0x30],edx
    a89c:	jmp    a5b9 <dmg_open+0xe9>
    a8a1:	data16 nop WORD PTR cs:[rax+rax*1+0x0]
    a8ac:	nop    DWORD PTR [rax+0x0]

000000000000a8b0 <dmg_probe>:
    a8b0:	push   rbx
    a8b1:	mov    rdi,rdx
    a8b4:	mov    rbx,rdx
    a8b7:	call   31b0 <strlen@plt>
    a8bc:	xor    ecx,ecx
    a8be:	cmp    eax,0x4
    a8c1:	jle    a8e6 <dmg_probe+0x36>
    a8c3:	cdqe
    a8c5:	mov    ecx,0x5
    a8ca:	lea    rdi,[rip+0x16191]        # 20a62 <desc_template.13939+0x182>
    a8d1:	lea    rsi,[rbx+rax*1-0x4]
    a8d6:	repz cmps BYTE PTR ds:[rsi],BYTE PTR es:[rdi]
    a8d8:	seta   al
    a8db:	sbb    al,0x0
    a8dd:	xor    ecx,ecx
    a8df:	test   al,al
    a8e1:	sete   cl
    a8e4:	add    ecx,ecx
    a8e6:	mov    eax,ecx
    a8e8:	pop    rbx
    a8e9:	ret
    a8ea:	nop    WORD PTR [rax+rax*1+0x0]

000000000000a8f0 <bochs_close>:
    a8f0:	push   rbx
    a8f1:	mov    rbx,QWORD PTR [rdi+0x40]
    a8f5:	mov    rdi,QWORD PTR [rbx+0x8]
    a8f9:	call   5960 <qemu_free>
    a8fe:	mov    edi,DWORD PTR [rbx]
    a900:	pop    rbx
    a901:	jmp    3270 <close@plt>
    a906:	nop    WORD PTR cs:[rax+rax*1+0x0]

000000000000a910 <bochs_read>:
    a910:	push   r15
    a912:	mov    rax,rdi
    a915:	push   r14
    a917:	push   r13
    a919:	push   r12
    a91b:	push   rbp
    a91c:	push   rbx
    a91d:	sub    rsp,0x38
    a921:	mov    r13,QWORD PTR [rax+0x40]
    a925:	mov    QWORD PTR [rsp+0x18],rdi
    a92a:	mov    rdi,QWORD PTR fs:0x28
    a933:	mov    QWORD PTR [rsp+0x28],rdi
    a938:	xor    edi,edi
    a93a:	test   ecx,ecx
    a93c:	jle    aa70 <bochs_read+0x160>
    a942:	lea    eax,[rcx-0x1]
    a945:	shl    rsi,0x9
    a949:	mov    rbp,rdx
    a94c:	mov    r15,r13
    a94f:	add    rax,0x1
    a953:	sub    rsi,rdx
    a956:	shl    rax,0x9
    a95a:	mov    QWORD PTR [rsp],rsi
    a95e:	add    rax,rdx
    a961:	mov    QWORD PTR [rsp+0x10],rax
    a966:	lea    rax,[rsp+0x27]
    a96b:	mov    QWORD PTR [rsp+0x8],rax
    a970:	jmp    a993 <bochs_read+0x83>
    a972:	nop    WORD PTR [rax+rax*1+0x0]
    a978:	add    rbp,0x200
    a97f:	cmp    rbp,QWORD PTR [rsp+0x10]
    a984:	je     aa70 <bochs_read+0x160>
    a98a:	mov    rax,QWORD PTR [rsp+0x18]
    a98f:	mov    r15,QWORD PTR [rax+0x40]
    a993:	mov    rax,QWORD PTR [rsp]
    a997:	movsxd rcx,DWORD PTR [r15+0x20]
    a99b:	mov    rsi,QWORD PTR [r15+0x8]
    a99f:	add    rax,rbp
    a9a2:	cqo
    a9a4:	idiv   rcx
    a9a7:	test   rdx,rdx
    a9aa:	lea    rcx,[rdx+0x1ff]
    a9b1:	mov    eax,DWORD PTR [rsi+rax*4]
    a9b4:	cmovns rcx,rdx
    a9b8:	mov    r12,rcx
    a9bb:	mov    r14,rcx
    a9be:	sar    r12,0x9
    a9c2:	cmp    eax,0xffffffff
    a9c5:	je     aa9c <bochs_read+0x18c>
    a9cb:	movsxd rbx,DWORD PTR [r15+0x18]
    a9cf:	mov    esi,DWORD PTR [r15+0x1c]
    a9d3:	mov    edi,DWORD PTR [r15]
    a9d6:	add    esi,ebx
    a9d8:	add    rbx,r12
    a9db:	imul   esi,eax
    a9de:	shl    rbx,0x9
    a9e2:	lea    rax,[rdx+0xfff]
    a9e9:	shl    esi,0x9
    a9ec:	add    esi,DWORD PTR [r15+0x14]
    a9f0:	add    rbx,rsi
    a9f3:	test   rdx,rdx
    a9f6:	cmovs  rdx,rax
    a9fa:	sar    rdx,0xc
    a9fe:	add    rsi,rdx
    aa01:	xor    edx,edx
    aa03:	call   3650 <lseek64@plt>
    aa08:	mov    rsi,QWORD PTR [rsp+0x8]
    aa0d:	mov    edi,DWORD PTR [r15]
    aa10:	mov    edx,0x1
    aa15:	call   32e0 <read@plt>
    aa1a:	test   eax,eax
    aa1c:	js     aa9c <bochs_read+0x18c>
    aa1e:	je     aa91 <bochs_read+0x181>
    aa20:	mov    rcx,r14
    aa23:	movsx  eax,BYTE PTR [rsp+0x27]
    aa28:	sar    rcx,0x3f
    aa2c:	shr    rcx,0x3d
    aa30:	lea    r9,[r12+rcx*1]
    aa34:	and    r9d,0x7
    aa38:	sub    r9,rcx
    aa3b:	bt     eax,r9d
    aa3f:	jae    aa9c <bochs_read+0x18c>
    aa41:	mov    edi,DWORD PTR [r15]
    aa44:	xor    edx,edx
    aa46:	mov    rsi,rbx
    aa49:	call   3650 <lseek64@plt>
    aa4e:	mov    edi,DWORD PTR [r13+0x0]
    aa52:	mov    edx,0x200
    aa57:	mov    rsi,rbp
    aa5a:	call   52c0 <qemu_read_ok>
    aa5f:	test   eax,eax
    aa61:	jns    a978 <bochs_read+0x68>
    aa67:	mov    eax,0xffffffff
    aa6c:	jmp    aa72 <bochs_read+0x162>
    aa6e:	xchg   ax,ax
    aa70:	xor    eax,eax
    aa72:	mov    rdi,QWORD PTR [rsp+0x28]
    aa77:	xor    rdi,QWORD PTR fs:0x28
    aa80:	jne    aad0 <bochs_read+0x1c0>
    aa82:	add    rsp,0x38
    aa86:	pop    rbx
    aa87:	pop    rbp
    aa88:	pop    r12
    aa8a:	pop    r13
    aa8c:	pop    r14
    aa8e:	pop    r15
    aa90:	ret
    aa91:	call   30d0 <__errno_location@plt>
    aa96:	mov    DWORD PTR [rax],0x5
    aa9c:	lea    rdi,[rbp+0x8]
    aaa0:	mov    rcx,rbp
    aaa3:	xor    eax,eax
    aaa5:	mov    QWORD PTR [rbp+0x0],0x0
    aaad:	mov    QWORD PTR [rbp+0x1f8],0x0
    aab8:	and    rdi,0xfffffffffffffff8
    aabc:	sub    rcx,rdi
    aabf:	add    ecx,0x200
    aac5:	shr    ecx,0x3
    aac8:	rep stos QWORD PTR es:[rdi],rax
    aacb:	jmp    a978 <bochs_read+0x68>
    aad0:	call   31c0 <__stack_chk_fail@plt>
    aad5:	data16 nop WORD PTR cs:[rax+rax*1+0x0]

000000000000aae0 <bochs_open>:
    aae0:	push   r14
    aae2:	mov    r14,rdi
    aae5:	push   r13
    aae7:	push   r12
    aae9:	push   rbp
    aaea:	mov    rbp,rsi
    aaed:	mov    esi,0x2
    aaf2:	push   rbx
    aaf3:	sub    rsp,0x410
    aafa:	mov    rbx,QWORD PTR [rdi+0x40]
    aafe:	mov    rdi,rbp
    ab01:	mov    rax,QWORD PTR fs:0x28
    ab0a:	mov    QWORD PTR [rsp+0x408],rax
    ab12:	xor    eax,eax
    ab14:	call   3500 <open64@plt>
    ab19:	mov    r12d,eax
    ab1c:	test   eax,eax
    ab1e:	js     acb8 <bochs_open+0x1d8>
    ab24:	mov    DWORD PTR [r14+0x8],0x1
    ab2c:	mov    r13,rsp
    ab2f:	mov    edx,0x200
    ab34:	mov    edi,r12d
    ab37:	mov    DWORD PTR [rbx],r12d
    ab3a:	mov    rsi,r13
    ab3d:	call   5210 <qemu_read>
    ab42:	cmp    rax,0x200
    ab48:	jne    ace0 <bochs_open+0x200>
    ab4e:	mov    ecx,0x17
    ab53:	lea    rdi,[rip+0x15f0d]        # 20a67 <desc_template.13939+0x187>
    ab5a:	mov    rsi,r13
    ab5d:	repz cmps BYTE PTR ds:[rsi],BYTE PTR es:[rdi]
    ab5f:	seta   al
    ab62:	sbb    al,0x0
    ab64:	test   al,al
    ab66:	jne    ace0 <bochs_open+0x200>
    ab6c:	lea    rsi,[r13+0x20]
    ab70:	mov    ecx,0x8
    ab75:	lea    rdi,[rip+0x15f02]        # 20a7e <desc_template.13939+0x19e>
    ab7c:	repz cmps BYTE PTR ds:[rsi],BYTE PTR es:[rdi]
    ab7e:	seta   al
    ab81:	sbb    al,0x0
    ab83:	test   al,al
    ab85:	jne    ace0 <bochs_open+0x200>
    ab8b:	lea    rsi,[r13+0x30]
    ab8f:	mov    ecx,0x8
    ab94:	lea    rdi,[rip+0x15eeb]        # 20a86 <desc_template.13939+0x1a6>
    ab9b:	repz cmps BYTE PTR ds:[rsi],BYTE PTR es:[rdi]
    ab9d:	seta   bpl
    aba1:	sbb    bpl,0x0
    aba5:	movsx  ebp,bpl
    aba9:	test   ebp,ebp
    abab:	jne    ace0 <bochs_open+0x200>
    abb1:	mov    eax,DWORD PTR [rsp+0x40]
    abb5:	cmp    eax,0x20000
    abba:	je     aca0 <bochs_open+0x1c0>
    abc0:	cmp    eax,0x10000
    abc5:	jne    ace0 <bochs_open+0x200>
    abcb:	lea    rdi,[rsp+0x200]
    abd3:	mov    ecx,0x40
    abd8:	mov    rsi,r13
    abdb:	rep movs QWORD PTR es:[rdi],QWORD PTR ds:[rsi]
    abde:	mov    rax,QWORD PTR [rsp+0x258]
    abe6:	shr    rax,0x9
    abea:	mov    QWORD PTR [r14],rax
    abed:	mov    esi,DWORD PTR [rsp+0x44]
    abf1:	mov    edi,DWORD PTR [rbx]
    abf3:	xor    edx,edx
    abf5:	call   3650 <lseek64@plt>
    abfa:	mov    edi,DWORD PTR [rsp+0x48]
    abfe:	mov    DWORD PTR [rbx+0x10],edi
    ac01:	shl    edi,0x2
    ac04:	movsxd rdi,edi
    ac07:	call   5970 <qemu_malloc>
    ac0c:	mov    QWORD PTR [rbx+0x8],rax
    ac10:	test   rax,rax
    ac13:	je     ace0 <bochs_open+0x200>
    ac19:	mov    ecx,DWORD PTR [rbx+0x10]
    ac1c:	mov    edi,DWORD PTR [rbx]
    ac1e:	mov    rsi,rax
    ac21:	lea    edx,[rcx*4+0x0]
    ac28:	movsxd rdx,edx
    ac2b:	call   32e0 <read@plt>
    ac30:	mov    ecx,DWORD PTR [rbx+0x10]
    ac33:	lea    edx,[rcx*4+0x0]
    ac3a:	movsxd rcx,edx
    ac3d:	cmp    rcx,rax
    ac40:	jne    ace0 <bochs_open+0x200>
    ac46:	add    edx,DWORD PTR [rsp+0x44]
    ac4a:	mov    DWORD PTR [rbx+0x14],edx
    ac4d:	mov    eax,DWORD PTR [rsp+0x4c]
    ac51:	sub    eax,0x1
    ac54:	shr    eax,0x9
    ac57:	add    eax,0x1
    ac5a:	mov    DWORD PTR [rbx+0x18],eax
    ac5d:	mov    eax,DWORD PTR [rsp+0x50]
    ac61:	sub    eax,0x1
    ac64:	shr    eax,0x9
    ac67:	add    eax,0x1
    ac6a:	mov    DWORD PTR [rbx+0x1c],eax
    ac6d:	mov    eax,DWORD PTR [rsp+0x50]
    ac71:	mov    DWORD PTR [rbx+0x20],eax
    ac74:	mov    rdx,QWORD PTR [rsp+0x408]
    ac7c:	xor    rdx,QWORD PTR fs:0x28
    ac85:	mov    eax,ebp
    ac87:	jne    acef <bochs_open+0x20f>
    ac89:	add    rsp,0x410
    ac90:	pop    rbx
    ac91:	pop    rbp
    ac92:	pop    r12
    ac94:	pop    r13
    ac96:	pop    r14
    ac98:	ret
    ac99:	nop    DWORD PTR [rax+0x0]
    aca0:	mov    rax,QWORD PTR [rsp+0x58]
    aca5:	shr    rax,0x9
    aca9:	mov    QWORD PTR [r14],rax
    acac:	jmp    abed <bochs_open+0x10d>
    acb1:	nop    DWORD PTR [rax+0x0]
    acb8:	xor    esi,esi
    acba:	mov    rdi,rbp
    acbd:	xor    eax,eax
    acbf:	call   3500 <open64@plt>
    acc4:	mov    r12d,eax
    acc7:	test   eax,eax
    acc9:	jns    ab24 <bochs_open+0x44>
    accf:	mov    ebp,0xffffffff
    acd4:	jmp    ac74 <bochs_open+0x194>
    acd6:	nop    WORD PTR cs:[rax+rax*1+0x0]
    ace0:	mov    edi,r12d
    ace3:	mov    ebp,0xffffffff
    ace8:	call   3270 <close@plt>
    aced:	jmp    ac74 <bochs_open+0x194>
    acef:	call   31c0 <__stack_chk_fail@plt>
    acf4:	data16 nop WORD PTR cs:[rax+rax*1+0x0]
    acff:	nop

000000000000ad00 <bochs_probe>:
    ad00:	mov    r8,rdi
    ad03:	xor    eax,eax
    ad05:	cmp    esi,0x1ff
    ad0b:	jle    ad82 <bochs_probe+0x82>
    ad0d:	mov    ecx,0x17
    ad12:	lea    rdi,[rip+0x15d4e]        # 20a67 <desc_template.13939+0x187>
    ad19:	mov    rsi,r8
    ad1c:	repz cmps BYTE PTR ds:[rsi],BYTE PTR es:[rdi]
    ad1e:	seta   al
    ad21:	sbb    al,0x0
    ad23:	movsx  eax,al
    ad26:	test   eax,eax
    ad28:	jne    ad80 <bochs_probe+0x80>
    ad2a:	lea    rsi,[r8+0x20]
    ad2e:	mov    ecx,0x8
    ad33:	lea    rdi,[rip+0x15d44]        # 20a7e <desc_template.13939+0x19e>
    ad3a:	repz cmps BYTE PTR ds:[rsi],BYTE PTR es:[rdi]
    ad3c:	seta   dl
    ad3f:	sbb    dl,0x0
    ad42:	test   dl,dl
    ad44:	jne    ad82 <bochs_probe+0x82>
    ad46:	lea    rsi,[r8+0x30]
    ad4a:	mov    ecx,0x8
    ad4f:	lea    rdi,[rip+0x15d30]        # 20a86 <desc_template.13939+0x1a6>
    ad56:	repz cmps BYTE PTR ds:[rsi],BYTE PTR es:[rdi]
    ad58:	seta   al
    ad5b:	sbb    al,0x0
    ad5d:	movsx  eax,al
    ad60:	test   eax,eax
    ad62:	jne    ad80 <bochs_probe+0x80>
    ad64:	mov    edx,DWORD PTR [r8+0x40]
    ad68:	sub    edx,0x10000
    ad6e:	and    edx,0xfffeffff
    ad74:	mov    edx,0x64
    ad79:	cmove  eax,edx
    ad7c:	ret
    ad7d:	nop    DWORD PTR [rax]
    ad80:	xor    eax,eax
    ad82:	ret
    ad83:	nop    WORD PTR cs:[rax+rax*1+0x0]
    ad8d:	nop    DWORD PTR [rax]

000000000000ad90 <vpc_close>:
    ad90:	push   rbx
    ad91:	mov    rbx,QWORD PTR [rdi+0x40]
    ad95:	mov    rdi,QWORD PTR [rbx+0x218]
    ad9c:	call   5960 <qemu_free>
    ada1:	mov    rdi,QWORD PTR [rbx]
    ada4:	pop    rbx
    ada5:	jmp    18130 <bdrv_delete>
    adaa:	nop    WORD PTR [rax+rax*1+0x0]

000000000000adb0 <vpc_write>:
    adb0:	push   rbp
    adb1:	mov    rbp,rsp
    adb4:	push   r15
    adb6:	push   r14
    adb8:	push   r13
    adba:	push   r12
    adbc:	push   rbx
    adbd:	sub    rsp,0x48
    adc1:	mov    r12,QWORD PTR [rdi+0x40]
    adc5:	mov    rax,QWORD PTR fs:0x28
    adce:	mov    QWORD PTR [rbp-0x38],rax
    add2:	xor    eax,eax
    add4:	test   ecx,ecx
    add6:	jle    aef0 <vpc_write+0x140>
    addc:	lea    eax,[rcx-0x1]
    addf:	mov    r13,rdi
    ade2:	mov    r15,rsi
    ade5:	mov    rbx,rdx
    ade8:	lea    rax,[rsi+rax*1+0x1]
    aded:	mov    r14,r12
    adf0:	mov    QWORD PTR [rbp-0x48],rax
    adf4:	lea    rax,[rbp-0x3c]
    adf8:	mov    QWORD PTR [rbp-0x68],rax
    adfc:	jmp    ae19 <vpc_write+0x69>
    adfe:	xchg   ax,ax
    ae00:	add    r15,0x1
    ae04:	add    rbx,0x200
    ae0b:	cmp    r15,QWORD PTR [rbp-0x48]
    ae0f:	je     aef0 <vpc_write+0x140>
    ae15:	mov    r14,QWORD PTR [r13+0x40]
    ae19:	mov    r10,r15
    ae1c:	mov    edi,DWORD PTR [r14+0x230]
    ae23:	xor    edx,edx
    ae25:	shl    r10,0x9
    ae29:	mov    rax,r10
    ae2c:	div    rdi
    ae2f:	mov    rcx,rdx
    ae32:	mov    edx,DWORD PTR [r14+0x234]
    ae39:	shr    rcx,0x9
    ae3d:	cmp    DWORD PTR [r14+0x210],eax
    ae44:	jbe    af18 <vpc_write+0x168>
    ae4a:	mov    rsi,QWORD PTR [r14+0x218]
    ae51:	mov    eax,eax
    ae53:	mov    eax,DWORD PTR [rsi+rax*4]
    ae56:	cmp    eax,0xffffffff
    ae59:	je     af18 <vpc_write+0x168>
    ae5f:	mov    r10d,eax
    ae62:	shl    rcx,0x9
    ae66:	shl    r10,0x9
    ae6a:	lea    r11,[rcx+rdx*1]
    ae6e:	add    r11,r10
    ae71:	cmp    r10,QWORD PTR [r14+0x228]
    ae78:	je     aeca <vpc_write+0x11a>
    ae7a:	lea    rax,[rdx+0xf]
    ae7e:	mov    QWORD PTR [rbp-0x50],rsp
    ae82:	mov    esi,0xff
    ae87:	shr    rax,0x4
    ae8b:	mov    QWORD PTR [r14+0x228],r10
    ae92:	shl    rax,0x4
    ae96:	mov    QWORD PTR [rbp-0x60],r11
    ae9a:	sub    rsp,rax
    ae9d:	mov    QWORD PTR [rbp-0x58],r10
    aea1:	mov    rdi,rsp
    aea4:	call   3250 <memset@plt>
    aea9:	mov    r10,QWORD PTR [rbp-0x58]
    aead:	mov    rdi,QWORD PTR [r14]
    aeb0:	mov    rdx,rsp
    aeb3:	mov    ecx,DWORD PTR [r14+0x234]
    aeba:	mov    rsi,r10
    aebd:	call   19110 <bdrv_pwrite>
    aec2:	mov    rsp,QWORD PTR [rbp-0x50]
    aec6:	mov    r11,QWORD PTR [rbp-0x60]
    aeca:	mov    rsi,r11
    aecd:	mov    rdi,QWORD PTR [r12]
    aed1:	mov    ecx,0x200
    aed6:	mov    rdx,rbx
    aed9:	call   19110 <bdrv_pwrite>
    aede:	cmp    eax,0x200
    aee3:	je     ae00 <vpc_write+0x50>
    aee9:	mov    eax,0xffffffff
    aeee:	jmp    aef2 <vpc_write+0x142>
    aef0:	xor    eax,eax
    aef2:	mov    rbx,QWORD PTR [rbp-0x38]
    aef6:	xor    rbx,QWORD PTR fs:0x28
    aeff:	jne    b090 <vpc_write+0x2e0>
    af05:	lea    rsp,[rbp-0x28]
    af09:	pop    rbx
    af0a:	pop    r12
    af0c:	pop    r13
    af0e:	pop    r14
    af10:	pop    r15
    af12:	pop    rbp
    af13:	ret
    af14:	nop    DWORD PTR [rax+0x0]
    af18:	add    rdx,0xf
    af1c:	mov    QWORD PTR [rbp-0x50],rsp
    af20:	shr    rdx,0x4
    af24:	shl    rdx,0x4
    af28:	sub    rsp,rdx
    af2b:	test   r15,r15
    af2e:	js     b082 <vpc_write+0x2d2>
    af34:	cmp    QWORD PTR [r13+0x0],r15
    af38:	jl     b082 <vpc_write+0x2d2>
    af3e:	mov    rax,r10
    af41:	mov    QWORD PTR [rbp-0x70],r10
    af45:	cqo
    af47:	idiv   rdi
    af4a:	mov    r11d,eax
    af4d:	mov    QWORD PTR [rbp-0x60],rax
    af51:	mov    rax,QWORD PTR [r14+0x218]
    af58:	mov    QWORD PTR [rbp-0x58],r11
    af5c:	lea    rdx,[rax+r11*4]
    af60:	cmp    DWORD PTR [rdx],0xffffffff
    af63:	jne    b082 <vpc_write+0x2d2>
    af69:	mov    rax,QWORD PTR [r14+0x208]
    af70:	mov    esi,0xff
    af75:	mov    rdi,rsp
    af78:	shr    rax,0x9
    af7c:	mov    DWORD PTR [rdx],eax
    af7e:	mov    edx,DWORD PTR [r14+0x234]
    af85:	call   3250 <memset@plt>
    af8a:	mov    ecx,DWORD PTR [r14+0x234]
    af91:	mov    rdi,QWORD PTR [r14]
    af94:	mov    rdx,rsp
    af97:	mov    rsi,QWORD PTR [r14+0x208]
    af9e:	call   19110 <bdrv_pwrite>
    afa3:	mov    eax,DWORD PTR [r14+0x234]
    afaa:	mov    ecx,0x200
    afaf:	add    eax,DWORD PTR [r14+0x230]
    afb6:	add    QWORD PTR [r14+0x208],rax
    afbd:	mov    rax,QWORD PTR [r13+0x40]
    afc1:	mov    rsi,QWORD PTR [rax+0x208]
    afc8:	mov    rdi,QWORD PTR [rax]
    afcb:	lea    rdx,[rax+0x8]
    afcf:	call   19110 <bdrv_pwrite>
    afd4:	test   eax,eax
    afd6:	js     b06d <vpc_write+0x2bd>
    afdc:	mov    rax,QWORD PTR [r14+0x218]
    afe3:	mov    r11,QWORD PTR [rbp-0x58]
    afe7:	mov    ecx,0x4
    afec:	mov    r8,QWORD PTR [rbp-0x60]
    aff0:	mov    rdx,QWORD PTR [rbp-0x68]
    aff4:	mov    eax,DWORD PTR [rax+r11*4]
    aff8:	lea    esi,[r8*4+0x0]
    b000:	add    rsi,QWORD PTR [r14+0x220]
    b007:	bswap  eax
    b009:	mov    DWORD PTR [rbp-0x3c],eax
    b00c:	mov    rdi,QWORD PTR [r14]
    b00f:	call   19110 <bdrv_pwrite>
    b014:	test   eax,eax
    b016:	js     b06d <vpc_write+0x2bd>
    b018:	mov    r8,QWORD PTR [r13+0x40]
    b01c:	mov    r10,QWORD PTR [rbp-0x70]
    b020:	xor    edx,edx
    b022:	mov    ecx,DWORD PTR [r8+0x230]
    b029:	mov    rax,r10
    b02c:	div    rcx
    b02f:	shr    rdx,0x9
    b033:	cmp    DWORD PTR [r8+0x210],eax
    b03a:	jbe    b082 <vpc_write+0x2d2>
    b03c:	mov    ecx,eax
    b03e:	mov    rax,QWORD PTR [r8+0x218]
    b045:	mov    edi,DWORD PTR [rax+rcx*4]
    b048:	cmp    edi,0xffffffff
    b04b:	je     b082 <vpc_write+0x2d2>
    b04d:	mov    ecx,DWORD PTR [r8+0x234]
    b054:	shl    rdx,0x9
    b058:	shl    rdi,0x9
    b05c:	mov    rsp,QWORD PTR [rbp-0x50]
    b060:	lea    rax,[rcx+rdx*1]
    b064:	lea    rsi,[rax+rdi*1]
    b068:	jmp    aecd <vpc_write+0x11d>
    b06d:	mov    eax,DWORD PTR [r14+0x234]
    b074:	add    eax,DWORD PTR [r14+0x230]
    b07b:	sub    QWORD PTR [r14+0x208],rax
    b082:	mov    eax,0xffffffff
    b087:	mov    rsp,QWORD PTR [rbp-0x50]
    b08b:	jmp    aef2 <vpc_write+0x142>
    b090:	call   31c0 <__stack_chk_fail@plt>
    b095:	data16 nop WORD PTR cs:[rax+rax*1+0x0]

000000000000b1b0 <vpc_open>:
    b1b0:	push   r13
    b1b2:	mov    r13,rsi
    b1b5:	push   r12
    b1b7:	mov    r12,rdi
    b1ba:	push   rbp
    b1bb:	push   rbx
    b1bc:	sub    rsp,0x218
    b1c3:	mov    rbx,QWORD PTR [rdi+0x40]
    b1c7:	mov    rax,QWORD PTR fs:0x28
    b1d0:	mov    QWORD PTR [rsp+0x208],rax
    b1d8:	xor    eax,eax
    b1da:	mov    rdi,rbx
